
kernel.elf:     file format elf64-littleaarch64


Disassembly of section .text:

0000000000080000 <_boot_start>:
   80000:	d53b4220 	mrs	x0, daif
   80004:	b27a0400 	orr	x0, x0, #0xc0
   80008:	d51b4220 	msr	daif, x0
   8000c:	d53800a1 	mrs	x1, mpidr_el1
   80010:	92400421 	and	x1, x1, #0x3
   80014:	b4000061 	cbz	x1, 80020 <el2_entry>
   80018:	d503205f 	wfe
   8001c:	17ffffff 	b	80018 <_boot_start+0x18>

0000000000080020 <el2_entry>:
   80020:	58000642 	ldr	x2, 800e8 <bss_done+0x10>
   80024:	9100005f 	mov	sp, x2
   80028:	d51c4102 	msr	sp_el1, x2
   8002c:	d5033fdf 	isb
   80030:	d2b00000 	mov	x0, #0x80000000            	// #2147483648
   80034:	b27f0000 	orr	x0, x0, #0x2
   80038:	d51c1100 	msr	hcr_el2, x0
   8003c:	d53c1100 	mrs	x0, hcr_el2
   80040:	d2800000 	mov	x0, #0x0                   	// #0
   80044:	b26c0400 	orr	x0, x0, #0x300000
   80048:	d5181040 	msr	cpacr_el1, x0
   8004c:	d5033fdf 	isb
   80050:	d2810000 	mov	x0, #0x800                 	// #2048
   80054:	f2a61a00 	movk	x0, #0x30d0, lsl #16
   80058:	d5181000 	msr	sctlr_el1, x0
   8005c:	580004a0 	ldr	x0, 800f0 <bss_done+0x18>
   80060:	d518c000 	msr	vbar_el1, x0
   80064:	d5033fdf 	isb
   80068:	d28000a1 	mov	x1, #0x5                   	// #5
   8006c:	b2790021 	orr	x1, x1, #0x80
   80070:	b2780021 	orr	x1, x1, #0x100
   80074:	b2770021 	orr	x1, x1, #0x200
   80078:	d51c4001 	msr	spsr_el2, x1
   8007c:	10000060 	adr	x0, 80088 <el1_entry>
   80080:	d51c4020 	msr	elr_el2, x0
   80084:	d69f03e0 	eret

0000000000080088 <el1_entry>:
   80088:	58000302 	ldr	x2, 800e8 <bss_done+0x10>
   8008c:	927cec42 	and	x2, x2, #0xfffffffffffffff0
   80090:	d5184102 	msr	sp_el0, x2
   80094:	580002e0 	ldr	x0, 800f0 <bss_done+0x18>
   80098:	d518c000 	msr	vbar_el1, x0
   8009c:	d5033fdf 	isb
   800a0:	d2800001 	mov	x1, #0x0                   	// #0
   800a4:	d5184001 	msr	spsr_el1, x1
   800a8:	100000a0 	adr	x0, 800bc <el0_entry>
   800ac:	d5184020 	msr	elr_el1, x0
   800b0:	94000016 	bl	80108 <set_aux>
   800b4:	d5033fdf 	isb
   800b8:	d69f03e0 	eret

00000000000800bc <el0_entry>:
   800bc:	580001e0 	ldr	x0, 800f8 <bss_done+0x20>
   800c0:	58000201 	ldr	x1, 80100 <bss_done+0x28>
   800c4:	d2800002 	mov	x2, #0x0                   	// #0

00000000000800c8 <bss_clear_loop>:
   800c8:	eb01001f 	cmp	x0, x1
   800cc:	5400006a 	b.ge	800d8 <bss_done>  // b.tcont
   800d0:	f8008402 	str	x2, [x0], #8
   800d4:	17fffffd 	b	800c8 <bss_clear_loop>

00000000000800d8 <bss_done>:
   800d8:	94000b80 	bl	82ed8 <main>
   800dc:	d503205f 	wfe
   800e0:	17ffffff 	b	800dc <bss_done+0x4>
   800e4:	00000000 	udf	#0
   800e8:	00085000 	.inst	0x00085000 ; undefined
   800ec:	00000000 	udf	#0
   800f0:	00081000 	.inst	0x00081000 ; undefined
   800f4:	00000000 	udf	#0
   800f8:	00084000 	.inst	0x00084000 ; undefined
   800fc:	00000000 	udf	#0
   80100:	00085110 	.inst	0x00085110 ; undefined
   80104:	00000000 	udf	#0

0000000000080108 <set_aux>:
   80108:	d2964200 	mov	x0, #0xb210                	// #45584
   8010c:	f2a7e000 	movk	x0, #0x3f00, lsl #16
   80110:	52a40001 	mov	w1, #0x20000000            	// #536870912
   80114:	b9000001 	str	w1, [x0]
   80118:	d503201f 	nop
   8011c:	d65f03c0 	ret

0000000000080120 <dummy_exception_handler>:
   80120:	a9bf7bfd 	stp	x29, x30, [sp, #-16]!
   80124:	910003fd 	mov	x29, sp
   80128:	d0000000 	adrp	x0, 82000 <my_printf+0x16c>
   8012c:	913c4000 	add	x0, x0, #0xf10
   80130:	94000759 	bl	81e94 <my_printf>
   80134:	d503201f 	nop
   80138:	a8c17bfd 	ldp	x29, x30, [sp], #16
   8013c:	d65f03c0 	ret

0000000000080140 <sync_handler>:
   80140:	a9bc7bfd 	stp	x29, x30, [sp, #-64]!
   80144:	910003fd 	mov	x29, sp
   80148:	f90017e0 	str	x0, [sp, #40]
   8014c:	f90013e1 	str	x1, [sp, #32]
   80150:	f9000fe2 	str	x2, [sp, #24]
   80154:	f94013e0 	ldr	x0, [sp, #32]
   80158:	12005c00 	and	w0, w0, #0xffffff
   8015c:	b9003fe0 	str	w0, [sp, #60]
   80160:	f94013e0 	ldr	x0, [sp, #32]
   80164:	d35afc00 	lsr	x0, x0, #26
   80168:	b9003be0 	str	w0, [sp, #56]
   8016c:	b9403fe0 	ldr	w0, [sp, #60]
   80170:	7100001f 	cmp	w0, #0x0
   80174:	540000a1 	b.ne	80188 <sync_handler+0x48>  // b.any
   80178:	d0000000 	adrp	x0, 82000 <my_printf+0x16c>
   8017c:	913cc000 	add	x0, x0, #0xf30
   80180:	94000745 	bl	81e94 <my_printf>
   80184:	1400001a 	b	801ec <sync_handler+0xac>
   80188:	b9403fe0 	ldr	w0, [sp, #60]
   8018c:	7100041f 	cmp	w0, #0x1
   80190:	54000241 	b.ne	801d8 <sync_handler+0x98>  // b.any
   80194:	f94017e1 	ldr	x1, [sp, #40]
   80198:	d0000000 	adrp	x0, 82000 <my_printf+0x16c>
   8019c:	913d0000 	add	x0, x0, #0xf40
   801a0:	9400073d 	bl	81e94 <my_printf>
   801a4:	f9400fe1 	ldr	x1, [sp, #24]
   801a8:	d0000000 	adrp	x0, 82000 <my_printf+0x16c>
   801ac:	913d4000 	add	x0, x0, #0xf50
   801b0:	94000739 	bl	81e94 <my_printf>
   801b4:	b9403be1 	ldr	w1, [sp, #56]
   801b8:	d0000000 	adrp	x0, 82000 <my_printf+0x16c>
   801bc:	913dc000 	add	x0, x0, #0xf70
   801c0:	94000735 	bl	81e94 <my_printf>
   801c4:	b9403fe1 	ldr	w1, [sp, #60]
   801c8:	d0000000 	adrp	x0, 82000 <my_printf+0x16c>
   801cc:	913e4000 	add	x0, x0, #0xf90
   801d0:	94000731 	bl	81e94 <my_printf>
   801d4:	14000006 	b	801ec <sync_handler+0xac>
   801d8:	b9403fe0 	ldr	w0, [sp, #60]
   801dc:	7100081f 	cmp	w0, #0x2
   801e0:	54000061 	b.ne	801ec <sync_handler+0xac>  // b.any
   801e4:	94000a39 	bl	82ac8 <core_timer_enable>
   801e8:	94000a4e 	bl	82b20 <local_timer_init>
   801ec:	d503201f 	nop
   801f0:	a8c47bfd 	ldp	x29, x30, [sp], #64
   801f4:	d65f03c0 	ret

00000000000801f8 <irq_handler>:
   801f8:	a9bf7bfd 	stp	x29, x30, [sp, #-16]!
   801fc:	910003fd 	mov	x29, sp
   80200:	d0000000 	adrp	x0, 82000 <my_printf+0x16c>
   80204:	913f0000 	add	x0, x0, #0xfc0
   80208:	94000723 	bl	81e94 <my_printf>
   8020c:	94000a39 	bl	82af0 <core_timer_handler>
   80210:	94000a54 	bl	82b60 <local_timer_handler>
   80214:	d503201f 	nop
   80218:	a8c17bfd 	ldp	x29, x30, [sp], #16
   8021c:	d65f03c0 	ret

0000000000080220 <fiq_handler>:
   80220:	a9bf7bfd 	stp	x29, x30, [sp, #-16]!
   80224:	910003fd 	mov	x29, sp
   80228:	d0000000 	adrp	x0, 82000 <my_printf+0x16c>
   8022c:	913f4000 	add	x0, x0, #0xfd0
   80230:	94000719 	bl	81e94 <my_printf>
   80234:	d503201f 	nop
   80238:	a8c17bfd 	ldp	x29, x30, [sp], #16
   8023c:	d65f03c0 	ret

0000000000080240 <serr_handler>:
   80240:	a9bf7bfd 	stp	x29, x30, [sp, #-16]!
   80244:	910003fd 	mov	x29, sp
   80248:	d0000000 	adrp	x0, 82000 <my_printf+0x16c>
   8024c:	913f8000 	add	x0, x0, #0xfe0
   80250:	94000711 	bl	81e94 <my_printf>
   80254:	d503201f 	nop
   80258:	a8c17bfd 	ldp	x29, x30, [sp], #16
   8025c:	d65f03c0 	ret
	...

0000000000080800 <_dummy_exc_handler>:
   80800:	97fffe48 	bl	80120 <dummy_exception_handler>
   80804:	d69f03e0 	eret

0000000000080808 <_SYNC_handler>:
   80808:	a9bf07e0 	stp	x0, x1, [sp, #-16]!
   8080c:	a9bf0fe2 	stp	x2, x3, [sp, #-16]!
   80810:	a9bf17e4 	stp	x4, x5, [sp, #-16]!
   80814:	a9bf1fe6 	stp	x6, x7, [sp, #-16]!
   80818:	a9bf27e8 	stp	x8, x9, [sp, #-16]!
   8081c:	a9bf2fea 	stp	x10, x11, [sp, #-16]!
   80820:	a9bf37ec 	stp	x12, x13, [sp, #-16]!
   80824:	a9bf3fee 	stp	x14, x15, [sp, #-16]!
   80828:	a9bf47f0 	stp	x16, x17, [sp, #-16]!
   8082c:	a9bf4ff2 	stp	x18, x19, [sp, #-16]!
   80830:	a9bf57f4 	stp	x20, x21, [sp, #-16]!
   80834:	a9bf5ff6 	stp	x22, x23, [sp, #-16]!
   80838:	a9bf67f8 	stp	x24, x25, [sp, #-16]!
   8083c:	a9bf6ffa 	stp	x26, x27, [sp, #-16]!
   80840:	a9bf77fc 	stp	x28, x29, [sp, #-16]!
   80844:	f81f0ffe 	str	x30, [sp, #-16]!
   80848:	d2800000 	mov	x0, #0x0                   	// #0
   8084c:	d5385201 	mrs	x1, esr_el1
   80850:	d5384022 	mrs	x2, elr_el1
   80854:	97fffe3b 	bl	80140 <sync_handler>
   80858:	f84107fe 	ldr	x30, [sp], #16
   8085c:	a8c177fc 	ldp	x28, x29, [sp], #16
   80860:	a8c16ffa 	ldp	x26, x27, [sp], #16
   80864:	a8c167f8 	ldp	x24, x25, [sp], #16
   80868:	a8c15ff6 	ldp	x22, x23, [sp], #16
   8086c:	a8c157f4 	ldp	x20, x21, [sp], #16
   80870:	a8c14ff2 	ldp	x18, x19, [sp], #16
   80874:	a8c147f0 	ldp	x16, x17, [sp], #16
   80878:	a8c13fee 	ldp	x14, x15, [sp], #16
   8087c:	a8c137ec 	ldp	x12, x13, [sp], #16
   80880:	a8c12fea 	ldp	x10, x11, [sp], #16
   80884:	a8c127e8 	ldp	x8, x9, [sp], #16
   80888:	a8c11fe6 	ldp	x6, x7, [sp], #16
   8088c:	a8c117e4 	ldp	x4, x5, [sp], #16
   80890:	a8c10fe2 	ldp	x2, x3, [sp], #16
   80894:	a8c107e0 	ldp	x0, x1, [sp], #16
   80898:	d69f03e0 	eret

000000000008089c <_IRQ_handler>:
   8089c:	a9bf07e0 	stp	x0, x1, [sp, #-16]!
   808a0:	a9bf0fe2 	stp	x2, x3, [sp, #-16]!
   808a4:	a9bf17e4 	stp	x4, x5, [sp, #-16]!
   808a8:	a9bf1fe6 	stp	x6, x7, [sp, #-16]!
   808ac:	a9bf27e8 	stp	x8, x9, [sp, #-16]!
   808b0:	a9bf2fea 	stp	x10, x11, [sp, #-16]!
   808b4:	a9bf37ec 	stp	x12, x13, [sp, #-16]!
   808b8:	a9bf3fee 	stp	x14, x15, [sp, #-16]!
   808bc:	a9bf47f0 	stp	x16, x17, [sp, #-16]!
   808c0:	a9bf4ff2 	stp	x18, x19, [sp, #-16]!
   808c4:	a9bf57f4 	stp	x20, x21, [sp, #-16]!
   808c8:	a9bf5ff6 	stp	x22, x23, [sp, #-16]!
   808cc:	a9bf67f8 	stp	x24, x25, [sp, #-16]!
   808d0:	a9bf6ffa 	stp	x26, x27, [sp, #-16]!
   808d4:	a9bf77fc 	stp	x28, x29, [sp, #-16]!
   808d8:	f81f0ffe 	str	x30, [sp, #-16]!
   808dc:	97fffe47 	bl	801f8 <irq_handler>
   808e0:	f84107fe 	ldr	x30, [sp], #16
   808e4:	a8c177fc 	ldp	x28, x29, [sp], #16
   808e8:	a8c16ffa 	ldp	x26, x27, [sp], #16
   808ec:	a8c167f8 	ldp	x24, x25, [sp], #16
   808f0:	a8c15ff6 	ldp	x22, x23, [sp], #16
   808f4:	a8c157f4 	ldp	x20, x21, [sp], #16
   808f8:	a8c14ff2 	ldp	x18, x19, [sp], #16
   808fc:	a8c147f0 	ldp	x16, x17, [sp], #16
   80900:	a8c13fee 	ldp	x14, x15, [sp], #16
   80904:	a8c137ec 	ldp	x12, x13, [sp], #16
   80908:	a8c12fea 	ldp	x10, x11, [sp], #16
   8090c:	a8c127e8 	ldp	x8, x9, [sp], #16
   80910:	a8c11fe6 	ldp	x6, x7, [sp], #16
   80914:	a8c117e4 	ldp	x4, x5, [sp], #16
   80918:	a8c10fe2 	ldp	x2, x3, [sp], #16
   8091c:	a8c107e0 	ldp	x0, x1, [sp], #16
   80920:	d69f03e0 	eret

0000000000080924 <_FIQ_handler>:
   80924:	a9bf07e0 	stp	x0, x1, [sp, #-16]!
   80928:	a9bf0fe2 	stp	x2, x3, [sp, #-16]!
   8092c:	a9bf17e4 	stp	x4, x5, [sp, #-16]!
   80930:	a9bf1fe6 	stp	x6, x7, [sp, #-16]!
   80934:	a9bf27e8 	stp	x8, x9, [sp, #-16]!
   80938:	a9bf2fea 	stp	x10, x11, [sp, #-16]!
   8093c:	a9bf37ec 	stp	x12, x13, [sp, #-16]!
   80940:	a9bf3fee 	stp	x14, x15, [sp, #-16]!
   80944:	a9bf47f0 	stp	x16, x17, [sp, #-16]!
   80948:	a9bf4ff2 	stp	x18, x19, [sp, #-16]!
   8094c:	a9bf57f4 	stp	x20, x21, [sp, #-16]!
   80950:	a9bf5ff6 	stp	x22, x23, [sp, #-16]!
   80954:	a9bf67f8 	stp	x24, x25, [sp, #-16]!
   80958:	a9bf6ffa 	stp	x26, x27, [sp, #-16]!
   8095c:	a9bf77fc 	stp	x28, x29, [sp, #-16]!
   80960:	f81f0ffe 	str	x30, [sp, #-16]!
   80964:	f84107fe 	ldr	x30, [sp], #16
   80968:	a8c177fc 	ldp	x28, x29, [sp], #16
   8096c:	a8c16ffa 	ldp	x26, x27, [sp], #16
   80970:	a8c167f8 	ldp	x24, x25, [sp], #16
   80974:	a8c15ff6 	ldp	x22, x23, [sp], #16
   80978:	a8c157f4 	ldp	x20, x21, [sp], #16
   8097c:	a8c14ff2 	ldp	x18, x19, [sp], #16
   80980:	a8c147f0 	ldp	x16, x17, [sp], #16
   80984:	a8c13fee 	ldp	x14, x15, [sp], #16
   80988:	a8c137ec 	ldp	x12, x13, [sp], #16
   8098c:	a8c12fea 	ldp	x10, x11, [sp], #16
   80990:	a8c127e8 	ldp	x8, x9, [sp], #16
   80994:	a8c11fe6 	ldp	x6, x7, [sp], #16
   80998:	a8c117e4 	ldp	x4, x5, [sp], #16
   8099c:	a8c10fe2 	ldp	x2, x3, [sp], #16
   809a0:	a8c107e0 	ldp	x0, x1, [sp], #16
   809a4:	d69f03e0 	eret

00000000000809a8 <_SErr_handler>:
   809a8:	a9bf07e0 	stp	x0, x1, [sp, #-16]!
   809ac:	a9bf0fe2 	stp	x2, x3, [sp, #-16]!
   809b0:	a9bf17e4 	stp	x4, x5, [sp, #-16]!
   809b4:	a9bf1fe6 	stp	x6, x7, [sp, #-16]!
   809b8:	a9bf27e8 	stp	x8, x9, [sp, #-16]!
   809bc:	a9bf2fea 	stp	x10, x11, [sp, #-16]!
   809c0:	a9bf37ec 	stp	x12, x13, [sp, #-16]!
   809c4:	a9bf3fee 	stp	x14, x15, [sp, #-16]!
   809c8:	a9bf47f0 	stp	x16, x17, [sp, #-16]!
   809cc:	a9bf4ff2 	stp	x18, x19, [sp, #-16]!
   809d0:	a9bf57f4 	stp	x20, x21, [sp, #-16]!
   809d4:	a9bf5ff6 	stp	x22, x23, [sp, #-16]!
   809d8:	a9bf67f8 	stp	x24, x25, [sp, #-16]!
   809dc:	a9bf6ffa 	stp	x26, x27, [sp, #-16]!
   809e0:	a9bf77fc 	stp	x28, x29, [sp, #-16]!
   809e4:	f81f0ffe 	str	x30, [sp, #-16]!
   809e8:	f84107fe 	ldr	x30, [sp], #16
   809ec:	a8c177fc 	ldp	x28, x29, [sp], #16
   809f0:	a8c16ffa 	ldp	x26, x27, [sp], #16
   809f4:	a8c167f8 	ldp	x24, x25, [sp], #16
   809f8:	a8c15ff6 	ldp	x22, x23, [sp], #16
   809fc:	a8c157f4 	ldp	x20, x21, [sp], #16
   80a00:	a8c14ff2 	ldp	x18, x19, [sp], #16
   80a04:	a8c147f0 	ldp	x16, x17, [sp], #16
   80a08:	a8c13fee 	ldp	x14, x15, [sp], #16
   80a0c:	a8c137ec 	ldp	x12, x13, [sp], #16
   80a10:	a8c12fea 	ldp	x10, x11, [sp], #16
   80a14:	a8c127e8 	ldp	x8, x9, [sp], #16
   80a18:	a8c11fe6 	ldp	x6, x7, [sp], #16
   80a1c:	a8c117e4 	ldp	x4, x5, [sp], #16
   80a20:	a8c10fe2 	ldp	x2, x3, [sp], #16
   80a24:	a8c107e0 	ldp	x0, x1, [sp], #16
   80a28:	d69f03e0 	eret
   80a2c:	d503201f 	nop
   80a30:	d503201f 	nop
   80a34:	d503201f 	nop
   80a38:	d503201f 	nop
   80a3c:	d503201f 	nop
   80a40:	d503201f 	nop
   80a44:	d503201f 	nop
   80a48:	d503201f 	nop
   80a4c:	d503201f 	nop
   80a50:	d503201f 	nop
   80a54:	d503201f 	nop
   80a58:	d503201f 	nop
   80a5c:	d503201f 	nop
   80a60:	d503201f 	nop
   80a64:	d503201f 	nop
   80a68:	d503201f 	nop
   80a6c:	d503201f 	nop
   80a70:	d503201f 	nop
   80a74:	d503201f 	nop
   80a78:	d503201f 	nop
   80a7c:	d503201f 	nop
   80a80:	d503201f 	nop
   80a84:	d503201f 	nop
   80a88:	d503201f 	nop
   80a8c:	d503201f 	nop
   80a90:	d503201f 	nop
   80a94:	d503201f 	nop
   80a98:	d503201f 	nop
   80a9c:	d503201f 	nop
   80aa0:	d503201f 	nop
   80aa4:	d503201f 	nop
   80aa8:	d503201f 	nop
   80aac:	d503201f 	nop
   80ab0:	d503201f 	nop
   80ab4:	d503201f 	nop
   80ab8:	d503201f 	nop
   80abc:	d503201f 	nop
   80ac0:	d503201f 	nop
   80ac4:	d503201f 	nop
   80ac8:	d503201f 	nop
   80acc:	d503201f 	nop
   80ad0:	d503201f 	nop
   80ad4:	d503201f 	nop
   80ad8:	d503201f 	nop
   80adc:	d503201f 	nop
   80ae0:	d503201f 	nop
   80ae4:	d503201f 	nop
   80ae8:	d503201f 	nop
   80aec:	d503201f 	nop
   80af0:	d503201f 	nop
   80af4:	d503201f 	nop
   80af8:	d503201f 	nop
   80afc:	d503201f 	nop
   80b00:	d503201f 	nop
   80b04:	d503201f 	nop
   80b08:	d503201f 	nop
   80b0c:	d503201f 	nop
   80b10:	d503201f 	nop
   80b14:	d503201f 	nop
   80b18:	d503201f 	nop
   80b1c:	d503201f 	nop
   80b20:	d503201f 	nop
   80b24:	d503201f 	nop
   80b28:	d503201f 	nop
   80b2c:	d503201f 	nop
   80b30:	d503201f 	nop
   80b34:	d503201f 	nop
   80b38:	d503201f 	nop
   80b3c:	d503201f 	nop
   80b40:	d503201f 	nop
   80b44:	d503201f 	nop
   80b48:	d503201f 	nop
   80b4c:	d503201f 	nop
   80b50:	d503201f 	nop
   80b54:	d503201f 	nop
   80b58:	d503201f 	nop
   80b5c:	d503201f 	nop
   80b60:	d503201f 	nop
   80b64:	d503201f 	nop
   80b68:	d503201f 	nop
   80b6c:	d503201f 	nop
   80b70:	d503201f 	nop
   80b74:	d503201f 	nop
   80b78:	d503201f 	nop
   80b7c:	d503201f 	nop
   80b80:	d503201f 	nop
   80b84:	d503201f 	nop
   80b88:	d503201f 	nop
   80b8c:	d503201f 	nop
   80b90:	d503201f 	nop
   80b94:	d503201f 	nop
   80b98:	d503201f 	nop
   80b9c:	d503201f 	nop
   80ba0:	d503201f 	nop
   80ba4:	d503201f 	nop
   80ba8:	d503201f 	nop
   80bac:	d503201f 	nop
   80bb0:	d503201f 	nop
   80bb4:	d503201f 	nop
   80bb8:	d503201f 	nop
   80bbc:	d503201f 	nop
   80bc0:	d503201f 	nop
   80bc4:	d503201f 	nop
   80bc8:	d503201f 	nop
   80bcc:	d503201f 	nop
   80bd0:	d503201f 	nop
   80bd4:	d503201f 	nop
   80bd8:	d503201f 	nop
   80bdc:	d503201f 	nop
   80be0:	d503201f 	nop
   80be4:	d503201f 	nop
   80be8:	d503201f 	nop
   80bec:	d503201f 	nop
   80bf0:	d503201f 	nop
   80bf4:	d503201f 	nop
   80bf8:	d503201f 	nop
   80bfc:	d503201f 	nop
   80c00:	d503201f 	nop
   80c04:	d503201f 	nop
   80c08:	d503201f 	nop
   80c0c:	d503201f 	nop
   80c10:	d503201f 	nop
   80c14:	d503201f 	nop
   80c18:	d503201f 	nop
   80c1c:	d503201f 	nop
   80c20:	d503201f 	nop
   80c24:	d503201f 	nop
   80c28:	d503201f 	nop
   80c2c:	d503201f 	nop
   80c30:	d503201f 	nop
   80c34:	d503201f 	nop
   80c38:	d503201f 	nop
   80c3c:	d503201f 	nop
   80c40:	d503201f 	nop
   80c44:	d503201f 	nop
   80c48:	d503201f 	nop
   80c4c:	d503201f 	nop
   80c50:	d503201f 	nop
   80c54:	d503201f 	nop
   80c58:	d503201f 	nop
   80c5c:	d503201f 	nop
   80c60:	d503201f 	nop
   80c64:	d503201f 	nop
   80c68:	d503201f 	nop
   80c6c:	d503201f 	nop
   80c70:	d503201f 	nop
   80c74:	d503201f 	nop
   80c78:	d503201f 	nop
   80c7c:	d503201f 	nop
   80c80:	d503201f 	nop
   80c84:	d503201f 	nop
   80c88:	d503201f 	nop
   80c8c:	d503201f 	nop
   80c90:	d503201f 	nop
   80c94:	d503201f 	nop
   80c98:	d503201f 	nop
   80c9c:	d503201f 	nop
   80ca0:	d503201f 	nop
   80ca4:	d503201f 	nop
   80ca8:	d503201f 	nop
   80cac:	d503201f 	nop
   80cb0:	d503201f 	nop
   80cb4:	d503201f 	nop
   80cb8:	d503201f 	nop
   80cbc:	d503201f 	nop
   80cc0:	d503201f 	nop
   80cc4:	d503201f 	nop
   80cc8:	d503201f 	nop
   80ccc:	d503201f 	nop
   80cd0:	d503201f 	nop
   80cd4:	d503201f 	nop
   80cd8:	d503201f 	nop
   80cdc:	d503201f 	nop
   80ce0:	d503201f 	nop
   80ce4:	d503201f 	nop
   80ce8:	d503201f 	nop
   80cec:	d503201f 	nop
   80cf0:	d503201f 	nop
   80cf4:	d503201f 	nop
   80cf8:	d503201f 	nop
   80cfc:	d503201f 	nop
   80d00:	d503201f 	nop
   80d04:	d503201f 	nop
   80d08:	d503201f 	nop
   80d0c:	d503201f 	nop
   80d10:	d503201f 	nop
   80d14:	d503201f 	nop
   80d18:	d503201f 	nop
   80d1c:	d503201f 	nop
   80d20:	d503201f 	nop
   80d24:	d503201f 	nop
   80d28:	d503201f 	nop
   80d2c:	d503201f 	nop
   80d30:	d503201f 	nop
   80d34:	d503201f 	nop
   80d38:	d503201f 	nop
   80d3c:	d503201f 	nop
   80d40:	d503201f 	nop
   80d44:	d503201f 	nop
   80d48:	d503201f 	nop
   80d4c:	d503201f 	nop
   80d50:	d503201f 	nop
   80d54:	d503201f 	nop
   80d58:	d503201f 	nop
   80d5c:	d503201f 	nop
   80d60:	d503201f 	nop
   80d64:	d503201f 	nop
   80d68:	d503201f 	nop
   80d6c:	d503201f 	nop
   80d70:	d503201f 	nop
   80d74:	d503201f 	nop
   80d78:	d503201f 	nop
   80d7c:	d503201f 	nop
   80d80:	d503201f 	nop
   80d84:	d503201f 	nop
   80d88:	d503201f 	nop
   80d8c:	d503201f 	nop
   80d90:	d503201f 	nop
   80d94:	d503201f 	nop
   80d98:	d503201f 	nop
   80d9c:	d503201f 	nop
   80da0:	d503201f 	nop
   80da4:	d503201f 	nop
   80da8:	d503201f 	nop
   80dac:	d503201f 	nop
   80db0:	d503201f 	nop
   80db4:	d503201f 	nop
   80db8:	d503201f 	nop
   80dbc:	d503201f 	nop
   80dc0:	d503201f 	nop
   80dc4:	d503201f 	nop
   80dc8:	d503201f 	nop
   80dcc:	d503201f 	nop
   80dd0:	d503201f 	nop
   80dd4:	d503201f 	nop
   80dd8:	d503201f 	nop
   80ddc:	d503201f 	nop
   80de0:	d503201f 	nop
   80de4:	d503201f 	nop
   80de8:	d503201f 	nop
   80dec:	d503201f 	nop
   80df0:	d503201f 	nop
   80df4:	d503201f 	nop
   80df8:	d503201f 	nop
   80dfc:	d503201f 	nop
   80e00:	d503201f 	nop
   80e04:	d503201f 	nop
   80e08:	d503201f 	nop
   80e0c:	d503201f 	nop
   80e10:	d503201f 	nop
   80e14:	d503201f 	nop
   80e18:	d503201f 	nop
   80e1c:	d503201f 	nop
   80e20:	d503201f 	nop
   80e24:	d503201f 	nop
   80e28:	d503201f 	nop
   80e2c:	d503201f 	nop
   80e30:	d503201f 	nop
   80e34:	d503201f 	nop
   80e38:	d503201f 	nop
   80e3c:	d503201f 	nop
   80e40:	d503201f 	nop
   80e44:	d503201f 	nop
   80e48:	d503201f 	nop
   80e4c:	d503201f 	nop
   80e50:	d503201f 	nop
   80e54:	d503201f 	nop
   80e58:	d503201f 	nop
   80e5c:	d503201f 	nop
   80e60:	d503201f 	nop
   80e64:	d503201f 	nop
   80e68:	d503201f 	nop
   80e6c:	d503201f 	nop
   80e70:	d503201f 	nop
   80e74:	d503201f 	nop
   80e78:	d503201f 	nop
   80e7c:	d503201f 	nop
   80e80:	d503201f 	nop
   80e84:	d503201f 	nop
   80e88:	d503201f 	nop
   80e8c:	d503201f 	nop
   80e90:	d503201f 	nop
   80e94:	d503201f 	nop
   80e98:	d503201f 	nop
   80e9c:	d503201f 	nop
   80ea0:	d503201f 	nop
   80ea4:	d503201f 	nop
   80ea8:	d503201f 	nop
   80eac:	d503201f 	nop
   80eb0:	d503201f 	nop
   80eb4:	d503201f 	nop
   80eb8:	d503201f 	nop
   80ebc:	d503201f 	nop
   80ec0:	d503201f 	nop
   80ec4:	d503201f 	nop
   80ec8:	d503201f 	nop
   80ecc:	d503201f 	nop
   80ed0:	d503201f 	nop
   80ed4:	d503201f 	nop
   80ed8:	d503201f 	nop
   80edc:	d503201f 	nop
   80ee0:	d503201f 	nop
   80ee4:	d503201f 	nop
   80ee8:	d503201f 	nop
   80eec:	d503201f 	nop
   80ef0:	d503201f 	nop
   80ef4:	d503201f 	nop
   80ef8:	d503201f 	nop
   80efc:	d503201f 	nop
   80f00:	d503201f 	nop
   80f04:	d503201f 	nop
   80f08:	d503201f 	nop
   80f0c:	d503201f 	nop
   80f10:	d503201f 	nop
   80f14:	d503201f 	nop
   80f18:	d503201f 	nop
   80f1c:	d503201f 	nop
   80f20:	d503201f 	nop
   80f24:	d503201f 	nop
   80f28:	d503201f 	nop
   80f2c:	d503201f 	nop
   80f30:	d503201f 	nop
   80f34:	d503201f 	nop
   80f38:	d503201f 	nop
   80f3c:	d503201f 	nop
   80f40:	d503201f 	nop
   80f44:	d503201f 	nop
   80f48:	d503201f 	nop
   80f4c:	d503201f 	nop
   80f50:	d503201f 	nop
   80f54:	d503201f 	nop
   80f58:	d503201f 	nop
   80f5c:	d503201f 	nop
   80f60:	d503201f 	nop
   80f64:	d503201f 	nop
   80f68:	d503201f 	nop
   80f6c:	d503201f 	nop
   80f70:	d503201f 	nop
   80f74:	d503201f 	nop
   80f78:	d503201f 	nop
   80f7c:	d503201f 	nop
   80f80:	d503201f 	nop
   80f84:	d503201f 	nop
   80f88:	d503201f 	nop
   80f8c:	d503201f 	nop
   80f90:	d503201f 	nop
   80f94:	d503201f 	nop
   80f98:	d503201f 	nop
   80f9c:	d503201f 	nop
   80fa0:	d503201f 	nop
   80fa4:	d503201f 	nop
   80fa8:	d503201f 	nop
   80fac:	d503201f 	nop
   80fb0:	d503201f 	nop
   80fb4:	d503201f 	nop
   80fb8:	d503201f 	nop
   80fbc:	d503201f 	nop
   80fc0:	d503201f 	nop
   80fc4:	d503201f 	nop
   80fc8:	d503201f 	nop
   80fcc:	d503201f 	nop
   80fd0:	d503201f 	nop
   80fd4:	d503201f 	nop
   80fd8:	d503201f 	nop
   80fdc:	d503201f 	nop
   80fe0:	d503201f 	nop
   80fe4:	d503201f 	nop
   80fe8:	d503201f 	nop
   80fec:	d503201f 	nop
   80ff0:	d503201f 	nop
   80ff4:	d503201f 	nop
   80ff8:	d503201f 	nop
   80ffc:	d503201f 	nop

0000000000081000 <exception_table>:
   81000:	17fffe00 	b	80800 <_dummy_exc_handler>
   81004:	d503201f 	nop
   81008:	d503201f 	nop
   8100c:	d503201f 	nop
   81010:	d503201f 	nop
   81014:	d503201f 	nop
   81018:	d503201f 	nop
   8101c:	d503201f 	nop
   81020:	d503201f 	nop
   81024:	d503201f 	nop
   81028:	d503201f 	nop
   8102c:	d503201f 	nop
   81030:	d503201f 	nop
   81034:	d503201f 	nop
   81038:	d503201f 	nop
   8103c:	d503201f 	nop
   81040:	d503201f 	nop
   81044:	d503201f 	nop
   81048:	d503201f 	nop
   8104c:	d503201f 	nop
   81050:	d503201f 	nop
   81054:	d503201f 	nop
   81058:	d503201f 	nop
   8105c:	d503201f 	nop
   81060:	d503201f 	nop
   81064:	d503201f 	nop
   81068:	d503201f 	nop
   8106c:	d503201f 	nop
   81070:	d503201f 	nop
   81074:	d503201f 	nop
   81078:	d503201f 	nop
   8107c:	d503201f 	nop
   81080:	17fffde0 	b	80800 <_dummy_exc_handler>
   81084:	d503201f 	nop
   81088:	d503201f 	nop
   8108c:	d503201f 	nop
   81090:	d503201f 	nop
   81094:	d503201f 	nop
   81098:	d503201f 	nop
   8109c:	d503201f 	nop
   810a0:	d503201f 	nop
   810a4:	d503201f 	nop
   810a8:	d503201f 	nop
   810ac:	d503201f 	nop
   810b0:	d503201f 	nop
   810b4:	d503201f 	nop
   810b8:	d503201f 	nop
   810bc:	d503201f 	nop
   810c0:	d503201f 	nop
   810c4:	d503201f 	nop
   810c8:	d503201f 	nop
   810cc:	d503201f 	nop
   810d0:	d503201f 	nop
   810d4:	d503201f 	nop
   810d8:	d503201f 	nop
   810dc:	d503201f 	nop
   810e0:	d503201f 	nop
   810e4:	d503201f 	nop
   810e8:	d503201f 	nop
   810ec:	d503201f 	nop
   810f0:	d503201f 	nop
   810f4:	d503201f 	nop
   810f8:	d503201f 	nop
   810fc:	d503201f 	nop
   81100:	17fffdc0 	b	80800 <_dummy_exc_handler>
   81104:	d503201f 	nop
   81108:	d503201f 	nop
   8110c:	d503201f 	nop
   81110:	d503201f 	nop
   81114:	d503201f 	nop
   81118:	d503201f 	nop
   8111c:	d503201f 	nop
   81120:	d503201f 	nop
   81124:	d503201f 	nop
   81128:	d503201f 	nop
   8112c:	d503201f 	nop
   81130:	d503201f 	nop
   81134:	d503201f 	nop
   81138:	d503201f 	nop
   8113c:	d503201f 	nop
   81140:	d503201f 	nop
   81144:	d503201f 	nop
   81148:	d503201f 	nop
   8114c:	d503201f 	nop
   81150:	d503201f 	nop
   81154:	d503201f 	nop
   81158:	d503201f 	nop
   8115c:	d503201f 	nop
   81160:	d503201f 	nop
   81164:	d503201f 	nop
   81168:	d503201f 	nop
   8116c:	d503201f 	nop
   81170:	d503201f 	nop
   81174:	d503201f 	nop
   81178:	d503201f 	nop
   8117c:	d503201f 	nop
   81180:	17fffda0 	b	80800 <_dummy_exc_handler>
   81184:	d503201f 	nop
   81188:	d503201f 	nop
   8118c:	d503201f 	nop
   81190:	d503201f 	nop
   81194:	d503201f 	nop
   81198:	d503201f 	nop
   8119c:	d503201f 	nop
   811a0:	d503201f 	nop
   811a4:	d503201f 	nop
   811a8:	d503201f 	nop
   811ac:	d503201f 	nop
   811b0:	d503201f 	nop
   811b4:	d503201f 	nop
   811b8:	d503201f 	nop
   811bc:	d503201f 	nop
   811c0:	d503201f 	nop
   811c4:	d503201f 	nop
   811c8:	d503201f 	nop
   811cc:	d503201f 	nop
   811d0:	d503201f 	nop
   811d4:	d503201f 	nop
   811d8:	d503201f 	nop
   811dc:	d503201f 	nop
   811e0:	d503201f 	nop
   811e4:	d503201f 	nop
   811e8:	d503201f 	nop
   811ec:	d503201f 	nop
   811f0:	d503201f 	nop
   811f4:	d503201f 	nop
   811f8:	d503201f 	nop
   811fc:	d503201f 	nop
   81200:	17fffd82 	b	80808 <_SYNC_handler>
   81204:	d503201f 	nop
   81208:	d503201f 	nop
   8120c:	d503201f 	nop
   81210:	d503201f 	nop
   81214:	d503201f 	nop
   81218:	d503201f 	nop
   8121c:	d503201f 	nop
   81220:	d503201f 	nop
   81224:	d503201f 	nop
   81228:	d503201f 	nop
   8122c:	d503201f 	nop
   81230:	d503201f 	nop
   81234:	d503201f 	nop
   81238:	d503201f 	nop
   8123c:	d503201f 	nop
   81240:	d503201f 	nop
   81244:	d503201f 	nop
   81248:	d503201f 	nop
   8124c:	d503201f 	nop
   81250:	d503201f 	nop
   81254:	d503201f 	nop
   81258:	d503201f 	nop
   8125c:	d503201f 	nop
   81260:	d503201f 	nop
   81264:	d503201f 	nop
   81268:	d503201f 	nop
   8126c:	d503201f 	nop
   81270:	d503201f 	nop
   81274:	d503201f 	nop
   81278:	d503201f 	nop
   8127c:	d503201f 	nop
   81280:	17fffd87 	b	8089c <_IRQ_handler>
   81284:	d503201f 	nop
   81288:	d503201f 	nop
   8128c:	d503201f 	nop
   81290:	d503201f 	nop
   81294:	d503201f 	nop
   81298:	d503201f 	nop
   8129c:	d503201f 	nop
   812a0:	d503201f 	nop
   812a4:	d503201f 	nop
   812a8:	d503201f 	nop
   812ac:	d503201f 	nop
   812b0:	d503201f 	nop
   812b4:	d503201f 	nop
   812b8:	d503201f 	nop
   812bc:	d503201f 	nop
   812c0:	d503201f 	nop
   812c4:	d503201f 	nop
   812c8:	d503201f 	nop
   812cc:	d503201f 	nop
   812d0:	d503201f 	nop
   812d4:	d503201f 	nop
   812d8:	d503201f 	nop
   812dc:	d503201f 	nop
   812e0:	d503201f 	nop
   812e4:	d503201f 	nop
   812e8:	d503201f 	nop
   812ec:	d503201f 	nop
   812f0:	d503201f 	nop
   812f4:	d503201f 	nop
   812f8:	d503201f 	nop
   812fc:	d503201f 	nop
   81300:	17fffd89 	b	80924 <_FIQ_handler>
   81304:	d503201f 	nop
   81308:	d503201f 	nop
   8130c:	d503201f 	nop
   81310:	d503201f 	nop
   81314:	d503201f 	nop
   81318:	d503201f 	nop
   8131c:	d503201f 	nop
   81320:	d503201f 	nop
   81324:	d503201f 	nop
   81328:	d503201f 	nop
   8132c:	d503201f 	nop
   81330:	d503201f 	nop
   81334:	d503201f 	nop
   81338:	d503201f 	nop
   8133c:	d503201f 	nop
   81340:	d503201f 	nop
   81344:	d503201f 	nop
   81348:	d503201f 	nop
   8134c:	d503201f 	nop
   81350:	d503201f 	nop
   81354:	d503201f 	nop
   81358:	d503201f 	nop
   8135c:	d503201f 	nop
   81360:	d503201f 	nop
   81364:	d503201f 	nop
   81368:	d503201f 	nop
   8136c:	d503201f 	nop
   81370:	d503201f 	nop
   81374:	d503201f 	nop
   81378:	d503201f 	nop
   8137c:	d503201f 	nop
   81380:	17fffd8a 	b	809a8 <_SErr_handler>
   81384:	d503201f 	nop
   81388:	d503201f 	nop
   8138c:	d503201f 	nop
   81390:	d503201f 	nop
   81394:	d503201f 	nop
   81398:	d503201f 	nop
   8139c:	d503201f 	nop
   813a0:	d503201f 	nop
   813a4:	d503201f 	nop
   813a8:	d503201f 	nop
   813ac:	d503201f 	nop
   813b0:	d503201f 	nop
   813b4:	d503201f 	nop
   813b8:	d503201f 	nop
   813bc:	d503201f 	nop
   813c0:	d503201f 	nop
   813c4:	d503201f 	nop
   813c8:	d503201f 	nop
   813cc:	d503201f 	nop
   813d0:	d503201f 	nop
   813d4:	d503201f 	nop
   813d8:	d503201f 	nop
   813dc:	d503201f 	nop
   813e0:	d503201f 	nop
   813e4:	d503201f 	nop
   813e8:	d503201f 	nop
   813ec:	d503201f 	nop
   813f0:	d503201f 	nop
   813f4:	d503201f 	nop
   813f8:	d503201f 	nop
   813fc:	d503201f 	nop
   81400:	17fffd02 	b	80808 <_SYNC_handler>
   81404:	d503201f 	nop
   81408:	d503201f 	nop
   8140c:	d503201f 	nop
   81410:	d503201f 	nop
   81414:	d503201f 	nop
   81418:	d503201f 	nop
   8141c:	d503201f 	nop
   81420:	d503201f 	nop
   81424:	d503201f 	nop
   81428:	d503201f 	nop
   8142c:	d503201f 	nop
   81430:	d503201f 	nop
   81434:	d503201f 	nop
   81438:	d503201f 	nop
   8143c:	d503201f 	nop
   81440:	d503201f 	nop
   81444:	d503201f 	nop
   81448:	d503201f 	nop
   8144c:	d503201f 	nop
   81450:	d503201f 	nop
   81454:	d503201f 	nop
   81458:	d503201f 	nop
   8145c:	d503201f 	nop
   81460:	d503201f 	nop
   81464:	d503201f 	nop
   81468:	d503201f 	nop
   8146c:	d503201f 	nop
   81470:	d503201f 	nop
   81474:	d503201f 	nop
   81478:	d503201f 	nop
   8147c:	d503201f 	nop
   81480:	17fffd07 	b	8089c <_IRQ_handler>
   81484:	d503201f 	nop
   81488:	d503201f 	nop
   8148c:	d503201f 	nop
   81490:	d503201f 	nop
   81494:	d503201f 	nop
   81498:	d503201f 	nop
   8149c:	d503201f 	nop
   814a0:	d503201f 	nop
   814a4:	d503201f 	nop
   814a8:	d503201f 	nop
   814ac:	d503201f 	nop
   814b0:	d503201f 	nop
   814b4:	d503201f 	nop
   814b8:	d503201f 	nop
   814bc:	d503201f 	nop
   814c0:	d503201f 	nop
   814c4:	d503201f 	nop
   814c8:	d503201f 	nop
   814cc:	d503201f 	nop
   814d0:	d503201f 	nop
   814d4:	d503201f 	nop
   814d8:	d503201f 	nop
   814dc:	d503201f 	nop
   814e0:	d503201f 	nop
   814e4:	d503201f 	nop
   814e8:	d503201f 	nop
   814ec:	d503201f 	nop
   814f0:	d503201f 	nop
   814f4:	d503201f 	nop
   814f8:	d503201f 	nop
   814fc:	d503201f 	nop
   81500:	17fffcc0 	b	80800 <_dummy_exc_handler>
   81504:	d503201f 	nop
   81508:	d503201f 	nop
   8150c:	d503201f 	nop
   81510:	d503201f 	nop
   81514:	d503201f 	nop
   81518:	d503201f 	nop
   8151c:	d503201f 	nop
   81520:	d503201f 	nop
   81524:	d503201f 	nop
   81528:	d503201f 	nop
   8152c:	d503201f 	nop
   81530:	d503201f 	nop
   81534:	d503201f 	nop
   81538:	d503201f 	nop
   8153c:	d503201f 	nop
   81540:	d503201f 	nop
   81544:	d503201f 	nop
   81548:	d503201f 	nop
   8154c:	d503201f 	nop
   81550:	d503201f 	nop
   81554:	d503201f 	nop
   81558:	d503201f 	nop
   8155c:	d503201f 	nop
   81560:	d503201f 	nop
   81564:	d503201f 	nop
   81568:	d503201f 	nop
   8156c:	d503201f 	nop
   81570:	d503201f 	nop
   81574:	d503201f 	nop
   81578:	d503201f 	nop
   8157c:	d503201f 	nop
   81580:	17fffca0 	b	80800 <_dummy_exc_handler>
   81584:	d503201f 	nop
   81588:	d503201f 	nop
   8158c:	d503201f 	nop
   81590:	d503201f 	nop
   81594:	d503201f 	nop
   81598:	d503201f 	nop
   8159c:	d503201f 	nop
   815a0:	d503201f 	nop
   815a4:	d503201f 	nop
   815a8:	d503201f 	nop
   815ac:	d503201f 	nop
   815b0:	d503201f 	nop
   815b4:	d503201f 	nop
   815b8:	d503201f 	nop
   815bc:	d503201f 	nop
   815c0:	d503201f 	nop
   815c4:	d503201f 	nop
   815c8:	d503201f 	nop
   815cc:	d503201f 	nop
   815d0:	d503201f 	nop
   815d4:	d503201f 	nop
   815d8:	d503201f 	nop
   815dc:	d503201f 	nop
   815e0:	d503201f 	nop
   815e4:	d503201f 	nop
   815e8:	d503201f 	nop
   815ec:	d503201f 	nop
   815f0:	d503201f 	nop
   815f4:	d503201f 	nop
   815f8:	d503201f 	nop
   815fc:	d503201f 	nop
   81600:	17fffc80 	b	80800 <_dummy_exc_handler>
   81604:	d503201f 	nop
   81608:	d503201f 	nop
   8160c:	d503201f 	nop
   81610:	d503201f 	nop
   81614:	d503201f 	nop
   81618:	d503201f 	nop
   8161c:	d503201f 	nop
   81620:	d503201f 	nop
   81624:	d503201f 	nop
   81628:	d503201f 	nop
   8162c:	d503201f 	nop
   81630:	d503201f 	nop
   81634:	d503201f 	nop
   81638:	d503201f 	nop
   8163c:	d503201f 	nop
   81640:	d503201f 	nop
   81644:	d503201f 	nop
   81648:	d503201f 	nop
   8164c:	d503201f 	nop
   81650:	d503201f 	nop
   81654:	d503201f 	nop
   81658:	d503201f 	nop
   8165c:	d503201f 	nop
   81660:	d503201f 	nop
   81664:	d503201f 	nop
   81668:	d503201f 	nop
   8166c:	d503201f 	nop
   81670:	d503201f 	nop
   81674:	d503201f 	nop
   81678:	d503201f 	nop
   8167c:	d503201f 	nop
   81680:	17fffc60 	b	80800 <_dummy_exc_handler>
   81684:	d503201f 	nop
   81688:	d503201f 	nop
   8168c:	d503201f 	nop
   81690:	d503201f 	nop
   81694:	d503201f 	nop
   81698:	d503201f 	nop
   8169c:	d503201f 	nop
   816a0:	d503201f 	nop
   816a4:	d503201f 	nop
   816a8:	d503201f 	nop
   816ac:	d503201f 	nop
   816b0:	d503201f 	nop
   816b4:	d503201f 	nop
   816b8:	d503201f 	nop
   816bc:	d503201f 	nop
   816c0:	d503201f 	nop
   816c4:	d503201f 	nop
   816c8:	d503201f 	nop
   816cc:	d503201f 	nop
   816d0:	d503201f 	nop
   816d4:	d503201f 	nop
   816d8:	d503201f 	nop
   816dc:	d503201f 	nop
   816e0:	d503201f 	nop
   816e4:	d503201f 	nop
   816e8:	d503201f 	nop
   816ec:	d503201f 	nop
   816f0:	d503201f 	nop
   816f4:	d503201f 	nop
   816f8:	d503201f 	nop
   816fc:	d503201f 	nop
   81700:	17fffc40 	b	80800 <_dummy_exc_handler>
   81704:	d503201f 	nop
   81708:	d503201f 	nop
   8170c:	d503201f 	nop
   81710:	d503201f 	nop
   81714:	d503201f 	nop
   81718:	d503201f 	nop
   8171c:	d503201f 	nop
   81720:	d503201f 	nop
   81724:	d503201f 	nop
   81728:	d503201f 	nop
   8172c:	d503201f 	nop
   81730:	d503201f 	nop
   81734:	d503201f 	nop
   81738:	d503201f 	nop
   8173c:	d503201f 	nop
   81740:	d503201f 	nop
   81744:	d503201f 	nop
   81748:	d503201f 	nop
   8174c:	d503201f 	nop
   81750:	d503201f 	nop
   81754:	d503201f 	nop
   81758:	d503201f 	nop
   8175c:	d503201f 	nop
   81760:	d503201f 	nop
   81764:	d503201f 	nop
   81768:	d503201f 	nop
   8176c:	d503201f 	nop
   81770:	d503201f 	nop
   81774:	d503201f 	nop
   81778:	d503201f 	nop
   8177c:	d503201f 	nop
   81780:	17fffc20 	b	80800 <_dummy_exc_handler>

0000000000081784 <memset>:
   81784:	d10043ff 	sub	sp, sp, #0x10
   81788:	f90007e0 	str	x0, [sp, #8]
   8178c:	b90007e1 	str	w1, [sp, #4]
   81790:	b90003e2 	str	w2, [sp]
   81794:	14000007 	b	817b0 <memset+0x2c>
   81798:	f94007e0 	ldr	x0, [sp, #8]
   8179c:	b94007e1 	ldr	w1, [sp, #4]
   817a0:	b9000001 	str	w1, [x0]
   817a4:	f94007e0 	ldr	x0, [sp, #8]
   817a8:	91001000 	add	x0, x0, #0x4
   817ac:	f90007e0 	str	x0, [sp, #8]
   817b0:	b94003e0 	ldr	w0, [sp]
   817b4:	51000401 	sub	w1, w0, #0x1
   817b8:	b90003e1 	str	w1, [sp]
   817bc:	7100001f 	cmp	w0, #0x0
   817c0:	54fffec1 	b.ne	81798 <memset+0x14>  // b.any
   817c4:	d503201f 	nop
   817c8:	d503201f 	nop
   817cc:	910043ff 	add	sp, sp, #0x10
   817d0:	d65f03c0 	ret

00000000000817d4 <strcmp>:
   817d4:	d10043ff 	sub	sp, sp, #0x10
   817d8:	f90007e0 	str	x0, [sp, #8]
   817dc:	f90003e1 	str	x1, [sp]
   817e0:	1400001b 	b	8184c <strcmp+0x78>
   817e4:	f94007e0 	ldr	x0, [sp, #8]
   817e8:	39400001 	ldrb	w1, [x0]
   817ec:	f94003e0 	ldr	x0, [sp]
   817f0:	39400000 	ldrb	w0, [x0]
   817f4:	6b00003f 	cmp	w1, w0
   817f8:	54000101 	b.ne	81818 <strcmp+0x44>  // b.any
   817fc:	f94007e0 	ldr	x0, [sp, #8]
   81800:	91000400 	add	x0, x0, #0x1
   81804:	f90007e0 	str	x0, [sp, #8]
   81808:	f94003e0 	ldr	x0, [sp]
   8180c:	91000400 	add	x0, x0, #0x1
   81810:	f90003e0 	str	x0, [sp]
   81814:	1400000e 	b	8184c <strcmp+0x78>
   81818:	f94007e0 	ldr	x0, [sp, #8]
   8181c:	39400001 	ldrb	w1, [x0]
   81820:	f94003e0 	ldr	x0, [sp]
   81824:	39400000 	ldrb	w0, [x0]
   81828:	6b00003f 	cmp	w1, w0
   8182c:	54000100 	b.eq	8184c <strcmp+0x78>  // b.none
   81830:	f94003e0 	ldr	x0, [sp]
   81834:	39400000 	ldrb	w0, [x0]
   81838:	2a0003e1 	mov	w1, w0
   8183c:	f94007e0 	ldr	x0, [sp, #8]
   81840:	39400000 	ldrb	w0, [x0]
   81844:	4b000020 	sub	w0, w1, w0
   81848:	1400000a 	b	81870 <strcmp+0x9c>
   8184c:	f94007e0 	ldr	x0, [sp, #8]
   81850:	39400000 	ldrb	w0, [x0]
   81854:	7100001f 	cmp	w0, #0x0
   81858:	54fffc61 	b.ne	817e4 <strcmp+0x10>  // b.any
   8185c:	f94003e0 	ldr	x0, [sp]
   81860:	39400000 	ldrb	w0, [x0]
   81864:	7100001f 	cmp	w0, #0x0
   81868:	54fffbe1 	b.ne	817e4 <strcmp+0x10>  // b.any
   8186c:	52800000 	mov	w0, #0x0                   	// #0
   81870:	910043ff 	add	sp, sp, #0x10
   81874:	d65f03c0 	ret

0000000000081878 <strlen>:
   81878:	d10083ff 	sub	sp, sp, #0x20
   8187c:	f90007e0 	str	x0, [sp, #8]
   81880:	b9001fff 	str	wzr, [sp, #28]
   81884:	14000004 	b	81894 <strlen+0x1c>
   81888:	b9401fe0 	ldr	w0, [sp, #28]
   8188c:	11000400 	add	w0, w0, #0x1
   81890:	b9001fe0 	str	w0, [sp, #28]
   81894:	b9801fe0 	ldrsw	x0, [sp, #28]
   81898:	f94007e1 	ldr	x1, [sp, #8]
   8189c:	8b000020 	add	x0, x1, x0
   818a0:	39400000 	ldrb	w0, [x0]
   818a4:	7100001f 	cmp	w0, #0x0
   818a8:	54ffff01 	b.ne	81888 <strlen+0x10>  // b.any
   818ac:	b9401fe0 	ldr	w0, [sp, #28]
   818b0:	51000400 	sub	w0, w0, #0x1
   818b4:	910083ff 	add	sp, sp, #0x20
   818b8:	d65f03c0 	ret

00000000000818bc <uart0_init>:
   818bc:	a9be7bfd 	stp	x29, x30, [sp, #-32]!
   818c0:	910003fd 	mov	x29, sp
   818c4:	9400027a 	bl	822ac <get_uart0_clk_state>
   818c8:	940002ab 	bl	82374 <get_uart0_clk_rate>
   818cc:	d2800080 	mov	x0, #0x4                   	// #4
   818d0:	f2a7e400 	movk	x0, #0x3f20, lsl #16
   818d4:	b9400000 	ldr	w0, [x0]
   818d8:	b9001fe0 	str	w0, [sp, #28]
   818dc:	b9401fe0 	ldr	w0, [sp, #28]
   818e0:	120e6400 	and	w0, w0, #0xfffc0fff
   818e4:	b9001fe0 	str	w0, [sp, #28]
   818e8:	b9401fe1 	ldr	w1, [sp, #28]
   818ec:	52880000 	mov	w0, #0x4000                	// #16384
   818f0:	72a00040 	movk	w0, #0x2, lsl #16
   818f4:	2a000020 	orr	w0, w1, w0
   818f8:	b9001fe0 	str	w0, [sp, #28]
   818fc:	d2800080 	mov	x0, #0x4                   	// #4
   81900:	f2a7e400 	movk	x0, #0x3f20, lsl #16
   81904:	b9401fe1 	ldr	w1, [sp, #28]
   81908:	b9000001 	str	w1, [x0]
   8190c:	d2801280 	mov	x0, #0x94                  	// #148
   81910:	f2a7e400 	movk	x0, #0x3f20, lsl #16
   81914:	b900001f 	str	wzr, [x0]
   81918:	528012c0 	mov	w0, #0x96                  	// #150
   8191c:	b9001fe0 	str	w0, [sp, #28]
   81920:	14000002 	b	81928 <uart0_init+0x6c>
   81924:	d503201f 	nop
   81928:	b9401fe0 	ldr	w0, [sp, #28]
   8192c:	51000401 	sub	w1, w0, #0x1
   81930:	b9001fe1 	str	w1, [sp, #28]
   81934:	7100001f 	cmp	w0, #0x0
   81938:	54ffff61 	b.ne	81924 <uart0_init+0x68>  // b.any
   8193c:	d2801300 	mov	x0, #0x98                  	// #152
   81940:	f2a7e400 	movk	x0, #0x3f20, lsl #16
   81944:	52980001 	mov	w1, #0xc000                	// #49152
   81948:	b9000001 	str	w1, [x0]
   8194c:	528012c0 	mov	w0, #0x96                  	// #150
   81950:	b9001fe0 	str	w0, [sp, #28]
   81954:	14000002 	b	8195c <uart0_init+0xa0>
   81958:	d503201f 	nop
   8195c:	b9401fe0 	ldr	w0, [sp, #28]
   81960:	51000401 	sub	w1, w0, #0x1
   81964:	b9001fe1 	str	w1, [sp, #28]
   81968:	7100001f 	cmp	w0, #0x0
   8196c:	54ffff61 	b.ne	81958 <uart0_init+0x9c>  // b.any
   81970:	d2801300 	mov	x0, #0x98                  	// #152
   81974:	f2a7e400 	movk	x0, #0x3f20, lsl #16
   81978:	b900001f 	str	wzr, [x0]
   8197c:	d2820600 	mov	x0, #0x1030                	// #4144
   81980:	f2a7e400 	movk	x0, #0x3f20, lsl #16
   81984:	b900001f 	str	wzr, [x0]
   81988:	d2820480 	mov	x0, #0x1024                	// #4132
   8198c:	f2a7e400 	movk	x0, #0x3f20, lsl #16
   81990:	52800021 	mov	w1, #0x1                   	// #1
   81994:	b9000001 	str	w1, [x0]
   81998:	d2820500 	mov	x0, #0x1028                	// #4136
   8199c:	f2a7e400 	movk	x0, #0x3f20, lsl #16
   819a0:	528007c1 	mov	w1, #0x3e                  	// #62
   819a4:	b9000001 	str	w1, [x0]
   819a8:	d2820580 	mov	x0, #0x102c                	// #4140
   819ac:	f2a7e400 	movk	x0, #0x3f20, lsl #16
   819b0:	52800c01 	mov	w1, #0x60                  	// #96
   819b4:	b9000001 	str	w1, [x0]
   819b8:	d2820600 	mov	x0, #0x1030                	// #4144
   819bc:	f2a7e400 	movk	x0, #0x3f20, lsl #16
   819c0:	52806021 	mov	w1, #0x301                 	// #769
   819c4:	b9000001 	str	w1, [x0]
   819c8:	d503201f 	nop
   819cc:	a8c27bfd 	ldp	x29, x30, [sp], #32
   819d0:	d65f03c0 	ret

00000000000819d4 <uart0_send>:
   819d4:	d10043ff 	sub	sp, sp, #0x10
   819d8:	39003fe0 	strb	w0, [sp, #15]
   819dc:	d503201f 	nop
   819e0:	d2820300 	mov	x0, #0x1018                	// #4120
   819e4:	f2a7e400 	movk	x0, #0x3f20, lsl #16
   819e8:	b9400000 	ldr	w0, [x0]
   819ec:	121b0000 	and	w0, w0, #0x20
   819f0:	7100001f 	cmp	w0, #0x0
   819f4:	54ffff61 	b.ne	819e0 <uart0_send+0xc>  // b.any
   819f8:	d2820000 	mov	x0, #0x1000                	// #4096
   819fc:	f2a7e400 	movk	x0, #0x3f20, lsl #16
   81a00:	39403fe1 	ldrb	w1, [sp, #15]
   81a04:	b9000001 	str	w1, [x0]
   81a08:	d503201f 	nop
   81a0c:	910043ff 	add	sp, sp, #0x10
   81a10:	d65f03c0 	ret

0000000000081a14 <uart0_puts>:
   81a14:	a9be7bfd 	stp	x29, x30, [sp, #-32]!
   81a18:	910003fd 	mov	x29, sp
   81a1c:	f9000fe0 	str	x0, [sp, #24]
   81a20:	1400000c 	b	81a50 <uart0_puts+0x3c>
   81a24:	f9400fe0 	ldr	x0, [sp, #24]
   81a28:	39400000 	ldrb	w0, [x0]
   81a2c:	7100281f 	cmp	w0, #0xa
   81a30:	54000061 	b.ne	81a3c <uart0_puts+0x28>  // b.any
   81a34:	528001a0 	mov	w0, #0xd                   	// #13
   81a38:	97ffffe7 	bl	819d4 <uart0_send>
   81a3c:	f9400fe0 	ldr	x0, [sp, #24]
   81a40:	91000401 	add	x1, x0, #0x1
   81a44:	f9000fe1 	str	x1, [sp, #24]
   81a48:	39400000 	ldrb	w0, [x0]
   81a4c:	97ffffe2 	bl	819d4 <uart0_send>
   81a50:	f9400fe0 	ldr	x0, [sp, #24]
   81a54:	39400000 	ldrb	w0, [x0]
   81a58:	7100001f 	cmp	w0, #0x0
   81a5c:	54fffe41 	b.ne	81a24 <uart0_puts+0x10>  // b.any
   81a60:	d503201f 	nop
   81a64:	d503201f 	nop
   81a68:	a8c27bfd 	ldp	x29, x30, [sp], #32
   81a6c:	d65f03c0 	ret

0000000000081a70 <uart0_getc>:
   81a70:	d10043ff 	sub	sp, sp, #0x10
   81a74:	d503201f 	nop
   81a78:	d2820300 	mov	x0, #0x1018                	// #4120
   81a7c:	f2a7e400 	movk	x0, #0x3f20, lsl #16
   81a80:	b9400000 	ldr	w0, [x0]
   81a84:	121c0000 	and	w0, w0, #0x10
   81a88:	7100001f 	cmp	w0, #0x0
   81a8c:	54ffff40 	b.eq	81a74 <uart0_getc+0x4>  // b.none
   81a90:	d2820000 	mov	x0, #0x1000                	// #4096
   81a94:	f2a7e400 	movk	x0, #0x3f20, lsl #16
   81a98:	b9400000 	ldr	w0, [x0]
   81a9c:	39003fe0 	strb	w0, [sp, #15]
   81aa0:	39403fe0 	ldrb	w0, [sp, #15]
   81aa4:	7100341f 	cmp	w0, #0xd
   81aa8:	54000060 	b.eq	81ab4 <uart0_getc+0x44>  // b.none
   81aac:	39403fe0 	ldrb	w0, [sp, #15]
   81ab0:	14000002 	b	81ab8 <uart0_getc+0x48>
   81ab4:	52800140 	mov	w0, #0xa                   	// #10
   81ab8:	910043ff 	add	sp, sp, #0x10
   81abc:	d65f03c0 	ret

0000000000081ac0 <uart1_init>:
   81ac0:	d28a0080 	mov	x0, #0x5004                	// #20484
   81ac4:	f2a7e420 	movk	x0, #0x3f21, lsl #16
   81ac8:	52800021 	mov	w1, #0x1                   	// #1
   81acc:	b9000001 	str	w1, [x0]
   81ad0:	d28a0c00 	mov	x0, #0x5060                	// #20576
   81ad4:	f2a7e420 	movk	x0, #0x3f21, lsl #16
   81ad8:	b900001f 	str	wzr, [x0]
   81adc:	d28a0880 	mov	x0, #0x5044                	// #20548
   81ae0:	f2a7e420 	movk	x0, #0x3f21, lsl #16
   81ae4:	b900001f 	str	wzr, [x0]
   81ae8:	d28a0980 	mov	x0, #0x504c                	// #20556
   81aec:	f2a7e420 	movk	x0, #0x3f21, lsl #16
   81af0:	52800061 	mov	w1, #0x3                   	// #3
   81af4:	b9000001 	str	w1, [x0]
   81af8:	d28a0a00 	mov	x0, #0x5050                	// #20560
   81afc:	f2a7e420 	movk	x0, #0x3f21, lsl #16
   81b00:	b900001f 	str	wzr, [x0]
   81b04:	d28a0d00 	mov	x0, #0x5068                	// #20584
   81b08:	f2a7e420 	movk	x0, #0x3f21, lsl #16
   81b0c:	528021c1 	mov	w1, #0x10e                 	// #270
   81b10:	b9000001 	str	w1, [x0]
   81b14:	d28a0900 	mov	x0, #0x5048                	// #20552
   81b18:	f2a7e420 	movk	x0, #0x3f21, lsl #16
   81b1c:	528000c1 	mov	w1, #0x6                   	// #6
   81b20:	b9000001 	str	w1, [x0]
   81b24:	d28a0c00 	mov	x0, #0x5060                	// #20576
   81b28:	f2a7e420 	movk	x0, #0x3f21, lsl #16
   81b2c:	b9400001 	ldr	w1, [x0]
   81b30:	d28a0c00 	mov	x0, #0x5060                	// #20576
   81b34:	f2a7e420 	movk	x0, #0x3f21, lsl #16
   81b38:	32000421 	orr	w1, w1, #0x3
   81b3c:	b9000001 	str	w1, [x0]
   81b40:	d503201f 	nop
   81b44:	d65f03c0 	ret

0000000000081b48 <uart1_send>:
   81b48:	d10043ff 	sub	sp, sp, #0x10
   81b4c:	39003fe0 	strb	w0, [sp, #15]
   81b50:	d503201f 	nop
   81b54:	d28a0a80 	mov	x0, #0x5054                	// #20564
   81b58:	f2a7e420 	movk	x0, #0x3f21, lsl #16
   81b5c:	b9400000 	ldr	w0, [x0]
   81b60:	121b0000 	and	w0, w0, #0x20
   81b64:	7100001f 	cmp	w0, #0x0
   81b68:	54ffff40 	b.eq	81b50 <uart1_send+0x8>  // b.none
   81b6c:	d28a0800 	mov	x0, #0x5040                	// #20544
   81b70:	f2a7e420 	movk	x0, #0x3f21, lsl #16
   81b74:	39403fe1 	ldrb	w1, [sp, #15]
   81b78:	b9000001 	str	w1, [x0]
   81b7c:	d503201f 	nop
   81b80:	910043ff 	add	sp, sp, #0x10
   81b84:	d65f03c0 	ret

0000000000081b88 <uart1_puts>:
   81b88:	a9be7bfd 	stp	x29, x30, [sp, #-32]!
   81b8c:	910003fd 	mov	x29, sp
   81b90:	f9000fe0 	str	x0, [sp, #24]
   81b94:	1400000c 	b	81bc4 <uart1_puts+0x3c>
   81b98:	f9400fe0 	ldr	x0, [sp, #24]
   81b9c:	39400000 	ldrb	w0, [x0]
   81ba0:	7100281f 	cmp	w0, #0xa
   81ba4:	54000061 	b.ne	81bb0 <uart1_puts+0x28>  // b.any
   81ba8:	528001a0 	mov	w0, #0xd                   	// #13
   81bac:	97ffffe7 	bl	81b48 <uart1_send>
   81bb0:	f9400fe0 	ldr	x0, [sp, #24]
   81bb4:	91000401 	add	x1, x0, #0x1
   81bb8:	f9000fe1 	str	x1, [sp, #24]
   81bbc:	39400000 	ldrb	w0, [x0]
   81bc0:	97ffffe2 	bl	81b48 <uart1_send>
   81bc4:	f9400fe0 	ldr	x0, [sp, #24]
   81bc8:	39400000 	ldrb	w0, [x0]
   81bcc:	7100001f 	cmp	w0, #0x0
   81bd0:	54fffe41 	b.ne	81b98 <uart1_puts+0x10>  // b.any
   81bd4:	d503201f 	nop
   81bd8:	d503201f 	nop
   81bdc:	a8c27bfd 	ldp	x29, x30, [sp], #32
   81be0:	d65f03c0 	ret

0000000000081be4 <uart1_getc>:
   81be4:	d10043ff 	sub	sp, sp, #0x10
   81be8:	d503201f 	nop
   81bec:	d28a0a80 	mov	x0, #0x5054                	// #20564
   81bf0:	f2a7e420 	movk	x0, #0x3f21, lsl #16
   81bf4:	b9400000 	ldr	w0, [x0]
   81bf8:	12000000 	and	w0, w0, #0x1
   81bfc:	7100001f 	cmp	w0, #0x0
   81c00:	54ffff40 	b.eq	81be8 <uart1_getc+0x4>  // b.none
   81c04:	d28a0800 	mov	x0, #0x5040                	// #20544
   81c08:	f2a7e420 	movk	x0, #0x3f21, lsl #16
   81c0c:	b9400000 	ldr	w0, [x0]
   81c10:	39003fe0 	strb	w0, [sp, #15]
   81c14:	39403fe0 	ldrb	w0, [sp, #15]
   81c18:	7100341f 	cmp	w0, #0xd
   81c1c:	54000060 	b.eq	81c28 <uart1_getc+0x44>  // b.none
   81c20:	39403fe0 	ldrb	w0, [sp, #15]
   81c24:	14000002 	b	81c2c <uart1_getc+0x48>
   81c28:	52800140 	mov	w0, #0xa                   	// #10
   81c2c:	910043ff 	add	sp, sp, #0x10
   81c30:	d65f03c0 	ret

0000000000081c34 <read_c>:
   81c34:	a9bf7bfd 	stp	x29, x30, [sp, #-16]!
   81c38:	910003fd 	mov	x29, sp
   81c3c:	97ffffea 	bl	81be4 <uart1_getc>
   81c40:	12001c00 	and	w0, w0, #0xff
   81c44:	a8c17bfd 	ldp	x29, x30, [sp], #16
   81c48:	d65f03c0 	ret

0000000000081c4c <print_c>:
   81c4c:	a9be7bfd 	stp	x29, x30, [sp, #-32]!
   81c50:	910003fd 	mov	x29, sp
   81c54:	39007fe0 	strb	w0, [sp, #31]
   81c58:	39407fe0 	ldrb	w0, [sp, #31]
   81c5c:	97ffffbb 	bl	81b48 <uart1_send>
   81c60:	d503201f 	nop
   81c64:	a8c27bfd 	ldp	x29, x30, [sp], #32
   81c68:	d65f03c0 	ret

0000000000081c6c <print_s>:
   81c6c:	a9be7bfd 	stp	x29, x30, [sp, #-32]!
   81c70:	910003fd 	mov	x29, sp
   81c74:	f9000fe0 	str	x0, [sp, #24]
   81c78:	f9400fe0 	ldr	x0, [sp, #24]
   81c7c:	97ffffc3 	bl	81b88 <uart1_puts>
   81c80:	d503201f 	nop
   81c84:	a8c27bfd 	ldp	x29, x30, [sp], #32
   81c88:	d65f03c0 	ret

0000000000081c8c <print_OK>:
   81c8c:	a9bf7bfd 	stp	x29, x30, [sp, #-16]!
   81c90:	910003fd 	mov	x29, sp
   81c94:	b0000000 	adrp	x0, 82000 <my_printf+0x16c>
   81c98:	913fc000 	add	x0, x0, #0xff0
   81c9c:	97ffffbb 	bl	81b88 <uart1_puts>
   81ca0:	d503201f 	nop
   81ca4:	a8c17bfd 	ldp	x29, x30, [sp], #16
   81ca8:	d65f03c0 	ret

0000000000081cac <print_i>:
   81cac:	a9bb7bfd 	stp	x29, x30, [sp, #-80]!
   81cb0:	910003fd 	mov	x29, sp
   81cb4:	b9001fe0 	str	w0, [sp, #28]
   81cb8:	b9004fff 	str	wzr, [sp, #76]
   81cbc:	b9004bff 	str	wzr, [sp, #72]
   81cc0:	a902ffff 	stp	xzr, xzr, [sp, #40]
   81cc4:	a903ffff 	stp	xzr, xzr, [sp, #56]
   81cc8:	b9401fe0 	ldr	w0, [sp, #28]
   81ccc:	7100001f 	cmp	w0, #0x0
   81cd0:	540004ca 	b.ge	81d68 <print_i+0xbc>  // b.tcont
   81cd4:	52800020 	mov	w0, #0x1                   	// #1
   81cd8:	b9004fe0 	str	w0, [sp, #76]
   81cdc:	b9401fe0 	ldr	w0, [sp, #28]
   81ce0:	4b0003e0 	neg	w0, w0
   81ce4:	b9001fe0 	str	w0, [sp, #28]
   81ce8:	14000020 	b	81d68 <print_i+0xbc>
   81cec:	b9401fe1 	ldr	w1, [sp, #28]
   81cf0:	528ccce0 	mov	w0, #0x6667                	// #26215
   81cf4:	72acccc0 	movk	w0, #0x6666, lsl #16
   81cf8:	9b207c20 	smull	x0, w1, w0
   81cfc:	d360fc00 	lsr	x0, x0, #32
   81d00:	13027c02 	asr	w2, w0, #2
   81d04:	131f7c20 	asr	w0, w1, #31
   81d08:	4b000042 	sub	w2, w2, w0
   81d0c:	2a0203e0 	mov	w0, w2
   81d10:	531e7400 	lsl	w0, w0, #2
   81d14:	0b020000 	add	w0, w0, w2
   81d18:	531f7800 	lsl	w0, w0, #1
   81d1c:	4b000022 	sub	w2, w1, w0
   81d20:	12001c41 	and	w1, w2, #0xff
   81d24:	b9404be0 	ldr	w0, [sp, #72]
   81d28:	11000402 	add	w2, w0, #0x1
   81d2c:	b9004be2 	str	w2, [sp, #72]
   81d30:	1100c021 	add	w1, w1, #0x30
   81d34:	12001c22 	and	w2, w1, #0xff
   81d38:	93407c00 	sxtw	x0, w0
   81d3c:	9100a3e1 	add	x1, sp, #0x28
   81d40:	38206822 	strb	w2, [x1, x0]
   81d44:	b9401fe0 	ldr	w0, [sp, #28]
   81d48:	528ccce1 	mov	w1, #0x6667                	// #26215
   81d4c:	72acccc1 	movk	w1, #0x6666, lsl #16
   81d50:	9b217c01 	smull	x1, w0, w1
   81d54:	d360fc21 	lsr	x1, x1, #32
   81d58:	13027c21 	asr	w1, w1, #2
   81d5c:	131f7c00 	asr	w0, w0, #31
   81d60:	4b000020 	sub	w0, w1, w0
   81d64:	b9001fe0 	str	w0, [sp, #28]
   81d68:	b9401fe0 	ldr	w0, [sp, #28]
   81d6c:	7100001f 	cmp	w0, #0x0
   81d70:	54fffbec 	b.gt	81cec <print_i+0x40>
   81d74:	b9404fe0 	ldr	w0, [sp, #76]
   81d78:	7100001f 	cmp	w0, #0x0
   81d7c:	54000200 	b.eq	81dbc <print_i+0x110>  // b.none
   81d80:	b9404be0 	ldr	w0, [sp, #72]
   81d84:	11000401 	add	w1, w0, #0x1
   81d88:	b9004be1 	str	w1, [sp, #72]
   81d8c:	93407c00 	sxtw	x0, w0
   81d90:	9100a3e1 	add	x1, sp, #0x28
   81d94:	528005a2 	mov	w2, #0x2d                  	// #45
   81d98:	38206822 	strb	w2, [x1, x0]
   81d9c:	14000008 	b	81dbc <print_i+0x110>
   81da0:	b9404be0 	ldr	w0, [sp, #72]
   81da4:	51000401 	sub	w1, w0, #0x1
   81da8:	b9004be1 	str	w1, [sp, #72]
   81dac:	93407c00 	sxtw	x0, w0
   81db0:	9100a3e1 	add	x1, sp, #0x28
   81db4:	38606820 	ldrb	w0, [x1, x0]
   81db8:	97ffffa5 	bl	81c4c <print_c>
   81dbc:	b9404be0 	ldr	w0, [sp, #72]
   81dc0:	7100001f 	cmp	w0, #0x0
   81dc4:	54fffeea 	b.ge	81da0 <print_i+0xf4>  // b.tcont
   81dc8:	d503201f 	nop
   81dcc:	d503201f 	nop
   81dd0:	a8c57bfd 	ldp	x29, x30, [sp], #80
   81dd4:	d65f03c0 	ret

0000000000081dd8 <print_x>:
   81dd8:	a9ba7bfd 	stp	x29, x30, [sp, #-96]!
   81ddc:	910003fd 	mov	x29, sp
   81de0:	b9001fe0 	str	w0, [sp, #28]
   81de4:	b0000000 	adrp	x0, 82000 <my_printf+0x16c>
   81de8:	913fe000 	add	x0, x0, #0xff8
   81dec:	910123e2 	add	x2, sp, #0x48
   81df0:	aa0003e3 	mov	x3, x0
   81df4:	a9400460 	ldp	x0, x1, [x3]
   81df8:	a9000440 	stp	x0, x1, [x2]
   81dfc:	39404060 	ldrb	w0, [x3, #16]
   81e00:	39004040 	strb	w0, [x2, #16]
   81e04:	b9005fff 	str	wzr, [sp, #92]
   81e08:	a902ffff 	stp	xzr, xzr, [sp, #40]
   81e0c:	a903ffff 	stp	xzr, xzr, [sp, #56]
   81e10:	1400000f 	b	81e4c <print_x+0x74>
   81e14:	b9401fe0 	ldr	w0, [sp, #28]
   81e18:	12000c02 	and	w2, w0, #0xf
   81e1c:	b9405fe0 	ldr	w0, [sp, #92]
   81e20:	11000401 	add	w1, w0, #0x1
   81e24:	b9005fe1 	str	w1, [sp, #92]
   81e28:	2a0203e1 	mov	w1, w2
   81e2c:	910123e2 	add	x2, sp, #0x48
   81e30:	38616842 	ldrb	w2, [x2, x1]
   81e34:	93407c00 	sxtw	x0, w0
   81e38:	9100a3e1 	add	x1, sp, #0x28
   81e3c:	38206822 	strb	w2, [x1, x0]
   81e40:	b9401fe0 	ldr	w0, [sp, #28]
   81e44:	53047c00 	lsr	w0, w0, #4
   81e48:	b9001fe0 	str	w0, [sp, #28]
   81e4c:	b9401fe0 	ldr	w0, [sp, #28]
   81e50:	7100001f 	cmp	w0, #0x0
   81e54:	54fffe01 	b.ne	81e14 <print_x+0x3c>  // b.any
   81e58:	14000008 	b	81e78 <print_x+0xa0>
   81e5c:	b9405fe0 	ldr	w0, [sp, #92]
   81e60:	51000401 	sub	w1, w0, #0x1
   81e64:	b9005fe1 	str	w1, [sp, #92]
   81e68:	93407c00 	sxtw	x0, w0
   81e6c:	9100a3e1 	add	x1, sp, #0x28
   81e70:	38606820 	ldrb	w0, [x1, x0]
   81e74:	97ffff76 	bl	81c4c <print_c>
   81e78:	b9405fe0 	ldr	w0, [sp, #92]
   81e7c:	7100001f 	cmp	w0, #0x0
   81e80:	54fffeea 	b.ge	81e5c <print_x+0x84>  // b.tcont
   81e84:	d503201f 	nop
   81e88:	d503201f 	nop
   81e8c:	a8c67bfd 	ldp	x29, x30, [sp], #96
   81e90:	d65f03c0 	ret

0000000000081e94 <my_printf>:
   81e94:	a9b07bfd 	stp	x29, x30, [sp, #-256]!
   81e98:	910003fd 	mov	x29, sp
   81e9c:	f9000fe0 	str	x0, [sp, #24]
   81ea0:	f90067e1 	str	x1, [sp, #200]
   81ea4:	f9006be2 	str	x2, [sp, #208]
   81ea8:	f9006fe3 	str	x3, [sp, #216]
   81eac:	f90073e4 	str	x4, [sp, #224]
   81eb0:	f90077e5 	str	x5, [sp, #232]
   81eb4:	f9007be6 	str	x6, [sp, #240]
   81eb8:	f9007fe7 	str	x7, [sp, #248]
   81ebc:	3d8013e0 	str	q0, [sp, #64]
   81ec0:	3d8017e1 	str	q1, [sp, #80]
   81ec4:	3d801be2 	str	q2, [sp, #96]
   81ec8:	3d801fe3 	str	q3, [sp, #112]
   81ecc:	3d8023e4 	str	q4, [sp, #128]
   81ed0:	3d8027e5 	str	q5, [sp, #144]
   81ed4:	3d802be6 	str	q6, [sp, #160]
   81ed8:	3d802fe7 	str	q7, [sp, #176]
   81edc:	910403e0 	add	x0, sp, #0x100
   81ee0:	f90013e0 	str	x0, [sp, #32]
   81ee4:	910403e0 	add	x0, sp, #0x100
   81ee8:	f90017e0 	str	x0, [sp, #40]
   81eec:	910303e0 	add	x0, sp, #0xc0
   81ef0:	f9001be0 	str	x0, [sp, #48]
   81ef4:	128006e0 	mov	w0, #0xffffffc8            	// #-56
   81ef8:	b9003be0 	str	w0, [sp, #56]
   81efc:	12800fe0 	mov	w0, #0xffffff80            	// #-128
   81f00:	b9003fe0 	str	w0, [sp, #60]
   81f04:	14000061 	b	82088 <my_printf+0x1f4>
   81f08:	f9400fe0 	ldr	x0, [sp, #24]
   81f0c:	39400000 	ldrb	w0, [x0]
   81f10:	7100941f 	cmp	w0, #0x25
   81f14:	54000ae1 	b.ne	82070 <my_printf+0x1dc>  // b.any
   81f18:	f9400fe0 	ldr	x0, [sp, #24]
   81f1c:	91000400 	add	x0, x0, #0x1
   81f20:	f9000fe0 	str	x0, [sp, #24]
   81f24:	f9400fe0 	ldr	x0, [sp, #24]
   81f28:	39400000 	ldrb	w0, [x0]
   81f2c:	7101e01f 	cmp	w0, #0x78
   81f30:	540006a0 	b.eq	82004 <my_printf+0x170>  // b.none
   81f34:	7101e01f 	cmp	w0, #0x78
   81f38:	5400094c 	b.gt	82060 <my_printf+0x1cc>
   81f3c:	7101901f 	cmp	w0, #0x64
   81f40:	54000340 	b.eq	81fa8 <my_printf+0x114>  // b.none
   81f44:	7101cc1f 	cmp	w0, #0x73
   81f48:	540008c1 	b.ne	82060 <my_printf+0x1cc>  // b.any
   81f4c:	b9403be1 	ldr	w1, [sp, #56]
   81f50:	f94013e0 	ldr	x0, [sp, #32]
   81f54:	7100003f 	cmp	w1, #0x0
   81f58:	540000ab 	b.lt	81f6c <my_printf+0xd8>  // b.tstop
   81f5c:	91003c01 	add	x1, x0, #0xf
   81f60:	927df021 	and	x1, x1, #0xfffffffffffffff8
   81f64:	f90013e1 	str	x1, [sp, #32]
   81f68:	1400000d 	b	81f9c <my_printf+0x108>
   81f6c:	11002022 	add	w2, w1, #0x8
   81f70:	b9003be2 	str	w2, [sp, #56]
   81f74:	b9403be2 	ldr	w2, [sp, #56]
   81f78:	7100005f 	cmp	w2, #0x0
   81f7c:	540000ad 	b.le	81f90 <my_printf+0xfc>
   81f80:	91003c01 	add	x1, x0, #0xf
   81f84:	927df021 	and	x1, x1, #0xfffffffffffffff8
   81f88:	f90013e1 	str	x1, [sp, #32]
   81f8c:	14000004 	b	81f9c <my_printf+0x108>
   81f90:	f94017e2 	ldr	x2, [sp, #40]
   81f94:	93407c20 	sxtw	x0, w1
   81f98:	8b000040 	add	x0, x2, x0
   81f9c:	f9400000 	ldr	x0, [x0]
   81fa0:	97ffff33 	bl	81c6c <print_s>
   81fa4:	1400002f 	b	82060 <my_printf+0x1cc>
   81fa8:	b9403be1 	ldr	w1, [sp, #56]
   81fac:	f94013e0 	ldr	x0, [sp, #32]
   81fb0:	7100003f 	cmp	w1, #0x0
   81fb4:	540000ab 	b.lt	81fc8 <my_printf+0x134>  // b.tstop
   81fb8:	91002c01 	add	x1, x0, #0xb
   81fbc:	927df021 	and	x1, x1, #0xfffffffffffffff8
   81fc0:	f90013e1 	str	x1, [sp, #32]
   81fc4:	1400000d 	b	81ff8 <my_printf+0x164>
   81fc8:	11002022 	add	w2, w1, #0x8
   81fcc:	b9003be2 	str	w2, [sp, #56]
   81fd0:	b9403be2 	ldr	w2, [sp, #56]
   81fd4:	7100005f 	cmp	w2, #0x0
   81fd8:	540000ad 	b.le	81fec <my_printf+0x158>
   81fdc:	91002c01 	add	x1, x0, #0xb
   81fe0:	927df021 	and	x1, x1, #0xfffffffffffffff8
   81fe4:	f90013e1 	str	x1, [sp, #32]
   81fe8:	14000004 	b	81ff8 <my_printf+0x164>
   81fec:	f94017e2 	ldr	x2, [sp, #40]
   81ff0:	93407c20 	sxtw	x0, w1
   81ff4:	8b000040 	add	x0, x2, x0
   81ff8:	b9400000 	ldr	w0, [x0]
   81ffc:	97ffff2c 	bl	81cac <print_i>
   82000:	14000018 	b	82060 <my_printf+0x1cc>
   82004:	b9403be1 	ldr	w1, [sp, #56]
   82008:	f94013e0 	ldr	x0, [sp, #32]
   8200c:	7100003f 	cmp	w1, #0x0
   82010:	540000ab 	b.lt	82024 <my_printf+0x190>  // b.tstop
   82014:	91002c01 	add	x1, x0, #0xb
   82018:	927df021 	and	x1, x1, #0xfffffffffffffff8
   8201c:	f90013e1 	str	x1, [sp, #32]
   82020:	1400000d 	b	82054 <my_printf+0x1c0>
   82024:	11002022 	add	w2, w1, #0x8
   82028:	b9003be2 	str	w2, [sp, #56]
   8202c:	b9403be2 	ldr	w2, [sp, #56]
   82030:	7100005f 	cmp	w2, #0x0
   82034:	540000ad 	b.le	82048 <my_printf+0x1b4>
   82038:	91002c01 	add	x1, x0, #0xb
   8203c:	927df021 	and	x1, x1, #0xfffffffffffffff8
   82040:	f90013e1 	str	x1, [sp, #32]
   82044:	14000004 	b	82054 <my_printf+0x1c0>
   82048:	f94017e2 	ldr	x2, [sp, #40]
   8204c:	93407c20 	sxtw	x0, w1
   82050:	8b000040 	add	x0, x2, x0
   82054:	b9400000 	ldr	w0, [x0]
   82058:	97ffff60 	bl	81dd8 <print_x>
   8205c:	d503201f 	nop
   82060:	f9400fe0 	ldr	x0, [sp, #24]
   82064:	91000400 	add	x0, x0, #0x1
   82068:	f9000fe0 	str	x0, [sp, #24]
   8206c:	14000007 	b	82088 <my_printf+0x1f4>
   82070:	f9400fe0 	ldr	x0, [sp, #24]
   82074:	39400000 	ldrb	w0, [x0]
   82078:	97fffef5 	bl	81c4c <print_c>
   8207c:	f9400fe0 	ldr	x0, [sp, #24]
   82080:	91000400 	add	x0, x0, #0x1
   82084:	f9000fe0 	str	x0, [sp, #24]
   82088:	f9400fe0 	ldr	x0, [sp, #24]
   8208c:	39400000 	ldrb	w0, [x0]
   82090:	7100001f 	cmp	w0, #0x0
   82094:	54fff3a1 	b.ne	81f08 <my_printf+0x74>  // b.any
   82098:	d503201f 	nop
   8209c:	d503201f 	nop
   820a0:	a8d07bfd 	ldp	x29, x30, [sp], #256
   820a4:	d65f03c0 	ret

00000000000820a8 <mailbox_call>:
   820a8:	d10083ff 	sub	sp, sp, #0x20
   820ac:	b9000fe0 	str	w0, [sp, #12]
   820b0:	b9400fe0 	ldr	w0, [sp, #12]
   820b4:	12000c01 	and	w1, w0, #0xf
   820b8:	f0000000 	adrp	x0, 85000 <mailbox>
   820bc:	91000000 	add	x0, x0, #0x0
   820c0:	121c6c00 	and	w0, w0, #0xfffffff0
   820c4:	2a000020 	orr	w0, w1, w0
   820c8:	b9001fe0 	str	w0, [sp, #28]
   820cc:	d503201f 	nop
   820d0:	d2971300 	mov	x0, #0xb898                	// #47256
   820d4:	f2a7e000 	movk	x0, #0x3f00, lsl #16
   820d8:	b9400000 	ldr	w0, [x0]
   820dc:	7100001f 	cmp	w0, #0x0
   820e0:	54ffff6b 	b.lt	820cc <mailbox_call+0x24>  // b.tstop
   820e4:	d2971400 	mov	x0, #0xb8a0                	// #47264
   820e8:	f2a7e000 	movk	x0, #0x3f00, lsl #16
   820ec:	b9401fe1 	ldr	w1, [sp, #28]
   820f0:	b9000001 	str	w1, [x0]
   820f4:	d503201f 	nop
   820f8:	d2971300 	mov	x0, #0xb898                	// #47256
   820fc:	f2a7e000 	movk	x0, #0x3f00, lsl #16
   82100:	b9400000 	ldr	w0, [x0]
   82104:	12020000 	and	w0, w0, #0x40000000
   82108:	7100001f 	cmp	w0, #0x0
   8210c:	54ffff41 	b.ne	820f4 <mailbox_call+0x4c>  // b.any
   82110:	d2971000 	mov	x0, #0xb880                	// #47232
   82114:	f2a7e000 	movk	x0, #0x3f00, lsl #16
   82118:	b9400000 	ldr	w0, [x0]
   8211c:	b9401fe1 	ldr	w1, [sp, #28]
   82120:	6b00003f 	cmp	w1, w0
   82124:	54fffe81 	b.ne	820f4 <mailbox_call+0x4c>  // b.any
   82128:	f0000000 	adrp	x0, 85000 <mailbox>
   8212c:	91000000 	add	x0, x0, #0x0
   82130:	b9400401 	ldr	w1, [x0, #4]
   82134:	52b00000 	mov	w0, #0x80000000            	// #-2147483648
   82138:	6b00003f 	cmp	w1, w0
   8213c:	1a9f17e0 	cset	w0, eq  // eq = none
   82140:	12001c00 	and	w0, w0, #0xff
   82144:	910083ff 	add	sp, sp, #0x20
   82148:	d65f03c0 	ret

000000000008214c <get_board_revision>:
   8214c:	a9bf7bfd 	stp	x29, x30, [sp, #-16]!
   82150:	910003fd 	mov	x29, sp
   82154:	f0000000 	adrp	x0, 85000 <mailbox>
   82158:	91000000 	add	x0, x0, #0x0
   8215c:	52800381 	mov	w1, #0x1c                  	// #28
   82160:	b9000001 	str	w1, [x0]
   82164:	f0000000 	adrp	x0, 85000 <mailbox>
   82168:	91000000 	add	x0, x0, #0x0
   8216c:	b900041f 	str	wzr, [x0, #4]
   82170:	f0000000 	adrp	x0, 85000 <mailbox>
   82174:	91000000 	add	x0, x0, #0x0
   82178:	52800041 	mov	w1, #0x2                   	// #2
   8217c:	72a00021 	movk	w1, #0x1, lsl #16
   82180:	b9000801 	str	w1, [x0, #8]
   82184:	f0000000 	adrp	x0, 85000 <mailbox>
   82188:	91000000 	add	x0, x0, #0x0
   8218c:	52800081 	mov	w1, #0x4                   	// #4
   82190:	b9000c01 	str	w1, [x0, #12]
   82194:	f0000000 	adrp	x0, 85000 <mailbox>
   82198:	91000000 	add	x0, x0, #0x0
   8219c:	b900101f 	str	wzr, [x0, #16]
   821a0:	f0000000 	adrp	x0, 85000 <mailbox>
   821a4:	91000000 	add	x0, x0, #0x0
   821a8:	b900141f 	str	wzr, [x0, #20]
   821ac:	f0000000 	adrp	x0, 85000 <mailbox>
   821b0:	91000000 	add	x0, x0, #0x0
   821b4:	b900181f 	str	wzr, [x0, #24]
   821b8:	52800100 	mov	w0, #0x8                   	// #8
   821bc:	97ffffbb 	bl	820a8 <mailbox_call>
   821c0:	f0000000 	adrp	x0, 85000 <mailbox>
   821c4:	91000000 	add	x0, x0, #0x0
   821c8:	b9401400 	ldr	w0, [x0, #20]
   821cc:	2a0003e1 	mov	w1, w0
   821d0:	b0000000 	adrp	x0, 83000 <main+0x128>
   821d4:	91004000 	add	x0, x0, #0x10
   821d8:	97ffff2f 	bl	81e94 <my_printf>
   821dc:	d503201f 	nop
   821e0:	a8c17bfd 	ldp	x29, x30, [sp], #16
   821e4:	d65f03c0 	ret

00000000000821e8 <get_vc_memory_addr>:
   821e8:	a9bf7bfd 	stp	x29, x30, [sp, #-16]!
   821ec:	910003fd 	mov	x29, sp
   821f0:	f0000000 	adrp	x0, 85000 <mailbox>
   821f4:	91000000 	add	x0, x0, #0x0
   821f8:	52800401 	mov	w1, #0x20                  	// #32
   821fc:	b9000001 	str	w1, [x0]
   82200:	f0000000 	adrp	x0, 85000 <mailbox>
   82204:	91000000 	add	x0, x0, #0x0
   82208:	b900041f 	str	wzr, [x0, #4]
   8220c:	f0000000 	adrp	x0, 85000 <mailbox>
   82210:	91000000 	add	x0, x0, #0x0
   82214:	528000c1 	mov	w1, #0x6                   	// #6
   82218:	72a00021 	movk	w1, #0x1, lsl #16
   8221c:	b9000801 	str	w1, [x0, #8]
   82220:	f0000000 	adrp	x0, 85000 <mailbox>
   82224:	91000000 	add	x0, x0, #0x0
   82228:	52800101 	mov	w1, #0x8                   	// #8
   8222c:	b9000c01 	str	w1, [x0, #12]
   82230:	f0000000 	adrp	x0, 85000 <mailbox>
   82234:	91000000 	add	x0, x0, #0x0
   82238:	b900101f 	str	wzr, [x0, #16]
   8223c:	f0000000 	adrp	x0, 85000 <mailbox>
   82240:	91000000 	add	x0, x0, #0x0
   82244:	b900141f 	str	wzr, [x0, #20]
   82248:	f0000000 	adrp	x0, 85000 <mailbox>
   8224c:	91000000 	add	x0, x0, #0x0
   82250:	b900181f 	str	wzr, [x0, #24]
   82254:	f0000000 	adrp	x0, 85000 <mailbox>
   82258:	91000000 	add	x0, x0, #0x0
   8225c:	b9001c1f 	str	wzr, [x0, #28]
   82260:	52800100 	mov	w0, #0x8                   	// #8
   82264:	97ffff91 	bl	820a8 <mailbox_call>
   82268:	f0000000 	adrp	x0, 85000 <mailbox>
   8226c:	91000000 	add	x0, x0, #0x0
   82270:	b9401400 	ldr	w0, [x0, #20]
   82274:	2a0003e1 	mov	w1, w0
   82278:	b0000000 	adrp	x0, 83000 <main+0x128>
   8227c:	9100a000 	add	x0, x0, #0x28
   82280:	97ffff05 	bl	81e94 <my_printf>
   82284:	f0000000 	adrp	x0, 85000 <mailbox>
   82288:	91000000 	add	x0, x0, #0x0
   8228c:	b9401800 	ldr	w0, [x0, #24]
   82290:	2a0003e1 	mov	w1, w0
   82294:	b0000000 	adrp	x0, 83000 <main+0x128>
   82298:	91010000 	add	x0, x0, #0x40
   8229c:	97fffefe 	bl	81e94 <my_printf>
   822a0:	d503201f 	nop
   822a4:	a8c17bfd 	ldp	x29, x30, [sp], #16
   822a8:	d65f03c0 	ret

00000000000822ac <get_uart0_clk_state>:
   822ac:	a9bf7bfd 	stp	x29, x30, [sp, #-16]!
   822b0:	910003fd 	mov	x29, sp
   822b4:	f0000000 	adrp	x0, 85000 <mailbox>
   822b8:	91000000 	add	x0, x0, #0x0
   822bc:	52800401 	mov	w1, #0x20                  	// #32
   822c0:	b9000001 	str	w1, [x0]
   822c4:	f0000000 	adrp	x0, 85000 <mailbox>
   822c8:	91000000 	add	x0, x0, #0x0
   822cc:	b900041f 	str	wzr, [x0, #4]
   822d0:	f0000000 	adrp	x0, 85000 <mailbox>
   822d4:	91000000 	add	x0, x0, #0x0
   822d8:	52800021 	mov	w1, #0x1                   	// #1
   822dc:	72a00061 	movk	w1, #0x3, lsl #16
   822e0:	b9000801 	str	w1, [x0, #8]
   822e4:	f0000000 	adrp	x0, 85000 <mailbox>
   822e8:	91000000 	add	x0, x0, #0x0
   822ec:	52800081 	mov	w1, #0x4                   	// #4
   822f0:	b9000c01 	str	w1, [x0, #12]
   822f4:	f0000000 	adrp	x0, 85000 <mailbox>
   822f8:	91000000 	add	x0, x0, #0x0
   822fc:	b900101f 	str	wzr, [x0, #16]
   82300:	f0000000 	adrp	x0, 85000 <mailbox>
   82304:	91000000 	add	x0, x0, #0x0
   82308:	52800041 	mov	w1, #0x2                   	// #2
   8230c:	b9001401 	str	w1, [x0, #20]
   82310:	f0000000 	adrp	x0, 85000 <mailbox>
   82314:	91000000 	add	x0, x0, #0x0
   82318:	b900181f 	str	wzr, [x0, #24]
   8231c:	f0000000 	adrp	x0, 85000 <mailbox>
   82320:	91000000 	add	x0, x0, #0x0
   82324:	b9001c1f 	str	wzr, [x0, #28]
   82328:	52800100 	mov	w0, #0x8                   	// #8
   8232c:	97ffff5f 	bl	820a8 <mailbox_call>
   82330:	f0000000 	adrp	x0, 85000 <mailbox>
   82334:	91000000 	add	x0, x0, #0x0
   82338:	b9401400 	ldr	w0, [x0, #20]
   8233c:	2a0003e1 	mov	w1, w0
   82340:	b0000000 	adrp	x0, 83000 <main+0x128>
   82344:	91014000 	add	x0, x0, #0x50
   82348:	97fffed3 	bl	81e94 <my_printf>
   8234c:	f0000000 	adrp	x0, 85000 <mailbox>
   82350:	91000000 	add	x0, x0, #0x0
   82354:	b9401800 	ldr	w0, [x0, #24]
   82358:	2a0003e1 	mov	w1, w0
   8235c:	b0000000 	adrp	x0, 83000 <main+0x128>
   82360:	91018000 	add	x0, x0, #0x60
   82364:	97fffecc 	bl	81e94 <my_printf>
   82368:	d503201f 	nop
   8236c:	a8c17bfd 	ldp	x29, x30, [sp], #16
   82370:	d65f03c0 	ret

0000000000082374 <get_uart0_clk_rate>:
   82374:	a9bf7bfd 	stp	x29, x30, [sp, #-16]!
   82378:	910003fd 	mov	x29, sp
   8237c:	f0000000 	adrp	x0, 85000 <mailbox>
   82380:	91000000 	add	x0, x0, #0x0
   82384:	52800401 	mov	w1, #0x20                  	// #32
   82388:	b9000001 	str	w1, [x0]
   8238c:	f0000000 	adrp	x0, 85000 <mailbox>
   82390:	91000000 	add	x0, x0, #0x0
   82394:	b900041f 	str	wzr, [x0, #4]
   82398:	f0000000 	adrp	x0, 85000 <mailbox>
   8239c:	91000000 	add	x0, x0, #0x0
   823a0:	52800041 	mov	w1, #0x2                   	// #2
   823a4:	72a00061 	movk	w1, #0x3, lsl #16
   823a8:	b9000801 	str	w1, [x0, #8]
   823ac:	f0000000 	adrp	x0, 85000 <mailbox>
   823b0:	91000000 	add	x0, x0, #0x0
   823b4:	52800081 	mov	w1, #0x4                   	// #4
   823b8:	b9000c01 	str	w1, [x0, #12]
   823bc:	f0000000 	adrp	x0, 85000 <mailbox>
   823c0:	91000000 	add	x0, x0, #0x0
   823c4:	b900101f 	str	wzr, [x0, #16]
   823c8:	f0000000 	adrp	x0, 85000 <mailbox>
   823cc:	91000000 	add	x0, x0, #0x0
   823d0:	52800041 	mov	w1, #0x2                   	// #2
   823d4:	b9001401 	str	w1, [x0, #20]
   823d8:	f0000000 	adrp	x0, 85000 <mailbox>
   823dc:	91000000 	add	x0, x0, #0x0
   823e0:	b900181f 	str	wzr, [x0, #24]
   823e4:	f0000000 	adrp	x0, 85000 <mailbox>
   823e8:	91000000 	add	x0, x0, #0x0
   823ec:	b9001c1f 	str	wzr, [x0, #28]
   823f0:	52800100 	mov	w0, #0x8                   	// #8
   823f4:	97ffff2d 	bl	820a8 <mailbox_call>
   823f8:	f0000000 	adrp	x0, 85000 <mailbox>
   823fc:	91000000 	add	x0, x0, #0x0
   82400:	b9401400 	ldr	w0, [x0, #20]
   82404:	2a0003e1 	mov	w1, w0
   82408:	b0000000 	adrp	x0, 83000 <main+0x128>
   8240c:	91014000 	add	x0, x0, #0x50
   82410:	97fffea1 	bl	81e94 <my_printf>
   82414:	f0000000 	adrp	x0, 85000 <mailbox>
   82418:	91000000 	add	x0, x0, #0x0
   8241c:	b9401800 	ldr	w0, [x0, #24]
   82420:	2a0003e1 	mov	w1, w0
   82424:	b0000000 	adrp	x0, 83000 <main+0x128>
   82428:	9101c000 	add	x0, x0, #0x70
   8242c:	97fffe9a 	bl	81e94 <my_printf>
   82430:	f0000000 	adrp	x0, 85000 <mailbox>
   82434:	91000000 	add	x0, x0, #0x0
   82438:	b9401800 	ldr	w0, [x0, #24]
   8243c:	a8c17bfd 	ldp	x29, x30, [sp], #16
   82440:	d65f03c0 	ret

0000000000082444 <fb_init>:
   82444:	a9be7bfd 	stp	x29, x30, [sp, #-32]!
   82448:	910003fd 	mov	x29, sp
   8244c:	52800020 	mov	w0, #0x1                   	// #1
   82450:	b9001fe0 	str	w0, [sp, #28]
   82454:	b9401fe0 	ldr	w0, [sp, #28]
   82458:	11000401 	add	w1, w0, #0x1
   8245c:	b9001fe1 	str	w1, [sp, #28]
   82460:	f0000001 	adrp	x1, 85000 <mailbox>
   82464:	91000021 	add	x1, x1, #0x0
   82468:	93407c00 	sxtw	x0, w0
   8246c:	b820783f 	str	wzr, [x1, x0, lsl #2]
   82470:	b9401fe0 	ldr	w0, [sp, #28]
   82474:	11000401 	add	w1, w0, #0x1
   82478:	b9001fe1 	str	w1, [sp, #28]
   8247c:	f0000001 	adrp	x1, 85000 <mailbox>
   82480:	91000021 	add	x1, x1, #0x0
   82484:	93407c00 	sxtw	x0, w0
   82488:	52800022 	mov	w2, #0x1                   	// #1
   8248c:	72a00082 	movk	w2, #0x4, lsl #16
   82490:	b8207822 	str	w2, [x1, x0, lsl #2]
   82494:	b9401fe0 	ldr	w0, [sp, #28]
   82498:	11000401 	add	w1, w0, #0x1
   8249c:	b9001fe1 	str	w1, [sp, #28]
   824a0:	f0000001 	adrp	x1, 85000 <mailbox>
   824a4:	91000021 	add	x1, x1, #0x0
   824a8:	93407c00 	sxtw	x0, w0
   824ac:	52800082 	mov	w2, #0x4                   	// #4
   824b0:	b8207822 	str	w2, [x1, x0, lsl #2]
   824b4:	b9401fe0 	ldr	w0, [sp, #28]
   824b8:	11000401 	add	w1, w0, #0x1
   824bc:	b9001fe1 	str	w1, [sp, #28]
   824c0:	f0000001 	adrp	x1, 85000 <mailbox>
   824c4:	91000021 	add	x1, x1, #0x0
   824c8:	93407c00 	sxtw	x0, w0
   824cc:	b820783f 	str	wzr, [x1, x0, lsl #2]
   824d0:	b9401fe0 	ldr	w0, [sp, #28]
   824d4:	11000401 	add	w1, w0, #0x1
   824d8:	b9001fe1 	str	w1, [sp, #28]
   824dc:	f0000001 	adrp	x1, 85000 <mailbox>
   824e0:	91000021 	add	x1, x1, #0x0
   824e4:	93407c00 	sxtw	x0, w0
   824e8:	52948002 	mov	w2, #0xa400                	// #41984
   824ec:	72a003e2 	movk	w2, #0x1f, lsl #16
   824f0:	b8207822 	str	w2, [x1, x0, lsl #2]
   824f4:	b9401fe0 	ldr	w0, [sp, #28]
   824f8:	11000401 	add	w1, w0, #0x1
   824fc:	b9001fe1 	str	w1, [sp, #28]
   82500:	f0000001 	adrp	x1, 85000 <mailbox>
   82504:	91000021 	add	x1, x1, #0x0
   82508:	93407c00 	sxtw	x0, w0
   8250c:	52900062 	mov	w2, #0x8003                	// #32771
   82510:	72a00082 	movk	w2, #0x4, lsl #16
   82514:	b8207822 	str	w2, [x1, x0, lsl #2]
   82518:	b9401fe0 	ldr	w0, [sp, #28]
   8251c:	11000401 	add	w1, w0, #0x1
   82520:	b9001fe1 	str	w1, [sp, #28]
   82524:	f0000001 	adrp	x1, 85000 <mailbox>
   82528:	91000021 	add	x1, x1, #0x0
   8252c:	93407c00 	sxtw	x0, w0
   82530:	52800102 	mov	w2, #0x8                   	// #8
   82534:	b8207822 	str	w2, [x1, x0, lsl #2]
   82538:	b9401fe0 	ldr	w0, [sp, #28]
   8253c:	11000401 	add	w1, w0, #0x1
   82540:	b9001fe1 	str	w1, [sp, #28]
   82544:	f0000001 	adrp	x1, 85000 <mailbox>
   82548:	91000021 	add	x1, x1, #0x0
   8254c:	93407c00 	sxtw	x0, w0
   82550:	b820783f 	str	wzr, [x1, x0, lsl #2]
   82554:	b9401fe0 	ldr	w0, [sp, #28]
   82558:	11000401 	add	w1, w0, #0x1
   8255c:	b9001fe1 	str	w1, [sp, #28]
   82560:	f0000001 	adrp	x1, 85000 <mailbox>
   82564:	91000021 	add	x1, x1, #0x0
   82568:	93407c00 	sxtw	x0, w0
   8256c:	5280f002 	mov	w2, #0x780                 	// #1920
   82570:	b8207822 	str	w2, [x1, x0, lsl #2]
   82574:	b9401fe0 	ldr	w0, [sp, #28]
   82578:	11000401 	add	w1, w0, #0x1
   8257c:	b9001fe1 	str	w1, [sp, #28]
   82580:	f0000001 	adrp	x1, 85000 <mailbox>
   82584:	91000021 	add	x1, x1, #0x0
   82588:	93407c00 	sxtw	x0, w0
   8258c:	52808702 	mov	w2, #0x438                 	// #1080
   82590:	b8207822 	str	w2, [x1, x0, lsl #2]
   82594:	b9401fe0 	ldr	w0, [sp, #28]
   82598:	11000401 	add	w1, w0, #0x1
   8259c:	b9001fe1 	str	w1, [sp, #28]
   825a0:	f0000001 	adrp	x1, 85000 <mailbox>
   825a4:	91000021 	add	x1, x1, #0x0
   825a8:	93407c00 	sxtw	x0, w0
   825ac:	52900082 	mov	w2, #0x8004                	// #32772
   825b0:	72a00082 	movk	w2, #0x4, lsl #16
   825b4:	b8207822 	str	w2, [x1, x0, lsl #2]
   825b8:	b9401fe0 	ldr	w0, [sp, #28]
   825bc:	11000401 	add	w1, w0, #0x1
   825c0:	b9001fe1 	str	w1, [sp, #28]
   825c4:	f0000001 	adrp	x1, 85000 <mailbox>
   825c8:	91000021 	add	x1, x1, #0x0
   825cc:	93407c00 	sxtw	x0, w0
   825d0:	52800102 	mov	w2, #0x8                   	// #8
   825d4:	b8207822 	str	w2, [x1, x0, lsl #2]
   825d8:	b9401fe0 	ldr	w0, [sp, #28]
   825dc:	11000401 	add	w1, w0, #0x1
   825e0:	b9001fe1 	str	w1, [sp, #28]
   825e4:	f0000001 	adrp	x1, 85000 <mailbox>
   825e8:	91000021 	add	x1, x1, #0x0
   825ec:	93407c00 	sxtw	x0, w0
   825f0:	b820783f 	str	wzr, [x1, x0, lsl #2]
   825f4:	b9401fe0 	ldr	w0, [sp, #28]
   825f8:	11000401 	add	w1, w0, #0x1
   825fc:	b9001fe1 	str	w1, [sp, #28]
   82600:	f0000001 	adrp	x1, 85000 <mailbox>
   82604:	91000021 	add	x1, x1, #0x0
   82608:	93407c00 	sxtw	x0, w0
   8260c:	5280f002 	mov	w2, #0x780                 	// #1920
   82610:	b8207822 	str	w2, [x1, x0, lsl #2]
   82614:	b9401fe0 	ldr	w0, [sp, #28]
   82618:	11000401 	add	w1, w0, #0x1
   8261c:	b9001fe1 	str	w1, [sp, #28]
   82620:	f0000001 	adrp	x1, 85000 <mailbox>
   82624:	91000021 	add	x1, x1, #0x0
   82628:	93407c00 	sxtw	x0, w0
   8262c:	52808702 	mov	w2, #0x438                 	// #1080
   82630:	b8207822 	str	w2, [x1, x0, lsl #2]
   82634:	b9401fe0 	ldr	w0, [sp, #28]
   82638:	11000401 	add	w1, w0, #0x1
   8263c:	b9001fe1 	str	w1, [sp, #28]
   82640:	f0000001 	adrp	x1, 85000 <mailbox>
   82644:	91000021 	add	x1, x1, #0x0
   82648:	93407c00 	sxtw	x0, w0
   8264c:	52900122 	mov	w2, #0x8009                	// #32777
   82650:	72a00082 	movk	w2, #0x4, lsl #16
   82654:	b8207822 	str	w2, [x1, x0, lsl #2]
   82658:	b9401fe0 	ldr	w0, [sp, #28]
   8265c:	11000401 	add	w1, w0, #0x1
   82660:	b9001fe1 	str	w1, [sp, #28]
   82664:	f0000001 	adrp	x1, 85000 <mailbox>
   82668:	91000021 	add	x1, x1, #0x0
   8266c:	93407c00 	sxtw	x0, w0
   82670:	52800102 	mov	w2, #0x8                   	// #8
   82674:	b8207822 	str	w2, [x1, x0, lsl #2]
   82678:	b9401fe0 	ldr	w0, [sp, #28]
   8267c:	11000401 	add	w1, w0, #0x1
   82680:	b9001fe1 	str	w1, [sp, #28]
   82684:	f0000001 	adrp	x1, 85000 <mailbox>
   82688:	91000021 	add	x1, x1, #0x0
   8268c:	93407c00 	sxtw	x0, w0
   82690:	b820783f 	str	wzr, [x1, x0, lsl #2]
   82694:	b9401fe0 	ldr	w0, [sp, #28]
   82698:	11000401 	add	w1, w0, #0x1
   8269c:	b9001fe1 	str	w1, [sp, #28]
   826a0:	f0000001 	adrp	x1, 85000 <mailbox>
   826a4:	91000021 	add	x1, x1, #0x0
   826a8:	93407c00 	sxtw	x0, w0
   826ac:	b820783f 	str	wzr, [x1, x0, lsl #2]
   826b0:	b9401fe0 	ldr	w0, [sp, #28]
   826b4:	11000401 	add	w1, w0, #0x1
   826b8:	b9001fe1 	str	w1, [sp, #28]
   826bc:	f0000001 	adrp	x1, 85000 <mailbox>
   826c0:	91000021 	add	x1, x1, #0x0
   826c4:	93407c00 	sxtw	x0, w0
   826c8:	b820783f 	str	wzr, [x1, x0, lsl #2]
   826cc:	b9401fe0 	ldr	w0, [sp, #28]
   826d0:	11000401 	add	w1, w0, #0x1
   826d4:	b9001fe1 	str	w1, [sp, #28]
   826d8:	f0000001 	adrp	x1, 85000 <mailbox>
   826dc:	91000021 	add	x1, x1, #0x0
   826e0:	93407c00 	sxtw	x0, w0
   826e4:	529000a2 	mov	w2, #0x8005                	// #32773
   826e8:	72a00082 	movk	w2, #0x4, lsl #16
   826ec:	b8207822 	str	w2, [x1, x0, lsl #2]
   826f0:	b9401fe0 	ldr	w0, [sp, #28]
   826f4:	11000401 	add	w1, w0, #0x1
   826f8:	b9001fe1 	str	w1, [sp, #28]
   826fc:	f0000001 	adrp	x1, 85000 <mailbox>
   82700:	91000021 	add	x1, x1, #0x0
   82704:	93407c00 	sxtw	x0, w0
   82708:	52800082 	mov	w2, #0x4                   	// #4
   8270c:	b8207822 	str	w2, [x1, x0, lsl #2]
   82710:	b9401fe0 	ldr	w0, [sp, #28]
   82714:	11000401 	add	w1, w0, #0x1
   82718:	b9001fe1 	str	w1, [sp, #28]
   8271c:	f0000001 	adrp	x1, 85000 <mailbox>
   82720:	91000021 	add	x1, x1, #0x0
   82724:	93407c00 	sxtw	x0, w0
   82728:	b820783f 	str	wzr, [x1, x0, lsl #2]
   8272c:	b9401fe0 	ldr	w0, [sp, #28]
   82730:	11000401 	add	w1, w0, #0x1
   82734:	b9001fe1 	str	w1, [sp, #28]
   82738:	f0000001 	adrp	x1, 85000 <mailbox>
   8273c:	91000021 	add	x1, x1, #0x0
   82740:	93407c00 	sxtw	x0, w0
   82744:	52800402 	mov	w2, #0x20                  	// #32
   82748:	b8207822 	str	w2, [x1, x0, lsl #2]
   8274c:	b9401fe0 	ldr	w0, [sp, #28]
   82750:	11000401 	add	w1, w0, #0x1
   82754:	b9001fe1 	str	w1, [sp, #28]
   82758:	f0000001 	adrp	x1, 85000 <mailbox>
   8275c:	91000021 	add	x1, x1, #0x0
   82760:	93407c00 	sxtw	x0, w0
   82764:	529000c2 	mov	w2, #0x8006                	// #32774
   82768:	72a00082 	movk	w2, #0x4, lsl #16
   8276c:	b8207822 	str	w2, [x1, x0, lsl #2]
   82770:	b9401fe0 	ldr	w0, [sp, #28]
   82774:	11000401 	add	w1, w0, #0x1
   82778:	b9001fe1 	str	w1, [sp, #28]
   8277c:	f0000001 	adrp	x1, 85000 <mailbox>
   82780:	91000021 	add	x1, x1, #0x0
   82784:	93407c00 	sxtw	x0, w0
   82788:	52800082 	mov	w2, #0x4                   	// #4
   8278c:	b8207822 	str	w2, [x1, x0, lsl #2]
   82790:	b9401fe0 	ldr	w0, [sp, #28]
   82794:	11000401 	add	w1, w0, #0x1
   82798:	b9001fe1 	str	w1, [sp, #28]
   8279c:	f0000001 	adrp	x1, 85000 <mailbox>
   827a0:	91000021 	add	x1, x1, #0x0
   827a4:	93407c00 	sxtw	x0, w0
   827a8:	b820783f 	str	wzr, [x1, x0, lsl #2]
   827ac:	b9401fe0 	ldr	w0, [sp, #28]
   827b0:	11000401 	add	w1, w0, #0x1
   827b4:	b9001fe1 	str	w1, [sp, #28]
   827b8:	f0000001 	adrp	x1, 85000 <mailbox>
   827bc:	91000021 	add	x1, x1, #0x0
   827c0:	93407c00 	sxtw	x0, w0
   827c4:	52800022 	mov	w2, #0x1                   	// #1
   827c8:	b8207822 	str	w2, [x1, x0, lsl #2]
   827cc:	b9401fe0 	ldr	w0, [sp, #28]
   827d0:	11000401 	add	w1, w0, #0x1
   827d4:	b9001fe1 	str	w1, [sp, #28]
   827d8:	f0000001 	adrp	x1, 85000 <mailbox>
   827dc:	91000021 	add	x1, x1, #0x0
   827e0:	93407c00 	sxtw	x0, w0
   827e4:	52800102 	mov	w2, #0x8                   	// #8
   827e8:	72a00082 	movk	w2, #0x4, lsl #16
   827ec:	b8207822 	str	w2, [x1, x0, lsl #2]
   827f0:	b9401fe0 	ldr	w0, [sp, #28]
   827f4:	11000401 	add	w1, w0, #0x1
   827f8:	b9001fe1 	str	w1, [sp, #28]
   827fc:	f0000001 	adrp	x1, 85000 <mailbox>
   82800:	91000021 	add	x1, x1, #0x0
   82804:	93407c00 	sxtw	x0, w0
   82808:	52800082 	mov	w2, #0x4                   	// #4
   8280c:	b8207822 	str	w2, [x1, x0, lsl #2]
   82810:	b9401fe0 	ldr	w0, [sp, #28]
   82814:	11000401 	add	w1, w0, #0x1
   82818:	b9001fe1 	str	w1, [sp, #28]
   8281c:	f0000001 	adrp	x1, 85000 <mailbox>
   82820:	91000021 	add	x1, x1, #0x0
   82824:	93407c00 	sxtw	x0, w0
   82828:	b820783f 	str	wzr, [x1, x0, lsl #2]
   8282c:	b9401fe0 	ldr	w0, [sp, #28]
   82830:	11000401 	add	w1, w0, #0x1
   82834:	b9001fe1 	str	w1, [sp, #28]
   82838:	f0000001 	adrp	x1, 85000 <mailbox>
   8283c:	91000021 	add	x1, x1, #0x0
   82840:	93407c00 	sxtw	x0, w0
   82844:	b820783f 	str	wzr, [x1, x0, lsl #2]
   82848:	b9401fe0 	ldr	w0, [sp, #28]
   8284c:	11000401 	add	w1, w0, #0x1
   82850:	b9001fe1 	str	w1, [sp, #28]
   82854:	f0000001 	adrp	x1, 85000 <mailbox>
   82858:	91000021 	add	x1, x1, #0x0
   8285c:	93407c00 	sxtw	x0, w0
   82860:	b820783f 	str	wzr, [x1, x0, lsl #2]
   82864:	b9401fe0 	ldr	w0, [sp, #28]
   82868:	531e7400 	lsl	w0, w0, #2
   8286c:	2a0003e1 	mov	w1, w0
   82870:	f0000000 	adrp	x0, 85000 <mailbox>
   82874:	91000000 	add	x0, x0, #0x0
   82878:	b9000001 	str	w1, [x0]
   8287c:	52800100 	mov	w0, #0x8                   	// #8
   82880:	97fffe0a 	bl	820a8 <mailbox_call>
   82884:	b9401fe1 	ldr	w1, [sp, #28]
   82888:	b0000000 	adrp	x0, 83000 <main+0x128>
   8288c:	91020000 	add	x0, x0, #0x80
   82890:	97fffd81 	bl	81e94 <my_printf>
   82894:	f0000000 	adrp	x0, 85000 <mailbox>
   82898:	91000000 	add	x0, x0, #0x0
   8289c:	b9400400 	ldr	w0, [x0, #4]
   828a0:	2a0003e1 	mov	w1, w0
   828a4:	b0000000 	adrp	x0, 83000 <main+0x128>
   828a8:	91024000 	add	x0, x0, #0x90
   828ac:	97fffd7a 	bl	81e94 <my_printf>
   828b0:	f0000000 	adrp	x0, 85000 <mailbox>
   828b4:	91000000 	add	x0, x0, #0x0
   828b8:	b9401400 	ldr	w0, [x0, #20]
   828bc:	2a0003e0 	mov	w0, w0
   828c0:	aa0003e1 	mov	x1, x0
   828c4:	f0000000 	adrp	x0, 85000 <mailbox>
   828c8:	91040000 	add	x0, x0, #0x100
   828cc:	f9000001 	str	x1, [x0]
   828d0:	f0000000 	adrp	x0, 85000 <mailbox>
   828d4:	91040000 	add	x0, x0, #0x100
   828d8:	f9400000 	ldr	x0, [x0]
   828dc:	aa0003e1 	mov	x1, x0
   828e0:	b0000000 	adrp	x0, 83000 <main+0x128>
   828e4:	91028000 	add	x0, x0, #0xa0
   828e8:	97fffd6b 	bl	81e94 <my_printf>
   828ec:	f0000000 	adrp	x0, 85000 <mailbox>
   828f0:	91000000 	add	x0, x0, #0x0
   828f4:	b9401800 	ldr	w0, [x0, #24]
   828f8:	2a0003e1 	mov	w1, w0
   828fc:	f0000000 	adrp	x0, 85000 <mailbox>
   82900:	91042000 	add	x0, x0, #0x108
   82904:	b9000001 	str	w1, [x0]
   82908:	f0000000 	adrp	x0, 85000 <mailbox>
   8290c:	91042000 	add	x0, x0, #0x108
   82910:	b9400000 	ldr	w0, [x0]
   82914:	2a0003e1 	mov	w1, w0
   82918:	b0000000 	adrp	x0, 83000 <main+0x128>
   8291c:	9102c000 	add	x0, x0, #0xb0
   82920:	97fffd5d 	bl	81e94 <my_printf>
   82924:	f0000000 	adrp	x0, 85000 <mailbox>
   82928:	91000000 	add	x0, x0, #0x0
   8292c:	b9408000 	ldr	w0, [x0, #128]
   82930:	2a0003e1 	mov	w1, w0
   82934:	f0000000 	adrp	x0, 85000 <mailbox>
   82938:	91043000 	add	x0, x0, #0x10c
   8293c:	b9000001 	str	w1, [x0]
   82940:	f0000000 	adrp	x0, 85000 <mailbox>
   82944:	91043000 	add	x0, x0, #0x10c
   82948:	b9400000 	ldr	w0, [x0]
   8294c:	2a0003e1 	mov	w1, w0
   82950:	b0000000 	adrp	x0, 83000 <main+0x128>
   82954:	91030000 	add	x0, x0, #0xc0
   82958:	97fffd4f 	bl	81e94 <my_printf>
   8295c:	d503201f 	nop
   82960:	a8c27bfd 	ldp	x29, x30, [sp], #32
   82964:	d65f03c0 	ret

0000000000082968 <fb_loadSplashImage>:
   82968:	d10083ff 	sub	sp, sp, #0x20
   8296c:	b90013ff 	str	wzr, [sp, #16]
   82970:	12800000 	mov	w0, #0xffffffff            	// #-1
   82974:	b9000fe0 	str	w0, [sp, #12]
   82978:	52800020 	mov	w0, #0x1                   	// #1
   8297c:	b90017e0 	str	w0, [sp, #20]
   82980:	b9001bff 	str	wzr, [sp, #24]
   82984:	1400004a 	b	82aac <fb_loadSplashImage+0x144>
   82988:	b9401be2 	ldr	w2, [sp, #24]
   8298c:	528ccce0 	mov	w0, #0x6667                	// #26215
   82990:	72acccc0 	movk	w0, #0x6666, lsl #16
   82994:	9b207c40 	smull	x0, w2, w0
   82998:	d360fc00 	lsr	x0, x0, #32
   8299c:	13037c01 	asr	w1, w0, #3
   829a0:	131f7c40 	asr	w0, w2, #31
   829a4:	4b000021 	sub	w1, w1, w0
   829a8:	2a0103e0 	mov	w0, w1
   829ac:	531e7400 	lsl	w0, w0, #2
   829b0:	0b010000 	add	w0, w0, w1
   829b4:	531e7400 	lsl	w0, w0, #2
   829b8:	4b000041 	sub	w1, w2, w0
   829bc:	7100003f 	cmp	w1, #0x0
   829c0:	540000c1 	b.ne	829d8 <fb_loadSplashImage+0x70>  // b.any
   829c4:	b94017e0 	ldr	w0, [sp, #20]
   829c8:	7100001f 	cmp	w0, #0x0
   829cc:	1a9f17e0 	cset	w0, eq  // eq = none
   829d0:	12001c00 	and	w0, w0, #0xff
   829d4:	b90017e0 	str	w0, [sp, #20]
   829d8:	b9001fff 	str	wzr, [sp, #28]
   829dc:	1400002e 	b	82a94 <fb_loadSplashImage+0x12c>
   829e0:	b9401fe2 	ldr	w2, [sp, #28]
   829e4:	528ccce0 	mov	w0, #0x6667                	// #26215
   829e8:	72acccc0 	movk	w0, #0x6666, lsl #16
   829ec:	9b207c40 	smull	x0, w2, w0
   829f0:	d360fc00 	lsr	x0, x0, #32
   829f4:	13037c01 	asr	w1, w0, #3
   829f8:	131f7c40 	asr	w0, w2, #31
   829fc:	4b000021 	sub	w1, w1, w0
   82a00:	2a0103e0 	mov	w0, w1
   82a04:	531e7400 	lsl	w0, w0, #2
   82a08:	0b010000 	add	w0, w0, w1
   82a0c:	531e7400 	lsl	w0, w0, #2
   82a10:	4b000041 	sub	w1, w2, w0
   82a14:	7100003f 	cmp	w1, #0x0
   82a18:	540000c1 	b.ne	82a30 <fb_loadSplashImage+0xc8>  // b.any
   82a1c:	b94017e0 	ldr	w0, [sp, #20]
   82a20:	7100001f 	cmp	w0, #0x0
   82a24:	1a9f17e0 	cset	w0, eq  // eq = none
   82a28:	12001c00 	and	w0, w0, #0xff
   82a2c:	b90017e0 	str	w0, [sp, #20]
   82a30:	b94017e0 	ldr	w0, [sp, #20]
   82a34:	7100001f 	cmp	w0, #0x0
   82a38:	54000160 	b.eq	82a64 <fb_loadSplashImage+0xfc>  // b.none
   82a3c:	f0000000 	adrp	x0, 85000 <mailbox>
   82a40:	91040000 	add	x0, x0, #0x100
   82a44:	f9400000 	ldr	x0, [x0]
   82a48:	91001002 	add	x2, x0, #0x4
   82a4c:	f0000001 	adrp	x1, 85000 <mailbox>
   82a50:	91040021 	add	x1, x1, #0x100
   82a54:	f9000022 	str	x2, [x1]
   82a58:	b94013e1 	ldr	w1, [sp, #16]
   82a5c:	b9000001 	str	w1, [x0]
   82a60:	1400000a 	b	82a88 <fb_loadSplashImage+0x120>
   82a64:	f0000000 	adrp	x0, 85000 <mailbox>
   82a68:	91040000 	add	x0, x0, #0x100
   82a6c:	f9400000 	ldr	x0, [x0]
   82a70:	91001002 	add	x2, x0, #0x4
   82a74:	f0000001 	adrp	x1, 85000 <mailbox>
   82a78:	91040021 	add	x1, x1, #0x100
   82a7c:	f9000022 	str	x2, [x1]
   82a80:	b9400fe1 	ldr	w1, [sp, #12]
   82a84:	b9000001 	str	w1, [x0]
   82a88:	b9401fe0 	ldr	w0, [sp, #28]
   82a8c:	11000400 	add	w0, w0, #0x1
   82a90:	b9001fe0 	str	w0, [sp, #28]
   82a94:	b9401fe0 	ldr	w0, [sp, #28]
   82a98:	711dfc1f 	cmp	w0, #0x77f
   82a9c:	54fffa2d 	b.le	829e0 <fb_loadSplashImage+0x78>
   82aa0:	b9401be0 	ldr	w0, [sp, #24]
   82aa4:	11000400 	add	w0, w0, #0x1
   82aa8:	b9001be0 	str	w0, [sp, #24]
   82aac:	b9401be0 	ldr	w0, [sp, #24]
   82ab0:	7110dc1f 	cmp	w0, #0x437
   82ab4:	54fff6ad 	b.le	82988 <fb_loadSplashImage+0x20>
   82ab8:	d503201f 	nop
   82abc:	d503201f 	nop
   82ac0:	910083ff 	add	sp, sp, #0x20
   82ac4:	d65f03c0 	ret

0000000000082ac8 <core_timer_enable>:
   82ac8:	d2800020 	mov	x0, #0x1                   	// #1
   82acc:	d51be220 	msr	cntp_ctl_el0, x0
   82ad0:	b2407fe0 	mov	x0, #0xffffffff            	// #4294967295
   82ad4:	d51be200 	msr	cntp_tval_el0, x0
   82ad8:	d2800040 	mov	x0, #0x2                   	// #2
   82adc:	58000721 	ldr	x1, 82bc0 <local_timer_handler+0x60>
   82ae0:	f9000020 	str	x0, [x1]
   82ae4:	d50342ff 	msr	daifclr, #0x2
   82ae8:	d503201f 	nop
   82aec:	d65f03c0 	ret

0000000000082af0 <core_timer_handler>:
   82af0:	a9bf7bfd 	stp	x29, x30, [sp, #-16]!
   82af4:	910003fd 	mov	x29, sp
   82af8:	b0000000 	adrp	x0, 83000 <main+0x128>
   82afc:	91034000 	add	x0, x0, #0xd0
   82b00:	97fffce5 	bl	81e94 <my_printf>
   82b04:	d2800020 	mov	x0, #0x1                   	// #1
   82b08:	d53be001 	mrs	x1, cntfrq_el0
   82b0c:	9b017c00 	mul	x0, x0, x1
   82b10:	d51be200 	msr	cntp_tval_el0, x0
   82b14:	d503201f 	nop
   82b18:	a8c17bfd 	ldp	x29, x30, [sp], #16
   82b1c:	d65f03c0 	ret

0000000000082b20 <local_timer_init>:
   82b20:	d10043ff 	sub	sp, sp, #0x10
   82b24:	52a60000 	mov	w0, #0x30000000            	// #805306368
   82b28:	b9000fe0 	str	w0, [sp, #12]
   82b2c:	528f0800 	mov	w0, #0x7840                	// #30784
   82b30:	72a02fa0 	movk	w0, #0x17d, lsl #16
   82b34:	b9000be0 	str	w0, [sp, #8]
   82b38:	d2800680 	mov	x0, #0x34                  	// #52
   82b3c:	f2a80000 	movk	x0, #0x4000, lsl #16
   82b40:	b9400fe2 	ldr	w2, [sp, #12]
   82b44:	b9400be1 	ldr	w1, [sp, #8]
   82b48:	2a010041 	orr	w1, w2, w1
   82b4c:	b9000001 	str	w1, [x0]
   82b50:	d50342ff 	msr	daifclr, #0x2
   82b54:	d503201f 	nop
   82b58:	910043ff 	add	sp, sp, #0x10
   82b5c:	d65f03c0 	ret

0000000000082b60 <local_timer_handler>:
   82b60:	a9be7bfd 	stp	x29, x30, [sp, #-32]!
   82b64:	910003fd 	mov	x29, sp
   82b68:	529214a0 	mov	w0, #0x90a5                	// #37029
   82b6c:	72a19860 	movk	w0, #0xcc3, lsl #16
   82b70:	b9001fe0 	str	w0, [sp, #28]
   82b74:	d2800700 	mov	x0, #0x38                  	// #56
   82b78:	f2a80000 	movk	x0, #0x4000, lsl #16
   82b7c:	52b80001 	mov	w1, #0xc0000000            	// #-1073741824
   82b80:	b9000001 	str	w1, [x0]
   82b84:	b0000000 	adrp	x0, 83000 <main+0x128>
   82b88:	91038000 	add	x0, x0, #0xe0
   82b8c:	97fffcc2 	bl	81e94 <my_printf>
   82b90:	d50342ff 	msr	daifclr, #0x2
   82b94:	14000002 	b	82b9c <local_timer_handler+0x3c>
   82b98:	d503201f 	nop
   82b9c:	b9401fe0 	ldr	w0, [sp, #28]
   82ba0:	51000401 	sub	w1, w0, #0x1
   82ba4:	b9001fe1 	str	w1, [sp, #28]
   82ba8:	7100001f 	cmp	w0, #0x0
   82bac:	54ffff61 	b.ne	82b98 <local_timer_handler+0x38>  // b.any
   82bb0:	d503201f 	nop
   82bb4:	d503201f 	nop
   82bb8:	a8c27bfd 	ldp	x29, x30, [sp], #32
   82bbc:	d65f03c0 	ret
   82bc0:	40000040 	.inst	0x40000040 ; undefined
   82bc4:	00000000 	udf	#0

0000000000082bc8 <reset>:
   82bc8:	d10043ff 	sub	sp, sp, #0x10
   82bcc:	b9000fe0 	str	w0, [sp, #12]
   82bd0:	d2800380 	mov	x0, #0x1c                  	// #28
   82bd4:	f2a7e200 	movk	x0, #0x3f10, lsl #16
   82bd8:	52800401 	mov	w1, #0x20                  	// #32
   82bdc:	72ab4001 	movk	w1, #0x5a00, lsl #16
   82be0:	b9000001 	str	w1, [x0]
   82be4:	b9400fe1 	ldr	w1, [sp, #12]
   82be8:	52ab4000 	mov	w0, #0x5a000000            	// #1509949440
   82bec:	2a000021 	orr	w1, w1, w0
   82bf0:	d2800480 	mov	x0, #0x24                  	// #36
   82bf4:	f2a7e200 	movk	x0, #0x3f10, lsl #16
   82bf8:	b9000001 	str	w1, [x0]
   82bfc:	d503201f 	nop
   82c00:	910043ff 	add	sp, sp, #0x10
   82c04:	d65f03c0 	ret

0000000000082c08 <cancel_reset>:
   82c08:	d2800380 	mov	x0, #0x1c                  	// #28
   82c0c:	f2a7e200 	movk	x0, #0x3f10, lsl #16
   82c10:	52ab4001 	mov	w1, #0x5a000000            	// #1509949440
   82c14:	b9000001 	str	w1, [x0]
   82c18:	d2800480 	mov	x0, #0x24                  	// #36
   82c1c:	f2a7e200 	movk	x0, #0x3f10, lsl #16
   82c20:	52ab4001 	mov	w1, #0x5a000000            	// #1509949440
   82c24:	b9000001 	str	w1, [x0]
   82c28:	d503201f 	nop
   82c2c:	d65f03c0 	ret

0000000000082c30 <read_cmd>:
   82c30:	a9bd7bfd 	stp	x29, x30, [sp, #-48]!
   82c34:	910003fd 	mov	x29, sp
   82c38:	f9000fe0 	str	x0, [sp, #24]
   82c3c:	f9400fe0 	ldr	x0, [sp, #24]
   82c40:	3900001f 	strb	wzr, [x0]
   82c44:	b9002fff 	str	wzr, [sp, #44]
   82c48:	1400001f 	b	82cc4 <read_cmd+0x94>
   82c4c:	3940afe0 	ldrb	w0, [sp, #43]
   82c50:	7103c01f 	cmp	w0, #0xf0
   82c54:	54000041 	b.ne	82c5c <read_cmd+0x2c>  // b.any
   82c58:	1400001b 	b	82cc4 <read_cmd+0x94>
   82c5c:	3940afe0 	ldrb	w0, [sp, #43]
   82c60:	7101fc1f 	cmp	w0, #0x7f
   82c64:	540001c1 	b.ne	82c9c <read_cmd+0x6c>  // b.any
   82c68:	b9402fe0 	ldr	w0, [sp, #44]
   82c6c:	51000400 	sub	w0, w0, #0x1
   82c70:	b9002fe0 	str	w0, [sp, #44]
   82c74:	b9402fe0 	ldr	w0, [sp, #44]
   82c78:	7100001f 	cmp	w0, #0x0
   82c7c:	540001eb 	b.lt	82cb8 <read_cmd+0x88>  // b.tstop
   82c80:	b0000000 	adrp	x0, 83000 <main+0x128>
   82c84:	9103c000 	add	x0, x0, #0xf0
   82c88:	97fffbf9 	bl	81c6c <print_s>
   82c8c:	b9402fe0 	ldr	w0, [sp, #44]
   82c90:	51000400 	sub	w0, w0, #0x1
   82c94:	b9002fe0 	str	w0, [sp, #44]
   82c98:	14000008 	b	82cb8 <read_cmd+0x88>
   82c9c:	b9802fe0 	ldrsw	x0, [sp, #44]
   82ca0:	f9400fe1 	ldr	x1, [sp, #24]
   82ca4:	8b000020 	add	x0, x1, x0
   82ca8:	3940afe1 	ldrb	w1, [sp, #43]
   82cac:	39000001 	strb	w1, [x0]
   82cb0:	3940afe0 	ldrb	w0, [sp, #43]
   82cb4:	97fffbe6 	bl	81c4c <print_c>
   82cb8:	b9402fe0 	ldr	w0, [sp, #44]
   82cbc:	11000400 	add	w0, w0, #0x1
   82cc0:	b9002fe0 	str	w0, [sp, #44]
   82cc4:	97fffbdc 	bl	81c34 <read_c>
   82cc8:	3900afe0 	strb	w0, [sp, #43]
   82ccc:	3940afe0 	ldrb	w0, [sp, #43]
   82cd0:	7100281f 	cmp	w0, #0xa
   82cd4:	54fffbc1 	b.ne	82c4c <read_cmd+0x1c>  // b.any
   82cd8:	b0000000 	adrp	x0, 83000 <main+0x128>
   82cdc:	9103e000 	add	x0, x0, #0xf8
   82ce0:	97fffbe3 	bl	81c6c <print_s>
   82ce4:	b9802fe0 	ldrsw	x0, [sp, #44]
   82ce8:	f9400fe1 	ldr	x1, [sp, #24]
   82cec:	8b000020 	add	x0, x1, x0
   82cf0:	3900001f 	strb	wzr, [x0]
   82cf4:	d503201f 	nop
   82cf8:	a8c37bfd 	ldp	x29, x30, [sp], #48
   82cfc:	d65f03c0 	ret

0000000000082d00 <shell>:
   82d00:	a9ad7bfd 	stp	x29, x30, [sp, #-304]!
   82d04:	910003fd 	mov	x29, sp
   82d08:	a901ffff 	stp	xzr, xzr, [sp, #24]
   82d0c:	9100a3e0 	add	x0, sp, #0x28
   82d10:	4f000400 	movi	v0.4s, #0x0
   82d14:	ad000000 	stp	q0, q0, [x0]
   82d18:	ad010000 	stp	q0, q0, [x0, #32]
   82d1c:	ad020000 	stp	q0, q0, [x0, #64]
   82d20:	ad030000 	stp	q0, q0, [x0, #96]
   82d24:	ad040000 	stp	q0, q0, [x0, #128]
   82d28:	ad050000 	stp	q0, q0, [x0, #160]
   82d2c:	ad060000 	stp	q0, q0, [x0, #192]
   82d30:	3d803800 	str	q0, [x0, #224]
   82d34:	b0000000 	adrp	x0, 83000 <main+0x128>
   82d38:	91040000 	add	x0, x0, #0x100
   82d3c:	97fffc56 	bl	81e94 <my_printf>
   82d40:	910063e0 	add	x0, sp, #0x18
   82d44:	97ffffbb 	bl	82c30 <read_cmd>
   82d48:	910063e2 	add	x2, sp, #0x18
   82d4c:	b0000000 	adrp	x0, 83000 <main+0x128>
   82d50:	91042001 	add	x1, x0, #0x108
   82d54:	aa0203e0 	mov	x0, x2
   82d58:	97fffa9f 	bl	817d4 <strcmp>
   82d5c:	7100001f 	cmp	w0, #0x0
   82d60:	540000a1 	b.ne	82d74 <shell+0x74>  // b.any
   82d64:	b0000000 	adrp	x0, 83000 <main+0x128>
   82d68:	91044000 	add	x0, x0, #0x110
   82d6c:	97fffc4a 	bl	81e94 <my_printf>
   82d70:	14000057 	b	82ecc <shell+0x1cc>
   82d74:	910063e2 	add	x2, sp, #0x18
   82d78:	b0000000 	adrp	x0, 83000 <main+0x128>
   82d7c:	9107c001 	add	x1, x0, #0x1f0
   82d80:	aa0203e0 	mov	x0, x2
   82d84:	97fffa94 	bl	817d4 <strcmp>
   82d88:	7100001f 	cmp	w0, #0x0
   82d8c:	540000a1 	b.ne	82da0 <shell+0xa0>  // b.any
   82d90:	b0000000 	adrp	x0, 83000 <main+0x128>
   82d94:	9107e000 	add	x0, x0, #0x1f8
   82d98:	97fffc3f 	bl	81e94 <my_printf>
   82d9c:	1400004c 	b	82ecc <shell+0x1cc>
   82da0:	910063e2 	add	x2, sp, #0x18
   82da4:	b0000000 	adrp	x0, 83000 <main+0x128>
   82da8:	91082001 	add	x1, x0, #0x208
   82dac:	aa0203e0 	mov	x0, x2
   82db0:	97fffa89 	bl	817d4 <strcmp>
   82db4:	7100001f 	cmp	w0, #0x0
   82db8:	54000081 	b.ne	82dc8 <shell+0xc8>  // b.any
   82dbc:	97fffce4 	bl	8214c <get_board_revision>
   82dc0:	97fffd0a 	bl	821e8 <get_vc_memory_addr>
   82dc4:	14000042 	b	82ecc <shell+0x1cc>
   82dc8:	910063e2 	add	x2, sp, #0x18
   82dcc:	b0000000 	adrp	x0, 83000 <main+0x128>
   82dd0:	91084001 	add	x1, x0, #0x210
   82dd4:	aa0203e0 	mov	x0, x2
   82dd8:	97fffa7f 	bl	817d4 <strcmp>
   82ddc:	7100001f 	cmp	w0, #0x0
   82de0:	540001c1 	b.ne	82e18 <shell+0x118>  // b.any
   82de4:	d53be020 	mrs	x0, cntpct_el0
   82de8:	f90097e0 	str	x0, [sp, #296]
   82dec:	d53be000 	mrs	x0, cntfrq_el0
   82df0:	f90093e0 	str	x0, [sp, #288]
   82df4:	f94097e1 	ldr	x1, [sp, #296]
   82df8:	f94093e0 	ldr	x0, [sp, #288]
   82dfc:	9ac00820 	udiv	x0, x1, x0
   82e00:	f9008fe0 	str	x0, [sp, #280]
   82e04:	f9408fe1 	ldr	x1, [sp, #280]
   82e08:	b0000000 	adrp	x0, 83000 <main+0x128>
   82e0c:	91088000 	add	x0, x0, #0x220
   82e10:	97fffc21 	bl	81e94 <my_printf>
   82e14:	1400002e 	b	82ecc <shell+0x1cc>
   82e18:	910063e2 	add	x2, sp, #0x18
   82e1c:	b0000000 	adrp	x0, 83000 <main+0x128>
   82e20:	9108a001 	add	x1, x0, #0x228
   82e24:	aa0203e0 	mov	x0, x2
   82e28:	97fffa6b 	bl	817d4 <strcmp>
   82e2c:	7100001f 	cmp	w0, #0x0
   82e30:	54000061 	b.ne	82e3c <shell+0x13c>  // b.any
   82e34:	d4000021 	svc	#0x1
   82e38:	14000025 	b	82ecc <shell+0x1cc>
   82e3c:	910063e2 	add	x2, sp, #0x18
   82e40:	b0000000 	adrp	x0, 83000 <main+0x128>
   82e44:	9108c001 	add	x1, x0, #0x230
   82e48:	aa0203e0 	mov	x0, x2
   82e4c:	97fffa62 	bl	817d4 <strcmp>
   82e50:	7100001f 	cmp	w0, #0x0
   82e54:	540000c1 	b.ne	82e6c <shell+0x16c>  // b.any
   82e58:	b0000000 	adrp	x0, 83000 <main+0x128>
   82e5c:	9108e000 	add	x0, x0, #0x238
   82e60:	97fffc0d 	bl	81e94 <my_printf>
   82e64:	d4000041 	svc	#0x2
   82e68:	14000019 	b	82ecc <shell+0x1cc>
   82e6c:	910063e2 	add	x2, sp, #0x18
   82e70:	b0000000 	adrp	x0, 83000 <main+0x128>
   82e74:	91090001 	add	x1, x0, #0x240
   82e78:	aa0203e0 	mov	x0, x2
   82e7c:	97fffa56 	bl	817d4 <strcmp>
   82e80:	7100001f 	cmp	w0, #0x0
   82e84:	54000081 	b.ne	82e94 <shell+0x194>  // b.any
   82e88:	52800140 	mov	w0, #0xa                   	// #10
   82e8c:	97ffff4f 	bl	82bc8 <reset>
   82e90:	1400000f 	b	82ecc <shell+0x1cc>
   82e94:	910063e2 	add	x2, sp, #0x18
   82e98:	b0000000 	adrp	x0, 83000 <main+0x128>
   82e9c:	91092001 	add	x1, x0, #0x248
   82ea0:	aa0203e0 	mov	x0, x2
   82ea4:	97fffa4c 	bl	817d4 <strcmp>
   82ea8:	7100001f 	cmp	w0, #0x0
   82eac:	540000a1 	b.ne	82ec0 <shell+0x1c0>  // b.any
   82eb0:	b0000000 	adrp	x0, 83000 <main+0x128>
   82eb4:	91094000 	add	x0, x0, #0x250
   82eb8:	97fffbf7 	bl	81e94 <my_printf>
   82ebc:	14000004 	b	82ecc <shell+0x1cc>
   82ec0:	b0000000 	adrp	x0, 83000 <main+0x128>
   82ec4:	91098000 	add	x0, x0, #0x260
   82ec8:	97fffbf3 	bl	81e94 <my_printf>
   82ecc:	d503201f 	nop
   82ed0:	a8d37bfd 	ldp	x29, x30, [sp], #304
   82ed4:	d65f03c0 	ret

0000000000082ed8 <main>:
   82ed8:	a9bf7bfd 	stp	x29, x30, [sp, #-16]!
   82edc:	910003fd 	mov	x29, sp
   82ee0:	97fffaf8 	bl	81ac0 <uart1_init>
   82ee4:	97fffd58 	bl	82444 <fb_init>
   82ee8:	97fffea0 	bl	82968 <fb_loadSplashImage>
   82eec:	b0000000 	adrp	x0, 83000 <main+0x128>
   82ef0:	9109e000 	add	x0, x0, #0x278
   82ef4:	97fffb5e 	bl	81c6c <print_s>
   82ef8:	b0000000 	adrp	x0, 83000 <main+0x128>
   82efc:	910a2000 	add	x0, x0, #0x288
   82f00:	97fffb5b 	bl	81c6c <print_s>
   82f04:	97ffff7f 	bl	82d00 <shell>
   82f08:	17ffffff 	b	82f04 <main+0x2c>
