
kernel.elf:     file format elf64-littleaarch64


Disassembly of section .text:

0000000000080000 <_boot_start>:
   80000:	d53b4220 	mrs	x0, daif
   80004:	b27a0400 	orr	x0, x0, #0xc0
   80008:	d51b4220 	msr	daif, x0
   8000c:	d53800a1 	mrs	x1, mpidr_el1
   80010:	92400421 	and	x1, x1, #0x3
   80014:	b4000061 	cbz	x1, 80020 <el2_entry>
   80018:	d503205f 	wfe
   8001c:	17ffffff 	b	80018 <_boot_start+0x18>

0000000000080020 <el2_entry>:
   80020:	58000642 	ldr	x2, 800e8 <bss_done+0x10>
   80024:	9100005f 	mov	sp, x2
   80028:	d51c4102 	msr	sp_el1, x2
   8002c:	d5033fdf 	isb
   80030:	d2b00000 	mov	x0, #0x80000000            	// #2147483648
   80034:	b27f0000 	orr	x0, x0, #0x2
   80038:	d51c1100 	msr	hcr_el2, x0
   8003c:	d53c1100 	mrs	x0, hcr_el2
   80040:	d2800000 	mov	x0, #0x0                   	// #0
   80044:	b26c0400 	orr	x0, x0, #0x300000
   80048:	d5181040 	msr	cpacr_el1, x0
   8004c:	d5033fdf 	isb
   80050:	d2810000 	mov	x0, #0x800                 	// #2048
   80054:	f2a61a00 	movk	x0, #0x30d0, lsl #16
   80058:	d5181000 	msr	sctlr_el1, x0
   8005c:	580004a0 	ldr	x0, 800f0 <bss_done+0x18>
   80060:	d518c000 	msr	vbar_el1, x0
   80064:	d5033fdf 	isb
   80068:	d28000a1 	mov	x1, #0x5                   	// #5
   8006c:	b2790021 	orr	x1, x1, #0x80
   80070:	b2780021 	orr	x1, x1, #0x100
   80074:	b2770021 	orr	x1, x1, #0x200
   80078:	d51c4001 	msr	spsr_el2, x1
   8007c:	10000060 	adr	x0, 80088 <el1_entry>
   80080:	d51c4020 	msr	elr_el2, x0
   80084:	d69f03e0 	eret

0000000000080088 <el1_entry>:
   80088:	58000302 	ldr	x2, 800e8 <bss_done+0x10>
   8008c:	927cec42 	and	x2, x2, #0xfffffffffffffff0
   80090:	d5184102 	msr	sp_el0, x2
   80094:	580002e0 	ldr	x0, 800f0 <bss_done+0x18>
   80098:	d518c000 	msr	vbar_el1, x0
   8009c:	d5033fdf 	isb
   800a0:	d2800001 	mov	x1, #0x0                   	// #0
   800a4:	d5184001 	msr	spsr_el1, x1
   800a8:	100000a0 	adr	x0, 800bc <el0_entry>
   800ac:	d5184020 	msr	elr_el1, x0
   800b0:	94000016 	bl	80108 <set_aux>
   800b4:	d5033fdf 	isb
   800b8:	d69f03e0 	eret

00000000000800bc <el0_entry>:
   800bc:	580001e0 	ldr	x0, 800f8 <bss_done+0x20>
   800c0:	58000201 	ldr	x1, 80100 <bss_done+0x28>
   800c4:	d2800002 	mov	x2, #0x0                   	// #0

00000000000800c8 <bss_clear_loop>:
   800c8:	eb01001f 	cmp	x0, x1
   800cc:	5400006a 	b.ge	800d8 <bss_done>  // b.tcont
   800d0:	f8008402 	str	x2, [x0], #8
   800d4:	17fffffd 	b	800c8 <bss_clear_loop>

00000000000800d8 <bss_done>:
   800d8:	94000b80 	bl	82ed8 <main>
   800dc:	d503205f 	wfe
   800e0:	17ffffff 	b	800dc <bss_done+0x4>
   800e4:	00000000 	udf	#0
   800e8:	00085000 	.inst	0x00085000 ; undefined
   800ec:	00000000 	udf	#0
   800f0:	00081000 	.inst	0x00081000 ; undefined
   800f4:	00000000 	udf	#0
   800f8:	00084000 	.inst	0x00084000 ; undefined
   800fc:	00000000 	udf	#0
   80100:	00085110 	.inst	0x00085110 ; undefined
   80104:	00000000 	udf	#0

0000000000080108 <set_aux>:
   80108:	d2964200 	mov	x0, #0xb210                	// #45584
   8010c:	f2a7e000 	movk	x0, #0x3f00, lsl #16
   80110:	52a40001 	mov	w1, #0x20000000            	// #536870912
   80114:	b9000001 	str	w1, [x0]
   80118:	d503201f 	nop
   8011c:	d65f03c0 	ret

0000000000080120 <dummy_exception_handler>:
   80120:	a9bf7bfd 	stp	x29, x30, [sp, #-16]!
   80124:	910003fd 	mov	x29, sp
   80128:	d0000000 	adrp	x0, 82000 <my_printf+0x16c>
   8012c:	913c4000 	add	x0, x0, #0xf10
   80130:	94000759 	bl	81e94 <my_printf>
   80134:	d503201f 	nop
   80138:	a8c17bfd 	ldp	x29, x30, [sp], #16
   8013c:	d65f03c0 	ret

0000000000080140 <sync_handler>:
   80140:	a9bc7bfd 	stp	x29, x30, [sp, #-64]!
   80144:	910003fd 	mov	x29, sp
   80148:	f90017e0 	str	x0, [sp, #40]
   8014c:	f90013e1 	str	x1, [sp, #32]
   80150:	f9000fe2 	str	x2, [sp, #24]
   80154:	f94013e0 	ldr	x0, [sp, #32]
   80158:	12005c00 	and	w0, w0, #0xffffff
   8015c:	b9003fe0 	str	w0, [sp, #60]
   80160:	f94013e0 	ldr	x0, [sp, #32]
   80164:	d35afc00 	lsr	x0, x0, #26
   80168:	b9003be0 	str	w0, [sp, #56]
   8016c:	b9403fe0 	ldr	w0, [sp, #60]
   80170:	7100001f 	cmp	w0, #0x0
   80174:	540000a1 	b.ne	80188 <sync_handler+0x48>  // b.any
   80178:	d0000000 	adrp	x0, 82000 <my_printf+0x16c>
   8017c:	913cc000 	add	x0, x0, #0xf30
   80180:	94000745 	bl	81e94 <my_printf>
   80184:	1400001a 	b	801ec <sync_handler+0xac>
   80188:	b9403fe0 	ldr	w0, [sp, #60]
   8018c:	7100041f 	cmp	w0, #0x1
   80190:	54000241 	b.ne	801d8 <sync_handler+0x98>  // b.any
   80194:	f94017e1 	ldr	x1, [sp, #40]
   80198:	d0000000 	adrp	x0, 82000 <my_printf+0x16c>
   8019c:	913d0000 	add	x0, x0, #0xf40
   801a0:	9400073d 	bl	81e94 <my_printf>
   801a4:	f9400fe1 	ldr	x1, [sp, #24]
   801a8:	d0000000 	adrp	x0, 82000 <my_printf+0x16c>
   801ac:	913d4000 	add	x0, x0, #0xf50
   801b0:	94000739 	bl	81e94 <my_printf>
   801b4:	b9403be1 	ldr	w1, [sp, #56]
   801b8:	d0000000 	adrp	x0, 82000 <my_printf+0x16c>
   801bc:	913dc000 	add	x0, x0, #0xf70
   801c0:	94000735 	bl	81e94 <my_printf>
   801c4:	b9403fe1 	ldr	w1, [sp, #60]
   801c8:	d0000000 	adrp	x0, 82000 <my_printf+0x16c>
   801cc:	913e4000 	add	x0, x0, #0xf90
   801d0:	94000731 	bl	81e94 <my_printf>
   801d4:	14000006 	b	801ec <sync_handler+0xac>
   801d8:	b9403fe0 	ldr	w0, [sp, #60]
   801dc:	7100081f 	cmp	w0, #0x2
   801e0:	54000061 	b.ne	801ec <sync_handler+0xac>  // b.any
   801e4:	94000a39 	bl	82ac8 <core_timer_enable>
   801e8:	94000a4e 	bl	82b20 <local_timer_init>
   801ec:	d503201f 	nop
   801f0:	a8c47bfd 	ldp	x29, x30, [sp], #64
   801f4:	d65f03c0 	ret

00000000000801f8 <irq_handler>:
   801f8:	a9bf7bfd 	stp	x29, x30, [sp, #-16]!
   801fc:	910003fd 	mov	x29, sp
   80200:	d0000000 	adrp	x0, 82000 <my_printf+0x16c>
   80204:	913f0000 	add	x0, x0, #0xfc0
   80208:	94000723 	bl	81e94 <my_printf>
   8020c:	94000a39 	bl	82af0 <core_timer_handler>
   80210:	94000a54 	bl	82b60 <local_timer_handler>
   80214:	d503201f 	nop
   80218:	a8c17bfd 	ldp	x29, x30, [sp], #16
   8021c:	d65f03c0 	ret

0000000000080220 <fiq_handler>:
   80220:	a9bf7bfd 	stp	x29, x30, [sp, #-16]!
   80224:	910003fd 	mov	x29, sp
   80228:	d0000000 	adrp	x0, 82000 <my_printf+0x16c>
   8022c:	913f4000 	add	x0, x0, #0xfd0
   80230:	94000719 	bl	81e94 <my_printf>
   80234:	d503201f 	nop
   80238:	a8c17bfd 	ldp	x29, x30, [sp], #16
   8023c:	d65f03c0 	ret

0000000000080240 <serr_handler>:
   80240:	a9bf7bfd 	stp	x29, x30, [sp, #-16]!
   80244:	910003fd 	mov	x29, sp
   80248:	d0000000 	adrp	x0, 82000 <my_printf+0x16c>
   8024c:	913f8000 	add	x0, x0, #0xfe0
   80250:	94000711 	bl	81e94 <my_printf>
   80254:	d503201f 	nop
   80258:	a8c17bfd 	ldp	x29, x30, [sp], #16
   8025c:	d65f03c0 	ret
	...

0000000000080800 <_dummy_exc_handler>:
   80800:	97fffe48 	bl	80120 <dummy_exception_handler>
   80804:	d69f03e0 	eret

0000000000080808 <_SYNC_handler>:
   80808:	a9bf07e0 	stp	x0, x1, [sp, #-16]!
   8080c:	a9bf0fe2 	stp	x2, x3, [sp, #-16]!
   80810:	a9bf17e4 	stp	x4, x5, [sp, #-16]!
   80814:	a9bf1fe6 	stp	x6, x7, [sp, #-16]!
   80818:	a9bf27e8 	stp	x8, x9, [sp, #-16]!
   8081c:	a9bf2fea 	stp	x10, x11, [sp, #-16]!
   80820:	a9bf37ec 	stp	x12, x13, [sp, #-16]!
   80824:	a9bf3fee 	stp	x14, x15, [sp, #-16]!
   80828:	a9bf47f0 	stp	x16, x17, [sp, #-16]!
   8082c:	a9bf4ff2 	stp	x18, x19, [sp, #-16]!
   80830:	a9bf57f4 	stp	x20, x21, [sp, #-16]!
   80834:	a9bf5ff6 	stp	x22, x23, [sp, #-16]!
   80838:	a9bf67f8 	stp	x24, x25, [sp, #-16]!
   8083c:	a9bf6ffa 	stp	x26, x27, [sp, #-16]!
   80840:	a9bf77fc 	stp	x28, x29, [sp, #-16]!
   80844:	f81f0ffe 	str	x30, [sp, #-16]!
   80848:	d2800000 	mov	x0, #0x0                   	// #0
   8084c:	d5385201 	mrs	x1, esr_el1
   80850:	d5384022 	mrs	x2, elr_el1
   80854:	97fffe3b 	bl	80140 <sync_handler>
   80858:	f84107fe 	ldr	x30, [sp], #16
   8085c:	a8c177fc 	ldp	x28, x29, [sp], #16
   80860:	a8c16ffa 	ldp	x26, x27, [sp], #16
   80864:	a8c167f8 	ldp	x24, x25, [sp], #16
   80868:	a8c15ff6 	ldp	x22, x23, [sp], #16
   8086c:	a8c157f4 	ldp	x20, x21, [sp], #16
   80870:	a8c14ff2 	ldp	x18, x19, [sp], #16
   80874:	a8c147f0 	ldp	x16, x17, [sp], #16
   80878:	a8c13fee 	ldp	x14, x15, [sp], #16
   8087c:	a8c137ec 	ldp	x12, x13, [sp], #16
   80880:	a8c12fea 	ldp	x10, x11, [sp], #16
   80884:	a8c127e8 	ldp	x8, x9, [sp], #16
   80888:	a8c11fe6 	ldp	x6, x7, [sp], #16
   8088c:	a8c117e4 	ldp	x4, x5, [sp], #16
   80890:	a8c10fe2 	ldp	x2, x3, [sp], #16
   80894:	a8c107e0 	ldp	x0, x1, [sp], #16
   80898:	d69f03e0 	eret

000000000008089c <_IRQ_handler>:
   8089c:	a9bf07e0 	stp	x0, x1, [sp, #-16]!
   808a0:	a9bf0fe2 	stp	x2, x3, [sp, #-16]!
   808a4:	a9bf17e4 	stp	x4, x5, [sp, #-16]!
   808a8:	a9bf1fe6 	stp	x6, x7, [sp, #-16]!
   808ac:	a9bf27e8 	stp	x8, x9, [sp, #-16]!
   808b0:	a9bf2fea 	stp	x10, x11, [sp, #-16]!
   808b4:	a9bf37ec 	stp	x12, x13, [sp, #-16]!
   808b8:	a9bf3fee 	stp	x14, x15, [sp, #-16]!
   808bc:	a9bf47f0 	stp	x16, x17, [sp, #-16]!
   808c0:	a9bf4ff2 	stp	x18, x19, [sp, #-16]!
   808c4:	a9bf57f4 	stp	x20, x21, [sp, #-16]!
   808c8:	a9bf5ff6 	stp	x22, x23, [sp, #-16]!
   808cc:	a9bf67f8 	stp	x24, x25, [sp, #-16]!
   808d0:	a9bf6ffa 	stp	x26, x27, [sp, #-16]!
   808d4:	a9bf77fc 	stp	x28, x29, [sp, #-16]!
   808d8:	f81f0ffe 	str	x30, [sp, #-16]!
   808dc:	97fffe47 	bl	801f8 <irq_handler>
   808e0:	f84107fe 	ldr	x30, [sp], #16
   808e4:	a8c177fc 	ldp	x28, x29, [sp], #16
   808e8:	a8c16ffa 	ldp	x26, x27, [sp], #16
   808ec:	a8c167f8 	ldp	x24, x25, [sp], #16
   808f0:	a8c15ff6 	ldp	x22, x23, [sp], #16
   808f4:	a8c157f4 	ldp	x20, x21, [sp], #16
   808f8:	a8c14ff2 	ldp	x18, x19, [sp], #16
   808fc:	a8c147f0 	ldp	x16, x17, [sp], #16
   80900:	a8c13fee 	ldp	x14, x15, [sp], #16
   80904:	a8c137ec 	ldp	x12, x13, [sp], #16
   80908:	a8c12fea 	ldp	x10, x11, [sp], #16
   8090c:	a8c127e8 	ldp	x8, x9, [sp], #16
   80910:	a8c11fe6 	ldp	x6, x7, [sp], #16
   80914:	a8c117e4 	ldp	x4, x5, [sp], #16
   80918:	a8c10fe2 	ldp	x2, x3, [sp], #16
   8091c:	a8c107e0 	ldp	x0, x1, [sp], #16
   80920:	d69f03e0 	eret

0000000000080924 <_FIQ_handler>:
   80924:	a9bf07e0 	stp	x0, x1, [sp, #-16]!
   80928:	a9bf0fe2 	stp	x2, x3, [sp, #-16]!
   8092c:	a9bf17e4 	stp	x4, x5, [sp, #-16]!
   80930:	a9bf1fe6 	stp	x6, x7, [sp, #-16]!
   80934:	a9bf27e8 	stp	x8, x9, [sp, #-16]!
   80938:	a9bf2fea 	stp	x10, x11, [sp, #-16]!
   8093c:	a9bf37ec 	stp	x12, x13, [sp, #-16]!
   80940:	a9bf3fee 	stp	x14, x15, [sp, #-16]!
   80944:	a9bf47f0 	stp	x16, x17, [sp, #-16]!
   80948:	a9bf4ff2 	stp	x18, x19, [sp, #-16]!
   8094c:	a9bf57f4 	stp	x20, x21, [sp, #-16]!
   80950:	a9bf5ff6 	stp	x22, x23, [sp, #-16]!
   80954:	a9bf67f8 	stp	x24, x25, [sp, #-16]!
   80958:	a9bf6ffa 	stp	x26, x27, [sp, #-16]!
   8095c:	a9bf77fc 	stp	x28, x29, [sp, #-16]!
   80960:	f81f0ffe 	str	x30, [sp, #-16]!
   80964:	f84107fe 	ldr	x30, [sp], #16
   80968:	a8c177fc 	ldp	x28, x29, [sp], #16
   8096c:	a8c16ffa 	ldp	x26, x27, [sp], #16
   80970:	a8c167f8 	ldp	x24, x25, [sp], #16
   80974:	a8c15ff6 	ldp	x22, x23, [sp], #16
   80978:	a8c157f4 	ldp	x20, x21, [sp], #16
   8097c:	a8c14ff2 	ldp	x18, x19, [sp], #16
   80980:	a8c147f0 	ldp	x16, x17, [sp], #16
   80984:	a8c13fee 	ldp	x14, x15, [sp], #16
   80988:	a8c137ec 	ldp	x12, x13, [sp], #16
   8098c:	a8c12fea 	ldp	x10, x11, [sp], #16
   80990:	a8c127e8 	ldp	x8, x9, [sp], #16
   80994:	a8c11fe6 	ldp	x6, x7, [sp], #16
   80998:	a8c117e4 	ldp	x4, x5, [sp], #16
   8099c:	a8c10fe2 	ldp	x2, x3, [sp], #16
   809a0:	a8c107e0 	ldp	x0, x1, [sp], #16
   809a4:	d69f03e0 	eret

00000000000809a8 <_SErr_handler>:
   809a8:	a9bf07e0 	stp	x0, x1, [sp, #-16]!
   809ac:	a9bf0fe2 	stp	x2, x3, [sp, #-16]!
   809b0:	a9bf17e4 	stp	x4, x5, [sp, #-16]!
   809b4:	a9bf1fe6 	stp	x6, x7, [sp, #-16]!
   809b8:	a9bf27e8 	stp	x8, x9, [sp, #-16]!
   809bc:	a9bf2fea 	stp	x10, x11, [sp, #-16]!
   809c0:	a9bf37ec 	stp	x12, x13, [sp, #-16]!
   809c4:	a9bf3fee 	stp	x14, x15, [sp, #-16]!
   809c8:	a9bf47f0 	stp	x16, x17, [sp, #-16]!
   809cc:	a9bf4ff2 	stp	x18, x19, [sp, #-16]!
   809d0:	a9bf57f4 	stp	x20, x21, [sp, #-16]!
   809d4:	a9bf5ff6 	stp	x22, x23, [sp, #-16]!
   809d8:	a9bf67f8 	stp	x24, x25, [sp, #-16]!
   809dc:	a9bf6ffa 	stp	x26, x27, [sp, #-16]!
   809e0:	a9bf77fc 	stp	x28, x29, [sp, #-16]!
   809e4:	f81f0ffe 	str	x30, [sp, #-16]!
   809e8:	f84107fe 	ldr	x30, [sp], #16
   809ec:	a8c177fc 	ldp	x28, x29, [sp], #16
   809f0:	a8c16ffa 	ldp	x26, x27, [sp], #16
   809f4:	a8c167f8 	ldp	x24, x25, [sp], #16
   809f8:	a8c15ff6 	ldp	x22, x23, [sp], #16
   809fc:	a8c157f4 	ldp	x20, x21, [sp], #16
   80a00:	a8c14ff2 	ldp	x18, x19, [sp], #16
   80a04:	a8c147f0 	ldp	x16, x17, [sp], #16
   80a08:	a8c13fee 	ldp	x14, x15, [sp], #16
   80a0c:	a8c137ec 	ldp	x12, x13, [sp], #16
   80a10:	a8c12fea 	ldp	x10, x11, [sp], #16
   80a14:	a8c127e8 	ldp	x8, x9, [sp], #16
   80a18:	a8c11fe6 	ldp	x6, x7, [sp], #16
   80a1c:	a8c117e4 	ldp	x4, x5, [sp], #16
   80a20:	a8c10fe2 	ldp	x2, x3, [sp], #16
   80a24:	a8c107e0 	ldp	x0, x1, [sp], #16
   80a28:	d69f03e0 	eret
   80a2c:	d503201f 	nop
   80a30:	d503201f 	nop
   80a34:	d503201f 	nop
   80a38:	d503201f 	nop
   80a3c:	d503201f 	nop
   80a40:	d503201f 	nop
   80a44:	d503201f 	nop
   80a48:	d503201f 	nop
   80a4c:	d503201f 	nop
   80a50:	d503201f 	nop
   80a54:	d503201f 	nop
   80a58:	d503201f 	nop
   80a5c:	d503201f 	nop
   80a60:	d503201f 	nop
   80a64:	d503201f 	nop
   80a68:	d503201f 	nop
   80a6c:	d503201f 	nop
   80a70:	d503201f 	nop
   80a74:	d503201f 	nop
   80a78:	d503201f 	nop
   80a7c:	d503201f 	nop
   80a80:	d503201f 	nop
   80a84:	d503201f 	nop
   80a88:	d503201f 	nop
   80a8c:	d503201f 	nop
   80a90:	d503201f 	nop
   80a94:	d503201f 	nop
   80a98:	d503201f 	nop
   80a9c:	d503201f 	nop
   80aa0:	d503201f 	nop
   80aa4:	d503201f 	nop
   80aa8:	d503201f 	nop
   80aac:	d503201f 	nop
   80ab0:	d503201f 	nop
   80ab4:	d503201f 	nop
   80ab8:	d503201f 	nop
   80abc:	d503201f 	nop
   80ac0:	d503201f 	nop
   80ac4:	d503201f 	nop
   80ac8:	d503201f 	nop
   80acc:	d503201f 	nop
   80ad0:	d503201f 	nop
   80ad4:	d503201f 	nop
   80ad8:	d503201f 	nop
   80adc:	d503201f 	nop
   80ae0:	d503201f 	nop
   80ae4:	d503201f 	nop
   80ae8:	d503201f 	nop
   80aec:	d503201f 	nop
   80af0:	d503201f 	nop
   80af4:	d503201f 	nop
   80af8:	d503201f 	nop
   80afc:	d503201f 	nop
   80b00:	d503201f 	nop
   80b04:	d503201f 	nop
   80b08:	d503201f 	nop
   80b0c:	d503201f 	nop
   80b10:	d503201f 	nop
   80b14:	d503201f 	nop
   80b18:	d503201f 	nop
   80b1c:	d503201f 	nop
   80b20:	d503201f 	nop
   80b24:	d503201f 	nop
   80b28:	d503201f 	nop
   80b2c:	d503201f 	nop
   80b30:	d503201f 	nop
   80b34:	d503201f 	nop
   80b38:	d503201f 	nop
   80b3c:	d503201f 	nop
   80b40:	d503201f 	nop
   80b44:	d503201f 	nop
   80b48:	d503201f 	nop
   80b4c:	d503201f 	nop
   80b50:	d503201f 	nop
   80b54:	d503201f 	nop
   80b58:	d503201f 	nop
   80b5c:	d503201f 	nop
   80b60:	d503201f 	nop
   80b64:	d503201f 	nop
   80b68:	d503201f 	nop
   80b6c:	d503201f 	nop
   80b70:	d503201f 	nop
   80b74:	d503201f 	nop
   80b78:	d503201f 	nop
   80b7c:	d503201f 	nop
   80b80:	d503201f 	nop
   80b84:	d503201f 	nop
   80b88:	d503201f 	nop
   80b8c:	d503201f 	nop
   80b90:	d503201f 	nop
   80b94:	d503201f 	nop
   80b98:	d503201f 	nop
   80b9c:	d503201f 	nop
   80ba0:	d503201f 	nop
   80ba4:	d503201f 	nop
   80ba8:	d503201f 	nop
   80bac:	d503201f 	nop
   80bb0:	d503201f 	nop
   80bb4:	d503201f 	nop
   80bb8:	d503201f 	nop
   80bbc:	d503201f 	nop
   80bc0:	d503201f 	nop
   80bc4:	d503201f 	nop
   80bc8:	d503201f 	nop
   80bcc:	d503201f 	nop
   80bd0:	d503201f 	nop
   80bd4:	d503201f 	nop
   80bd8:	d503201f 	nop
   80bdc:	d503201f 	nop
   80be0:	d503201f 	nop
   80be4:	d503201f 	nop
   80be8:	d503201f 	nop
   80bec:	d503201f 	nop
   80bf0:	d503201f 	nop
   80bf4:	d503201f 	nop
   80bf8:	d503201f 	nop
   80bfc:	d503201f 	nop
   80c00:	d503201f 	nop
   80c04:	d503201f 	nop
   80c08:	d503201f 	nop
   80c0c:	d503201f 	nop
   80c10:	d503201f 	nop
   80c14:	d503201f 	nop
   80c18:	d503201f 	nop
   80c1c:	d503201f 	nop
   80c20:	d503201f 	nop
   80c24:	d503201f 	nop
   80c28:	d503201f 	nop
   80c2c:	d503201f 	nop
   80c30:	d503201f 	nop
   80c34:	d503201f 	nop
   80c38:	d503201f 	nop
   80c3c:	d503201f 	nop
   80c40:	d503201f 	nop
   80c44:	d503201f 	nop
   80c48:	d503201f 	nop
   80c4c:	d503201f 	nop
   80c50:	d503201f 	nop
   80c54:	d503201f 	nop
   80c58:	d503201f 	nop
   80c5c:	d503201f 	nop
   80c60:	d503201f 	nop
   80c64:	d503201f 	nop
   80c68:	d503201f 	nop
   80c6c:	d503201f 	nop
   80c70:	d503201f 	nop
   80c74:	d503201f 	nop
   80c78:	d503201f 	nop
   80c7c:	d503201f 	nop
   80c80:	d503201f 	nop
   80c84:	d503201f 	nop
   80c88:	d503201f 	nop
   80c8c:	d503201f 	nop
   80c90:	d503201f 	nop
   80c94:	d503201f 	nop
   80c98:	d503201f 	nop
   80c9c:	d503201f 	nop
   80ca0:	d503201f 	nop
   80ca4:	d503201f 	nop
   80ca8:	d503201f 	nop
   80cac:	d503201f 	nop
   80cb0:	d503201f 	nop
   80cb4:	d503201f 	nop
   80cb8:	d503201f 	nop
   80cbc:	d503201f 	nop
   80cc0:	d503201f 	nop
   80cc4:	d503201f 	nop
   80cc8:	d503201f 	nop
   80ccc:	d503201f 	nop
   80cd0:	d503201f 	nop
   80cd4:	d503201f 	nop
   80cd8:	d503201f 	nop
   80cdc:	d503201f 	nop
   80ce0:	d503201f 	nop
   80ce4:	d503201f 	nop
   80ce8:	d503201f 	nop
   80cec:	d503201f 	nop
   80cf0:	d503201f 	nop
   80cf4:	d503201f 	nop
   80cf8:	d503201f 	nop
   80cfc:	d503201f 	nop
   80d00:	d503201f 	nop
   80d04:	d503201f 	nop
   80d08:	d503201f 	nop
   80d0c:	d503201f 	nop
   80d10:	d503201f 	nop
   80d14:	d503201f 	nop
   80d18:	d503201f 	nop
   80d1c:	d503201f 	nop
   80d20:	d503201f 	nop
   80d24:	d503201f 	nop
   80d28:	d503201f 	nop
   80d2c:	d503201f 	nop
   80d30:	d503201f 	nop
   80d34:	d503201f 	nop
   80d38:	d503201f 	nop
   80d3c:	d503201f 	nop
   80d40:	d503201f 	nop
   80d44:	d503201f 	nop
   80d48:	d503201f 	nop
   80d4c:	d503201f 	nop
   80d50:	d503201f 	nop
   80d54:	d503201f 	nop
   80d58:	d503201f 	nop
   80d5c:	d503201f 	nop
   80d60:	d503201f 	nop
   80d64:	d503201f 	nop
   80d68:	d503201f 	nop
   80d6c:	d503201f 	nop
   80d70:	d503201f 	nop
   80d74:	d503201f 	nop
   80d78:	d503201f 	nop
   80d7c:	d503201f 	nop
   80d80:	d503201f 	nop
   80d84:	d503201f 	nop
   80d88:	d503201f 	nop
   80d8c:	d503201f 	nop
   80d90:	d503201f 	nop
   80d94:	d503201f 	nop
   80d98:	d503201f 	nop
   80d9c:	d503201f 	nop
   80da0:	d503201f 	nop
   80da4:	d503201f 	nop
   80da8:	d503201f 	nop
   80dac:	d503201f 	nop
   80db0:	d503201f 	nop
   80db4:	d503201f 	nop
   80db8:	d503201f 	nop
   80dbc:	d503201f 	nop
   80dc0:	d503201f 	nop
   80dc4:	d503201f 	nop
   80dc8:	d503201f 	nop
   80dcc:	d503201f 	nop
   80dd0:	d503201f 	nop
   80dd4:	d503201f 	nop
   80dd8:	d503201f 	nop
   80ddc:	d503201f 	nop
   80de0:	d503201f 	nop
   80de4:	d503201f 	nop
   80de8:	d503201f 	nop
   80dec:	d503201f 	nop
   80df0:	d503201f 	nop
   80df4:	d503201f 	nop
   80df8:	d503201f 	nop
   80dfc:	d503201f 	nop
   80e00:	d503201f 	nop
   80e04:	d503201f 	nop
   80e08:	d503201f 	nop
   80e0c:	d503201f 	nop
   80e10:	d503201f 	nop
   80e14:	d503201f 	nop
   80e18:	d503201f 	nop
   80e1c:	d503201f 	nop
   80e20:	d503201f 	nop
   80e24:	d503201f 	nop
   80e28:	d503201f 	nop
   80e2c:	d503201f 	nop
   80e30:	d503201f 	nop
   80e34:	d503201f 	nop
   80e38:	d503201f 	nop
   80e3c:	d503201f 	nop
   80e40:	d503201f 	nop
   80e44:	d503201f 	nop
   80e48:	d503201f 	nop
   80e4c:	d503201f 	nop
   80e50:	d503201f 	nop
   80e54:	d503201f 	nop
   80e58:	d503201f 	nop
   80e5c:	d503201f 	nop
   80e60:	d503201f 	nop
   80e64:	d503201f 	nop
   80e68:	d503201f 	nop
   80e6c:	d503201f 	nop
   80e70:	d503201f 	nop
   80e74:	d503201f 	nop
   80e78:	d503201f 	nop
   80e7c:	d503201f 	nop
   80e80:	d503201f 	nop
   80e84:	d503201f 	nop
   80e88:	d503201f 	nop
   80e8c:	d503201f 	nop
   80e90:	d503201f 	nop
   80e94:	d503201f 	nop
   80e98:	d503201f 	nop
   80e9c:	d503201f 	nop
   80ea0:	d503201f 	nop
   80ea4:	d503201f 	nop
   80ea8:	d503201f 	nop
   80eac:	d503201f 	nop
   80eb0:	d503201f 	nop
   80eb4:	d503201f 	nop
   80eb8:	d503201f 	nop
   80ebc:	d503201f 	nop
   80ec0:	d503201f 	nop
   80ec4:	d503201f 	nop
   80ec8:	d503201f 	nop
   80ecc:	d503201f 	nop
   80ed0:	d503201f 	nop
   80ed4:	d503201f 	nop
   80ed8:	d503201f 	nop
   80edc:	d503201f 	nop
   80ee0:	d503201f 	nop
   80ee4:	d503201f 	nop
   80ee8:	d503201f 	nop
   80eec:	d503201f 	nop
   80ef0:	d503201f 	nop
   80ef4:	d503201f 	nop
   80ef8:	d503201f 	nop
   80efc:	d503201f 	nop
   80f00:	d503201f 	nop
   80f04:	d503201f 	nop
   80f08:	d503201f 	nop
   80f0c:	d503201f 	nop
   80f10:	d503201f 	nop
   80f14:	d503201f 	nop
   80f18:	d503201f 	nop
   80f1c:	d503201f 	nop
   80f20:	d503201f 	nop
   80f24:	d503201f 	nop
   80f28:	d503201f 	nop
   80f2c:	d503201f 	nop
   80f30:	d503201f 	nop
   80f34:	d503201f 	nop
   80f38:	d503201f 	nop
   80f3c:	d503201f 	nop
   80f40:	d503201f 	nop
   80f44:	d503201f 	nop
   80f48:	d503201f 	nop
   80f4c:	d503201f 	nop
   80f50:	d503201f 	nop
   80f54:	d503201f 	nop
   80f58:	d503201f 	nop
   80f5c:	d503201f 	nop
   80f60:	d503201f 	nop
   80f64:	d503201f 	nop
   80f68:	d503201f 	nop
   80f6c:	d503201f 	nop
   80f70:	d503201f 	nop
   80f74:	d503201f 	nop
   80f78:	d503201f 	nop
   80f7c:	d503201f 	nop
   80f80:	d503201f 	nop
   80f84:	d503201f 	nop
   80f88:	d503201f 	nop
   80f8c:	d503201f 	nop
   80f90:	d503201f 	nop
   80f94:	d503201f 	nop
   80f98:	d503201f 	nop
   80f9c:	d503201f 	nop
   80fa0:	d503201f 	nop
   80fa4:	d503201f 	nop
   80fa8:	d503201f 	nop
   80fac:	d503201f 	nop
   80fb0:	d503201f 	nop
   80fb4:	d503201f 	nop
   80fb8:	d503201f 	nop
   80fbc:	d503201f 	nop
   80fc0:	d503201f 	nop
   80fc4:	d503201f 	nop
   80fc8:	d503201f 	nop
   80fcc:	d503201f 	nop
   80fd0:	d503201f 	nop
   80fd4:	d503201f 	nop
   80fd8:	d503201f 	nop
   80fdc:	d503201f 	nop
   80fe0:	d503201f 	nop
   80fe4:	d503201f 	nop
   80fe8:	d503201f 	nop
   80fec:	d503201f 	nop
   80ff0:	d503201f 	nop
   80ff4:	d503201f 	nop
   80ff8:	d503201f 	nop
   80ffc:	d503201f 	nop

0000000000081000 <exception_table>:
   81000:	17fffe00 	b	80800 <_dummy_exc_handler>
   81004:	d503201f 	nop
   81008:	d503201f 	nop
   8100c:	d503201f 	nop
   81010:	d503201f 	nop
   81014:	d503201f 	nop
   81018:	d503201f 	nop
   8101c:	d503201f 	nop
   81020:	d503201f 	nop
   81024:	d503201f 	nop
   81028:	d503201f 	nop
   8102c:	d503201f 	nop
   81030:	d503201f 	nop
   81034:	d503201f 	nop
   81038:	d503201f 	nop
   8103c:	d503201f 	nop
   81040:	d503201f 	nop
   81044:	d503201f 	nop
   81048:	d503201f 	nop
   8104c:	d503201f 	nop
   81050:	d503201f 	nop
   81054:	d503201f 	nop
   81058:	d503201f 	nop
   8105c:	d503201f 	nop
   81060:	d503201f 	nop
   81064:	d503201f 	nop
   81068:	d503201f 	nop
   8106c:	d503201f 	nop
   81070:	d503201f 	nop
   81074:	d503201f 	nop
   81078:	d503201f 	nop
   8107c:	d503201f 	nop
   81080:	17fffde0 	b	80800 <_dummy_exc_handler>
   81084:	d503201f 	nop
   81088:	d503201f 	nop
   8108c:	d503201f 	nop
   81090:	d503201f 	nop
   81094:	d503201f 	nop
   81098:	d503201f 	nop
   8109c:	d503201f 	nop
   810a0:	d503201f 	nop
   810a4:	d503201f 	nop
   810a8:	d503201f 	nop
   810ac:	d503201f 	nop
   810b0:	d503201f 	nop
   810b4:	d503201f 	nop
   810b8:	d503201f 	nop
   810bc:	d503201f 	nop
   810c0:	d503201f 	nop
   810c4:	d503201f 	nop
   810c8:	d503201f 	nop
   810cc:	d503201f 	nop
   810d0:	d503201f 	nop
   810d4:	d503201f 	nop
   810d8:	d503201f 	nop
   810dc:	d503201f 	nop
   810e0:	d503201f 	nop
   810e4:	d503201f 	nop
   810e8:	d503201f 	nop
   810ec:	d503201f 	nop
   810f0:	d503201f 	nop
   810f4:	d503201f 	nop
   810f8:	d503201f 	nop
   810fc:	d503201f 	nop
   81100:	17fffdc0 	b	80800 <_dummy_exc_handler>
   81104:	d503201f 	nop
   81108:	d503201f 	nop
   8110c:	d503201f 	nop
   81110:	d503201f 	nop
   81114:	d503201f 	nop
   81118:	d503201f 	nop
   8111c:	d503201f 	nop
   81120:	d503201f 	nop
   81124:	d503201f 	nop
   81128:	d503201f 	nop
   8112c:	d503201f 	nop
   81130:	d503201f 	nop
   81134:	d503201f 	nop
   81138:	d503201f 	nop
   8113c:	d503201f 	nop
   81140:	d503201f 	nop
   81144:	d503201f 	nop
   81148:	d503201f 	nop
   8114c:	d503201f 	nop
   81150:	d503201f 	nop
   81154:	d503201f 	nop
   81158:	d503201f 	nop
   8115c:	d503201f 	nop
   81160:	d503201f 	nop
   81164:	d503201f 	nop
   81168:	d503201f 	nop
   8116c:	d503201f 	nop
   81170:	d503201f 	nop
   81174:	d503201f 	nop
   81178:	d503201f 	nop
   8117c:	d503201f 	nop
   81180:	17fffda0 	b	80800 <_dummy_exc_handler>
   81184:	d503201f 	nop
   81188:	d503201f 	nop
   8118c:	d503201f 	nop
   81190:	d503201f 	nop
   81194:	d503201f 	nop
   81198:	d503201f 	nop
   8119c:	d503201f 	nop
   811a0:	d503201f 	nop
   811a4:	d503201f 	nop
   811a8:	d503201f 	nop
   811ac:	d503201f 	nop
   811b0:	d503201f 	nop
   811b4:	d503201f 	nop
   811b8:	d503201f 	nop
   811bc:	d503201f 	nop
   811c0:	d503201f 	nop
   811c4:	d503201f 	nop
   811c8:	d503201f 	nop
   811cc:	d503201f 	nop
   811d0:	d503201f 	nop
   811d4:	d503201f 	nop
   811d8:	d503201f 	nop
   811dc:	d503201f 	nop
   811e0:	d503201f 	nop
   811e4:	d503201f 	nop
   811e8:	d503201f 	nop
   811ec:	d503201f 	nop
   811f0:	d503201f 	nop
   811f4:	d503201f 	nop
   811f8:	d503201f 	nop
   811fc:	d503201f 	nop
   81200:	17fffd82 	b	80808 <_SYNC_handler>
   81204:	d503201f 	nop
   81208:	d503201f 	nop
   8120c:	d503201f 	nop
   81210:	d503201f 	nop
   81214:	d503201f 	nop
   81218:	d503201f 	nop
   8121c:	d503201f 	nop
   81220:	d503201f 	nop
   81224:	d503201f 	nop
   81228:	d503201f 	nop
   8122c:	d503201f 	nop
   81230:	d503201f 	nop
   81234:	d503201f 	nop
   81238:	d503201f 	nop
   8123c:	d503201f 	nop
   81240:	d503201f 	nop
   81244:	d503201f 	nop
   81248:	d503201f 	nop
   8124c:	d503201f 	nop
   81250:	d503201f 	nop
   81254:	d503201f 	nop
   81258:	d503201f 	nop
   8125c:	d503201f 	nop
   81260:	d503201f 	nop
   81264:	d503201f 	nop
   81268:	d503201f 	nop
   8126c:	d503201f 	nop
   81270:	d503201f 	nop
   81274:	d503201f 	nop
   81278:	d503201f 	nop
   8127c:	d503201f 	nop
   81280:	17fffd87 	b	8089c <_IRQ_handler>
   81284:	d503201f 	nop
   81288:	d503201f 	nop
   8128c:	d503201f 	nop
   81290:	d503201f 	nop
   81294:	d503201f 	nop
   81298:	d503201f 	nop
   8129c:	d503201f 	nop
   812a0:	d503201f 	nop
   812a4:	d503201f 	nop
   812a8:	d503201f 	nop
   812ac:	d503201f 	nop
   812b0:	d503201f 	nop
   812b4:	d503201f 	nop
   812b8:	d503201f 	nop
   812bc:	d503201f 	nop
   812c0:	d503201f 	nop
   812c4:	d503201f 	nop
   812c8:	d503201f 	nop
   812cc:	d503201f 	nop
   812d0:	d503201f 	nop
   812d4:	d503201f 	nop
   812d8:	d503201f 	nop
   812dc:	d503201f 	nop
   812e0:	d503201f 	nop
   812e4:	d503201f 	nop
   812e8:	d503201f 	nop
   812ec:	d503201f 	nop
   812f0:	d503201f 	nop
   812f4:	d503201f 	nop
   812f8:	d503201f 	nop
   812fc:	d503201f 	nop
   81300:	17fffd89 	b	80924 <_FIQ_handler>
   81304:	d503201f 	nop
   81308:	d503201f 	nop
   8130c:	d503201f 	nop
   81310:	d503201f 	nop
   81314:	d503201f 	nop
   81318:	d503201f 	nop
   8131c:	d503201f 	nop
   81320:	d503201f 	nop
   81324:	d503201f 	nop
   81328:	d503201f 	nop
   8132c:	d503201f 	nop
   81330:	d503201f 	nop
   81334:	d503201f 	nop
   81338:	d503201f 	nop
   8133c:	d503201f 	nop
   81340:	d503201f 	nop
   81344:	d503201f 	nop
   81348:	d503201f 	nop
   8134c:	d503201f 	nop
   81350:	d503201f 	nop
   81354:	d503201f 	nop
   81358:	d503201f 	nop
   8135c:	d503201f 	nop
   81360:	d503201f 	nop
   81364:	d503201f 	nop
   81368:	d503201f 	nop
   8136c:	d503201f 	nop
   81370:	d503201f 	nop
   81374:	d503201f 	nop
   81378:	d503201f 	nop
   8137c:	d503201f 	nop
   81380:	17fffd8a 	b	809a8 <_SErr_handler>
   81384:	d503201f 	nop
   81388:	d503201f 	nop
   8138c:	d503201f 	nop
   81390:	d503201f 	nop
   81394:	d503201f 	nop
   81398:	d503201f 	nop
   8139c:	d503201f 	nop
   813a0:	d503201f 	nop
   813a4:	d503201f 	nop
   813a8:	d503201f 	nop
   813ac:	d503201f 	nop
   813b0:	d503201f 	nop
   813b4:	d503201f 	nop
   813b8:	d503201f 	nop
   813bc:	d503201f 	nop
   813c0:	d503201f 	nop
   813c4:	d503201f 	nop
   813c8:	d503201f 	nop
   813cc:	d503201f 	nop
   813d0:	d503201f 	nop
   813d4:	d503201f 	nop
   813d8:	d503201f 	nop
   813dc:	d503201f 	nop
   813e0:	d503201f 	nop
   813e4:	d503201f 	nop
   813e8:	d503201f 	nop
   813ec:	d503201f 	nop
   813f0:	d503201f 	nop
   813f4:	d503201f 	nop
   813f8:	d503201f 	nop
   813fc:	d503201f 	nop
   81400:	17fffd02 	b	80808 <_SYNC_handler>
   81404:	d503201f 	nop
   81408:	d503201f 	nop
   8140c:	d503201f 	nop
   81410:	d503201f 	nop
   81414:	d503201f 	nop
   81418:	d503201f 	nop
   8141c:	d503201f 	nop
   81420:	d503201f 	nop
   81424:	d503201f 	nop
   81428:	d503201f 	nop
   8142c:	d503201f 	nop
   81430:	d503201f 	nop
   81434:	d503201f 	nop
   81438:	d503201f 	nop
   8143c:	d503201f 	nop
   81440:	d503201f 	nop
   81444:	d503201f 	nop
   81448:	d503201f 	nop
   8144c:	d503201f 	nop
   81450:	d503201f 	nop
   81454:	d503201f 	nop
   81458:	d503201f 	nop
   8145c:	d503201f 	nop
   81460:	d503201f 	nop
   81464:	d503201f 	nop
   81468:	d503201f 	nop
   8146c:	d503201f 	nop
   81470:	d503201f 	nop
   81474:	d503201f 	nop
   81478:	d503201f 	nop
   8147c:	d503201f 	nop
   81480:	17fffd07 	b	8089c <_IRQ_handler>
   81484:	d503201f 	nop
   81488:	d503201f 	nop
   8148c:	d503201f 	nop
   81490:	d503201f 	nop
   81494:	d503201f 	nop
   81498:	d503201f 	nop
   8149c:	d503201f 	nop
   814a0:	d503201f 	nop
   814a4:	d503201f 	nop
   814a8:	d503201f 	nop
   814ac:	d503201f 	nop
   814b0:	d503201f 	nop
   814b4:	d503201f 	nop
   814b8:	d503201f 	nop
   814bc:	d503201f 	nop
   814c0:	d503201f 	nop
   814c4:	d503201f 	nop
   814c8:	d503201f 	nop
   814cc:	d503201f 	nop
   814d0:	d503201f 	nop
   814d4:	d503201f 	nop
   814d8:	d503201f 	nop
   814dc:	d503201f 	nop
   814e0:	d503201f 	nop
   814e4:	d503201f 	nop
   814e8:	d503201f 	nop
   814ec:	d503201f 	nop
   814f0:	d503201f 	nop
   814f4:	d503201f 	nop
   814f8:	d503201f 	nop
   814fc:	d503201f 	nop
   81500:	17fffcc0 	b	80800 <_dummy_exc_handler>
   81504:	d503201f 	nop
   81508:	d503201f 	nop
   8150c:	d503201f 	nop
   81510:	d503201f 	nop
   81514:	d503201f 	nop
   81518:	d503201f 	nop
   8151c:	d503201f 	nop
   81520:	d503201f 	nop
   81524:	d503201f 	nop
   81528:	d503201f 	nop
   8152c:	d503201f 	nop
   81530:	d503201f 	nop
   81534:	d503201f 	nop
   81538:	d503201f 	nop
   8153c:	d503201f 	nop
   81540:	d503201f 	nop
   81544:	d503201f 	nop
   81548:	d503201f 	nop
   8154c:	d503201f 	nop
   81550:	d503201f 	nop
   81554:	d503201f 	nop
   81558:	d503201f 	nop
   8155c:	d503201f 	nop
   81560:	d503201f 	nop
   81564:	d503201f 	nop
   81568:	d503201f 	nop
   8156c:	d503201f 	nop
   81570:	d503201f 	nop
   81574:	d503201f 	nop
   81578:	d503201f 	nop
   8157c:	d503201f 	nop
   81580:	17fffca0 	b	80800 <_dummy_exc_handler>
   81584:	d503201f 	nop
   81588:	d503201f 	nop
   8158c:	d503201f 	nop
   81590:	d503201f 	nop
   81594:	d503201f 	nop
   81598:	d503201f 	nop
   8159c:	d503201f 	nop
   815a0:	d503201f 	nop
   815a4:	d503201f 	nop
   815a8:	d503201f 	nop
   815ac:	d503201f 	nop
   815b0:	d503201f 	nop
   815b4:	d503201f 	nop
   815b8:	d503201f 	nop
   815bc:	d503201f 	nop
   815c0:	d503201f 	nop
   815c4:	d503201f 	nop
   815c8:	d503201f 	nop
   815cc:	d503201f 	nop
   815d0:	d503201f 	nop
   815d4:	d503201f 	nop
   815d8:	d503201f 	nop
   815dc:	d503201f 	nop
   815e0:	d503201f 	nop
   815e4:	d503201f 	nop
   815e8:	d503201f 	nop
   815ec:	d503201f 	nop
   815f0:	d503201f 	nop
   815f4:	d503201f 	nop
   815f8:	d503201f 	nop
   815fc:	d503201f 	nop
   81600:	17fffc80 	b	80800 <_dummy_exc_handler>
   81604:	d503201f 	nop
   81608:	d503201f 	nop
   8160c:	d503201f 	nop
   81610:	d503201f 	nop
   81614:	d503201f 	nop
   81618:	d503201f 	nop
   8161c:	d503201f 	nop
   81620:	d503201f 	nop
   81624:	d503201f 	nop
   81628:	d503201f 	nop
   8162c:	d503201f 	nop
   81630:	d503201f 	nop
   81634:	d503201f 	nop
   81638:	d503201f 	nop
   8163c:	d503201f 	nop
   81640:	d503201f 	nop
   81644:	d503201f 	nop
   81648:	d503201f 	nop
   8164c:	d503201f 	nop
   81650:	d503201f 	nop
   81654:	d503201f 	nop
   81658:	d503201f 	nop
   8165c:	d503201f 	nop
   81660:	d503201f 	nop
   81664:	d503201f 	nop
   81668:	d503201f 	nop
   8166c:	d503201f 	nop
   81670:	d503201f 	nop
   81674:	d503201f 	nop
   81678:	d503201f 	nop
   8167c:	d503201f 	nop
   81680:	17fffc60 	b	80800 <_dummy_exc_handler>
   81684:	d503201f 	nop
   81688:	d503201f 	nop
   8168c:	d503201f 	nop
   81690:	d503201f 	nop
   81694:	d503201f 	nop
   81698:	d503201f 	nop
   8169c:	d503201f 	nop
   816a0:	d503201f 	nop
   816a4:	d503201f 	nop
   816a8:	d503201f 	nop
   816ac:	d503201f 	nop
   816b0:	d503201f 	nop
   816b4:	d503201f 	nop
   816b8:	d503201f 	nop
   816bc:	d503201f 	nop
   816c0:	d503201f 	nop
   816c4:	d503201f 	nop
   816c8:	d503201f 	nop
   816cc:	d503201f 	nop
   816d0:	d503201f 	nop
   816d4:	d503201f 	nop
   816d8:	d503201f 	nop
   816dc:	d503201f 	nop
   816e0:	d503201f 	nop
   816e4:	d503201f 	nop
   816e8:	d503201f 	nop
   816ec:	d503201f 	nop
   816f0:	d503201f 	nop
   816f4:	d503201f 	nop
   816f8:	d503201f 	nop
   816fc:	d503201f 	nop
   81700:	17fffc40 	b	80800 <_dummy_exc_handler>
   81704:	d503201f 	nop
   81708:	d503201f 	nop
   8170c:	d503201f 	nop
   81710:	d503201f 	nop
   81714:	d503201f 	nop
   81718:	d503201f 	nop
   8171c:	d503201f 	nop
   81720:	d503201f 	nop
   81724:	d503201f 	nop
   81728:	d503201f 	nop
   8172c:	d503201f 	nop
   81730:	d503201f 	nop
   81734:	d503201f 	nop
   81738:	d503201f 	nop
   8173c:	d503201f 	nop
   81740:	d503201f 	nop
   81744:	d503201f 	nop
   81748:	d503201f 	nop
   8174c:	d503201f 	nop
   81750:	d503201f 	nop
   81754:	d503201f 	nop
   81758:	d503201f 	nop
   8175c:	d503201f 	nop
   81760:	d503201f 	nop
   81764:	d503201f 	nop
   81768:	d503201f 	nop
   8176c:	d503201f 	nop
   81770:	d503201f 	nop
   81774:	d503201f 	nop
   81778:	d503201f 	nop
   8177c:	d503201f 	nop
   81780:	17fffc20 	b	80800 <_dummy_exc_handler>

0000000000081784 <memset>:
   81784:	d10043ff 	sub	sp, sp, #0x10
   81788:	f90007e0 	str	x0, [sp, #8]
   8178c:	b90007e1 	str	w1, [sp, #4]
   81790:	b90003e2 	str	w2, [sp]
   81794:	14000007 	b	817b0 <memset+0x2c>
   81798:	f94007e0 	ldr	x0, [sp, #8]
   8179c:	b94007e1 	ldr	w1, [sp, #4]
   817a0:	b9000001 	str	w1, [x0]
   817a4:	f94007e0 	ldr	x0, [sp, #8]
   817a8:	91001000 	add	x0, x0, #0x4
   817ac:	f90007e0 	str	x0, [sp, #8]
   817b0:	b94003e0 	ldr	w0, [sp]
   817b4:	51000401 	sub	w1, w0, #0x1
   817b8:	b90003e1 	str	w1, [sp]
   817bc:	7100001f 	cmp	w0, #0x0
   817c0:	54fffec1 	b.ne	81798 <memset+0x14>  // b.any
   817c4:	d503201f 	nop
   817c8:	d503201f 	nop
   817cc:	910043ff 	add	sp, sp, #0x10
   817d0:	d65f03c0 	ret

00000000000817d4 <strcmp>:
   817d4:	d10043ff 	sub	sp, sp, #0x10
   817d8:	f90007e0 	str	x0, [sp, #8]
   817dc:	f90003e1 	str	x1, [sp]
   817e0:	1400001b 	b	8184c <strcmp+0x78>
   817e4:	f94007e0 	ldr	x0, [sp, #8]
   817e8:	39400001 	ldrb	w1, [x0]
   817ec:	f94003e0 	ldr	x0, [sp]
   817f0:	39400000 	ldrb	w0, [x0]
   817f4:	6b00003f 	cmp	w1, w0
   817f8:	54000101 	b.ne	81818 <strcmp+0x44>  // b.any
   817fc:	f94007e0 	ldr	x0, [sp, #8]
   81800:	91000400 	add	x0, x0, #0x1
   81804:	f90007e0 	str	x0, [sp, #8]
   81808:	f94003e0 	ldr	x0, [sp]
   8180c:	91000400 	add	x0, x0, #0x1
   81810:	f90003e0 	str	x0, [sp]
   81814:	1400000e 	b	8184c <strcmp+0x78>
   81818:	f94007e0 	ldr	x0, [sp, #8]
   8181c:	39400001 	ldrb	w1, [x0]
   81820:	f94003e0 	ldr	x0, [sp]
   81824:	39400000 	ldrb	w0, [x0]
   81828:	6b00003f 	cmp	w1, w0
   8182c:	54000100 	b.eq	8184c <strcmp+0x78>  // b.none
   81830:	f94003e0 	ldr	x0, [sp]
   81834:	39400000 	ldrb	w0, [x0]
   81838:	2a0003e1 	mov	w1, w0
   8183c:	f94007e0 	ldr	x0, [sp, #8]
   81840:	39400000 	ldrb	w0, [x0]
   81844:	4b000020 	sub	w0, w1, w0
   81848:	1400000a 	b	81870 <strcmp+0x9c>
   8184c:	f94007e0 	ldr	x0, [sp, #8]
   81850:	39400000 	ldrb	w0, [x0]
   81854:	7100001f 	cmp	w0, #0x0
   81858:	54fffc61 	b.ne	817e4 <strcmp+0x10>  // b.any
   8185c:	f94003e0 	ldr	x0, [sp]
   81860:	39400000 	ldrb	w0, [x0]
   81864:	7100001f 	cmp	w0, #0x0
   81868:	54fffbe1 	b.ne	817e4 <strcmp+0x10>  // b.any
   8186c:	52800000 	mov	w0, #0x0                   	// #0
   81870:	910043ff 	add	sp, sp, #0x10
   81874:	d65f03c0 	ret

0000000000081878 <strlen>:
   81878:	d10083ff 	sub	sp, sp, #0x20
   8187c:	f90007e0 	str	x0, [sp, #8]
   81880:	b9001fff 	str	wzr, [sp, #28]
   81884:	14000004 	b	81894 <strlen+0x1c>
   81888:	b9401fe0 	ldr	w0, [sp, #28]
   8188c:	11000400 	add	w0, w0, #0x1
   81890:	b9001fe0 	str	w0, [sp, #28]
   81894:	b9801fe0 	ldrsw	x0, [sp, #28]
   81898:	f94007e1 	ldr	x1, [sp, #8]
   8189c:	8b000020 	add	x0, x1, x0
   818a0:	39400000 	ldrb	w0, [x0]
   818a4:	7100001f 	cmp	w0, #0x0
   818a8:	54ffff01 	b.ne	81888 <strlen+0x10>  // b.any
   818ac:	b9401fe0 	ldr	w0, [sp, #28]
   818b0:	51000400 	sub	w0, w0, #0x1
   818b4:	910083ff 	add	sp, sp, #0x20
   818b8:	d65f03c0 	ret

00000000000818bc <uart0_init>:
   818bc:	a9be7bfd 	stp	x29, x30, [sp, #-32]!
   818c0:	910003fd 	mov	x29, sp
   818c4:	9400027a 	bl	822ac <get_uart0_clk_state>
   818c8:	940002ab 	bl	82374 <get_uart0_clk_rate>
   818cc:	d2800080 	mov	x0, #0x4                   	// #4
   818d0:	f2a7e400 	movk	x0, #0x3f20, lsl #16
   818d4:	b9400000 	ldr	w0, [x0]
   818d8:	b9001fe0 	str	w0, [sp, #28]
   818dc:	b9401fe0 	ldr	w0, [sp, #28]
   818e0:	120e6400 	and	w0, w0, #0xfffc0fff
   818e4:	b9001fe0 	str	w0, [sp, #28]
   818e8:	b9401fe1 	ldr	w1, [sp, #28]
   818ec:	52880000 	mov	w0, #0x4000                	// #16384
   818f0:	72a00040 	movk	w0, #0x2, lsl #16
   818f4:	2a000020 	orr	w0, w1, w0
   818f8:	b9001fe0 	str	w0, [sp, #28]
   818fc:	d2800080 	mov	x0, #0x4                   	// #4
   81900:	f2a7e400 	movk	x0, #0x3f20, lsl #16
   81904:	b9401fe1 	ldr	w1, [sp, #28]
   81908:	b9000001 	str	w1, [x0]
   8190c:	d2801280 	mov	x0, #0x94                  	// #148
   81910:	f2a7e400 	movk	x0, #0x3f20, lsl #16
   81914:	b900001f 	str	wzr, [x0]
   81918:	528012c0 	mov	w0, #0x96                  	// #150
   8191c:	b9001fe0 	str	w0, [sp, #28]
   81920:	14000002 	b	81928 <uart0_init+0x6c>
   81924:	d503201f 	nop
   81928:	b9401fe0 	ldr	w0, [sp, #28]
   8192c:	51000401 	sub	w1, w0, #0x1
   81930:	b9001fe1 	str	w1, [sp, #28]
   81934:	7100001f 	cmp	w0, #0x0
   81938:	54ffff61 	b.ne	81924 <uart0_init+0x68>  // b.any
   8193c:	d2801300 	mov	x0, #0x98                  	// #152
   81940:	f2a7e400 	movk	x0, #0x3f20, lsl #16
   81944:	52980001 	mov	w1, #0xc000                	// #49152
   81948:	b9000001 	str	w1, [x0]
   8194c:	528012c0 	mov	w0, #0x96                  	// #150
   81950:	b9001fe0 	str	w0, [sp, #28]
   81954:	14000002 	b	8195c <uart0_init+0xa0>
   81958:	d503201f 	nop
   8195c:	b9401fe0 	ldr	w0, [sp, #28]
   81960:	51000401 	sub	w1, w0, #0x1
   81964:	b9001fe1 	str	w1, [sp, #28]
   81968:	7100001f 	cmp	w0, #0x0
   8196c:	54ffff61 	b.ne	81958 <uart0_init+0x9c>  // b.any
   81970:	d2801300 	mov	x0, #0x98                  	// #152
   81974:	f2a7e400 	movk	x0, #0x3f20, lsl #16
   81978:	b900001f 	str	wzr, [x0]
   8197c:	d2820600 	mov	x0, #0x1030                	// #4144
   81980:	f2a7e400 	movk	x0, #0x3f20, lsl #16
   81984:	b900001f 	str	wzr, [x0]
   81988:	d2820480 	mov	x0, #0x1024                	// #4132
   8198c:	f2a7e400 	movk	x0, #0x3f20, lsl #16
   81990:	52800021 	mov	w1, #0x1                   	// #1
   81994:	b9000001 	str	w1, [x0]
   81998:	d2820500 	mov	x0, #0x1028                	// #4136
   8199c:	f2a7e400 	movk	x0, #0x3f20, lsl #16
   819a0:	528007c1 	mov	w1, #0x3e                  	// #62
   819a4:	b9000001 	str	w1, [x0]
   819a8:	d2820580 	mov	x0, #0x102c                	// #4140
   819ac:	f2a7e400 	movk	x0, #0x3f20, lsl #16
   819b0:	52800c01 	mov	w1, #0x60                  	// #96
   819b4:	b9000001 	str	w1, [x0]
   819b8:	d2820600 	mov	x0, #0x1030                	// #4144
   819bc:	f2a7e400 	movk	x0, #0x3f20, lsl #16
   819c0:	52806021 	mov	w1, #0x301                 	// #769
   819c4:	b9000001 	str	w1, [x0]
   819c8:	d503201f 	nop
   819cc:	a8c27bfd 	ldp	x29, x30, [sp], #32
   819d0:	d65f03c0 	ret

00000000000819d4 <uart0_send>:
   819d4:	d10043ff 	sub	sp, sp, #0x10
   819d8:	39003fe0 	strb	w0, [sp, #15]
   819dc:	d503201f 	nop
   819e0:	d2820300 	mov	x0, #0x1018                	// #4120
   819e4:	f2a7e400 	movk	x0, #0x3f20, lsl #16
   819e8:	b9400000 	ldr	w0, [x0]
   819ec:	121b0000 	and	w0, w0, #0x20
   819f0:	7100001f 	cmp	w0, #0x0
   819f4:	54ffff61 	b.ne	819e0 <uart0_send+0xc>  // b.any
   819f8:	d2820000 	mov	x0, #0x1000                	// #4096
   819fc:	f2a7e400 	movk	x0, #0x3f20, lsl #16
   81a00:	39403fe1 	ldrb	w1, [sp, #15]
   81a04:	b9000001 	str	w1, [x0]
   81a08:	d503201f 	nop
   81a0c:	910043ff 	add	sp, sp, #0x10
   81a10:	d65f03c0 	ret

0000000000081a14 <uart0_puts>:
   81a14:	a9be7bfd 	stp	x29, x30, [sp, #-32]!
   81a18:	910003fd 	mov	x29, sp
   81a1c:	f9000fe0 	str	x0, [sp, #24]
   81a20:	1400000c 	b	81a50 <uart0_puts+0x3c>
   81a24:	f9400fe0 	ldr	x0, [sp, #24]
   81a28:	39400000 	ldrb	w0, [x0]
   81a2c:	7100281f 	cmp	w0, #0xa
   81a30:	54000061 	b.ne	81a3c <uart0_puts+0x28>  // b.any
   81a34:	528001a0 	mov	w0, #0xd                   	// #13
   81a38:	97ffffe7 	bl	819d4 <uart0_send>
   81a3c:	f9400fe0 	ldr	x0, [sp, #24]
   81a40:	91000401 	add	x1, x0, #0x1
   81a44:	f9000fe1 	str	x1, [sp, #24]
   81a48:	39400000 	ldrb	w0, [x0]
   81a4c:	97ffffe2 	bl	819d4 <uart0_send>
   81a50:	f9400fe0 	ldr	x0, [sp, #24]
   81a54:	39400000 	ldrb	w0, [x0]
   81a58:	7100001f 	cmp	w0, #0x0
   81a5c:	54fffe41 	b.ne	81a24 <uart0_puts+0x10>  // b.any
   81a60:	d503201f 	nop
   81a64:	d503201f 	nop
   81a68:	a8c27bfd 	ldp	x29, x30, [sp], #32
   81a6c:	d65f03c0 	ret

0000000000081a70 <uart0_getc>:
   81a70:	d10043ff 	sub	sp, sp, #0x10
   81a74:	d503201f 	nop
   81a78:	d2820300 	mov	x0, #0x1018                	// #4120
   81a7c:	f2a7e400 	movk	x0, #0x3f20, lsl #16
   81a80:	b9400000 	ldr	w0, [x0]
   81a84:	121c0000 	and	w0, w0, #0x10
   81a88:	7100001f 	cmp	w0, #0x0
   81a8c:	54ffff40 	b.eq	81a74 <uart0_getc+0x4>  // b.none
   81a90:	d2820000 	mov	x0, #0x1000                	// #4096
   81a94:	f2a7e400 	movk	x0, #0x3f20, lsl #16
   81a98:	b9400000 	ldr	w0, [x0]
   81a9c:	39003fe0 	strb	w0, [sp, #15]
   81aa0:	39403fe0 	ldrb	w0, [sp, #15]
   81aa4:	7100341f 	cmp	w0, #0xd
   81aa8:	54000060 	b.eq	81ab4 <uart0_getc+0x44>  // b.none
   81aac:	39403fe0 	ldrb	w0, [sp, #15]
   81ab0:	14000002 	b	81ab8 <uart0_getc+0x48>
   81ab4:	52800140 	mov	w0, #0xa                   	// #10
   81ab8:	910043ff 	add	sp, sp, #0x10
   81abc:	d65f03c0 	ret

0000000000081ac0 <uart1_init>:
   81ac0:	d28a0080 	mov	x0, #0x5004                	// #20484
   81ac4:	f2a7e420 	movk	x0, #0x3f21, lsl #16
   81ac8:	52800021 	mov	w1, #0x1                   	// #1
   81acc:	b9000001 	str	w1, [x0]
   81ad0:	d28a0c00 	mov	x0, #0x5060                	// #20576
   81ad4:	f2a7e420 	movk	x0, #0x3f21, lsl #16
   81ad8:	b900001f 	str	wzr, [x0]
   81adc:	d28a0880 	mov	x0, #0x5044                	// #20548
   81ae0:	f2a7e420 	movk	x0, #0x3f21, lsl #16
   81ae4:	b900001f 	str	wzr, [x0]
   81ae8:	d28a0980 	mov	x0, #0x504c                	// #20556
   81aec:	f2a7e420 	movk	x0, #0x3f21, lsl #16
   81af0:	52800061 	mov	w1, #0x3                   	// #3
   81af4:	b9000001 	str	w1, [x0]
   81af8:	d28a0a00 	mov	x0, #0x5050                	// #20560
   81afc:	f2a7e420 	movk	x0, #0x3f21, lsl #16
   81b00:	b900001f 	str	wzr, [x0]
   81b04:	d28a0d00 	mov	x0, #0x5068                	// #20584
   81b08:	f2a7e420 	movk	x0, #0x3f21, lsl #16
   81b0c:	528021c1 	mov	w1, #0x10e                 	// #270
   81b10:	b9000001 	str	w1, [x0]
   81b14:	d28a0900 	mov	x0, #0x5048                	// #20552
   81b18:	f2a7e420 	movk	x0, #0x3f21, lsl #16
   81b1c:	528000c1 	mov	w1, #0x6                   	// #6
   81b20:	b9000001 	str	w1, [x0]
   81b24:	d28a0c00 	mov	x0, #0x5060                	// #20576
   81b28:	f2a7e420 	movk	x0, #0x3f21, lsl #16
   81b2c:	b9400001 	ldr	w1, [x0]
   81b30:	d28a0c00 	mov	x0, #0x5060                	// #20576
   81b34:	f2a7e420 	movk	x0, #0x3f21, lsl #16
   81b38:	32000421 	orr	w1, w1, #0x3
   81b3c:	b9000001 	str	w1, [x0]
   81b40:	d503201f 	nop
   81b44:	d65f03c0 	ret

0000000000081b48 <uart1_send>:
   81b48:	d10043ff 	sub	sp, sp, #0x10
   81b4c:	39003fe0 	strb	w0, [sp, #15]
   81b50:	d503201f 	nop
   81b54:	d28a0a80 	mov	x0, #0x5054                	// #20564
   81b58:	f2a7e420 	movk	x0, #0x3f21, lsl #16
   81b5c:	b9400000 	ldr	w0, [x0]
   81b60:	121b0000 	and	w0, w0, #0x20
   81b64:	7100001f 	cmp	w0, #0x0
   81b68:	54ffff40 	b.eq	81b50 <uart1_send+0x8>  // b.none
   81b6c:	d28a0800 	mov	x0, #0x5040                	// #20544
   81b70:	f2a7e420 	movk	x0, #0x3f21, lsl #16
   81b74:	39403fe1 	ldrb	w1, [sp, #15]
   81b78:	b9000001 	str	w1, [x0]
   81b7c:	d503201f 	nop
   81b80:	910043ff 	add	sp, sp, #0x10
   81b84:	d65f03c0 	ret

0000000000081b88 <uart1_puts>:
   81b88:	a9be7bfd 	stp	x29, x30, [sp, #-32]!
   81b8c:	910003fd 	mov	x29, sp
   81b90:	f9000fe0 	str	x0, [sp, #24]
   81b94:	1400000c 	b	81bc4 <uart1_puts+0x3c>
   81b98:	f9400fe0 	ldr	x0, [sp, #24]
   81b9c:	39400000 	ldrb	w0, [x0]
   81ba0:	7100281f 	cmp	w0, #0xa
   81ba4:	54000061 	b.ne	81bb0 <uart1_puts+0x28>  // b.any
   81ba8:	528001a0 	mov	w0, #0xd                   	// #13
   81bac:	97ffffe7 	bl	81b48 <uart1_send>
   81bb0:	f9400fe0 	ldr	x0, [sp, #24]
   81bb4:	91000401 	add	x1, x0, #0x1
   81bb8:	f9000fe1 	str	x1, [sp, #24]
   81bbc:	39400000 	ldrb	w0, [x0]
   81bc0:	97ffffe2 	bl	81b48 <uart1_send>
   81bc4:	f9400fe0 	ldr	x0, [sp, #24]
   81bc8:	39400000 	ldrb	w0, [x0]
   81bcc:	7100001f 	cmp	w0, #0x0
   81bd0:	54fffe41 	b.ne	81b98 <uart1_puts+0x10>  // b.any
   81bd4:	d503201f 	nop
   81bd8:	d503201f 	nop
   81bdc:	a8c27bfd 	ldp	x29, x30, [sp], #32
   81be0:	d65f03c0 	ret

0000000000081be4 <uart1_getc>:
   81be4:	d10043ff 	sub	sp, sp, #0x10
   81be8:	d503201f 	nop
   81bec:	d28a0a80 	mov	x0, #0x5054                	// #20564
   81bf0:	f2a7e420 	movk	x0, #0x3f21, lsl #16
   81bf4:	b9400000 	ldr	w0, [x0]
   81bf8:	12000000 	and	w0, w0, #0x1
   81bfc:	7100001f 	cmp	w0, #0x0
   81c00:	54ffff40 	b.eq	81be8 <uart1_getc+0x4>  // b.none
   81c04:	d28a0800 	mov	x0, #0x5040                	// #20544
   81c08:	f2a7e420 	movk	x0, #0x3f21, lsl #16
   81c0c:	b9400000 	ldr	w0, [x0]
   81c10:	39003fe0 	strb	w0, [sp, #15]
   81c14:	39403fe0 	ldrb	w0, [sp, #15]
   81c18:	7100341f 	cmp	w0, #0xd
   81c1c:	54000060 	b.eq	81c28 <uart1_getc+0x44>  // b.none
   81c20:	39403fe0 	ldrb	w0, [sp, #15]
   81c24:	14000002 	b	81c2c <uart1_getc+0x48>
   81c28:	52800140 	mov	w0, #0xa                   	// #10
   81c2c:	910043ff 	add	sp, sp, #0x10
   81c30:	d65f03c0 	ret

0000000000081c34 <read_c>:
   81c34:	a9bf7bfd 	stp	x29, x30, [sp, #-16]!
   81c38:	910003fd 	mov	x29, sp
   81c3c:	97ffffea 	bl	81be4 <uart1_getc>
   81c40:	12001c00 	and	w0, w0, #0xff
   81c44:	a8c17bfd 	ldp	x29, x30, [sp], #16
   81c48:	d65f03c0 	ret

0000000000081c4c <print_c>:
   81c4c:	a9be7bfd 	stp	x29, x30, [sp, #-32]!
   81c50:	910003fd 	mov	x29, sp
   81c54:	39007fe0 	strb	w0, [sp, #31]
   81c58:	39407fe0 	ldrb	w0, [sp, #31]
   81c5c:	97ffffbb 	bl	81b48 <uart1_send>
   81c60:	d503201f 	nop
   81c64:	a8c27bfd 	ldp	x29, x30, [sp], #32
   81c68:	d65f03c0 	ret

0000000000081c6c <print_s>:
   81c6c:	a9be7bfd 	stp	x29, x30, [sp, #-32]!
   81c70:	910003fd 	mov	x29, sp
   81c74:	f9000fe0 	str	x0, [sp, #24]
   81c78:	f9400fe0 	ldr	x0, [sp, #24]
   81c7c:	97ffffc3 	bl	81b88 <uart1_puts>
   81c80:	d503201f 	nop
   81c84:	a8c27bfd 	ldp	x29, x30, [sp], #32
   81c88:	d65f03c0 	ret

0000000000081c8c <print_OK>:
   81c8c:	a9bf7bfd 	stp	x29, x30, [sp, #-16]!
   81c90:	910003fd 	mov	x29, sp
   81c94:	b0000000 	adrp	x0, 82000 <my_printf+0x16c>
   81c98:	913fc000 	add	x0, x0, #0xff0
   81c9c:	97ffffbb 	bl	81b88 <uart1_puts>
   81ca0:	d503201f 	nop
   81ca4:	a8c17bfd 	ldp	x29, x30, [sp], #16
   81ca8:	d65f03c0 	ret

0000000000081cac <print_i>:
   81cac:	a9bb7bfd 	stp	x29, x30, [sp, #-80]!
   81cb0:	910003fd 	mov	x29, sp
   81cb4:	b9001fe0 	str	w0, [sp, #28]
   81cb8:	b9004fff 	str	wzr, [sp, #76]
   81cbc:	b9004bff 	str	wzr, [sp, #72]
   81cc0:	a902ffff 	stp	xzr, xzr, [sp, #40]
   81cc4:	a903ffff 	stp	xzr, xzr, [sp, #56]
   81cc8:	b9401fe0 	ldr	w0, [sp, #28]
   81ccc:	7100001f 	cmp	w0, #0x0
   81cd0:	540004ca 	b.ge	81d68 <print_i+0xbc>  // b.tcont
   81cd4:	52800020 	mov	w0, #0x1                   	// #1
   81cd8:	b9004fe0 	str	w0, [sp, #76]
   81cdc:	b9401fe0 	ldr	w0, [sp, #28]
   81ce0:	4b0003e0 	neg	w0, w0
   81ce4:	b9001fe0 	str	w0, [sp, #28]
   81ce8:	14000020 	b	81d68 <print_i+0xbc>
   81cec:	b9401fe1 	ldr	w1, [sp, #28]
   81cf0:	528ccce0 	mov	w0, #0x6667                	// #26215
   81cf4:	72acccc0 	movk	w0, #0x6666, lsl #16
   81cf8:	9b207c20 	smull	x0, w1, w0
   81cfc:	d360fc00 	lsr	x0, x0, #32
   81d00:	13027c02 	asr	w2, w0, #2
   81d04:	131f7c20 	asr	w0, w1, #31
   81d08:	4b000042 	sub	w2, w2, w0
   81d0c:	2a0203e0 	mov	w0, w2
   81d10:	531e7400 	lsl	w0, w0, #2
   81d14:	0b020000 	add	w0, w0, w2
   81d18:	531f7800 	lsl	w0, w0, #1
   81d1c:	4b000022 	sub	w2, w1, w0
   81d20:	12001c41 	and	w1, w2, #0xff
   81d24:	b9404be0 	ldr	w0, [sp, #72]
   81d28:	11000402 	add	w2, w0, #0x1
   81d2c:	b9004be2 	str	w2, [sp, #72]
   81d30:	1100c021 	add	w1, w1, #0x30
   81d34:	12001c22 	and	w2, w1, #0xff
   81d38:	93407c00 	sxtw	x0, w0
   81d3c:	9100a3e1 	add	x1, sp, #0x28
   81d40:	38206822 	strb	w2, [x1, x0]
   81d44:	b9401fe0 	ldr	w0, [sp, #28]
   81d48:	528ccce1 	mov	w1, #0x6667                	// #26215
   81d4c:	72acccc1 	movk	w1, #0x6666, lsl #16
   81d50:	9b217c01 	smull	x1, w0, w1
   81d54:	d360fc21 	lsr	x1, x1, #32
   81d58:	13027c21 	asr	w1, w1, #2
   81d5c:	131f7c00 	asr	w0, w0, #31
   81d60:	4b000020 	sub	w0, w1, w0
   81d64:	b9001fe0 	str	w0, [sp, #28]
   81d68:	b9401fe0 	ldr	w0, [sp, #28]
   81d6c:	7100001f 	cmp	w0, #0x0
   81d70:	54fffbec 	b.gt	81cec <print_i+0x40>
   81d74:	b9404fe0 	ldr	w0, [sp, #76]
   81d78:	7100001f 	cmp	w0, #0x0
   81d7c:	54000200 	b.eq	81dbc <print_i+0x110>  // b.none
   81d80:	b9404be0 	ldr	w0, [sp, #72]
   81d84:	11000401 	add	w1, w0, #0x1
   81d88:	b9004be1 	str	w1, [sp, #72]
   81d8c:	93407c00 	sxtw	x0, w0
   81d90:	9100a3e1 	add	x1, sp, #0x28
   81d94:	528005a2 	mov	w2, #0x2d                  	// #45
   81d98:	38206822 	strb	w2, [x1, x0]
   81d9c:	14000008 	b	81dbc <print_i+0x110>
   81da0:	b9404be0 	ldr	w0, [sp, #72]
   81da4:	51000401 	sub	w1, w0, #0x1
   81da8:	b9004be1 	str	w1, [sp, #72]
   81dac:	93407c00 	sxtw	x0, w0
   81db0:	9100a3e1 	add	x1, sp, #0x28
   81db4:	38606820 	ldrb	w0, [x1, x0]
   81db8:	97ffffa5 	bl	81c4c <print_c>
   81dbc:	b9404be0 	ldr	w0, [sp, #72]
   81dc0:	7100001f 	cmp	w0, #0x0
   81dc4:	54fffeea 	b.ge	81da0 <print_i+0xf4>  // b.tcont
   81dc8:	d503201f 	nop
   81dcc:	d503201f 	nop
   81dd0:	a8c57bfd 	ldp	x29, x30, [sp], #80
   81dd4:	d65f03c0 	ret

0000000000081dd8 <print_x>:
   81dd8:	a9ba7bfd 	stp	x29, x30, [sp, #-96]!
   81ddc:	910003fd 	mov	x29, sp
   81de0:	b9001fe0 	str	w0, [sp, #28]
   81de4:	b0000000 	adrp	x0, 82000 <my_printf+0x16c>
   81de8:	913fe000 	add	x0, x0, #0xff8
   81dec:	910123e2 	add	x2, sp, #0x48
   81df0:	aa0003e3 	mov	x3, x0
   81df4:	a9400460 	ldp	x0, x1, [x3]
   81df8:	a9000440 	stp	x0, x1, [x2]
   81dfc:	39404060 	ldrb	w0, [x3, #16]
   81e00:	39004040 	strb	w0, [x2, #16]
   81e04:	b9005fff 	str	wzr, [sp, #92]
   81e08:	a902ffff 	stp	xzr, xzr, [sp, #40]
   81e0c:	a903ffff 	stp	xzr, xzr, [sp, #56]
   81e10:	1400000f 	b	81e4c <print_x+0x74>
   81e14:	b9401fe0 	ldr	w0, [sp, #28]
   81e18:	12000c02 	and	w2, w0, #0xf
   81e1c:	b9405fe0 	ldr	w0, [sp, #92]
   81e20:	11000401 	add	w1, w0, #0x1
   81e24:	b9005fe1 	str	w1, [sp, #92]
   81e28:	2a0203e1 	mov	w1, w2
   81e2c:	910123e2 	add	x2, sp, #0x48
   81e30:	38616842 	ldrb	w2, [x2, x1]
   81e34:	93407c00 	sxtw	x0, w0
   81e38:	9100a3e1 	add	x1, sp, #0x28
   81e3c:	38206822 	strb	w2, [x1, x0]
   81e40:	b9401fe0 	ldr	w0, [sp, #28]
   81e44:	53047c00 	lsr	w0, w0, #4
   81e48:	b9001fe0 	str	w0, [sp, #28]
   81e4c:	b9401fe0 	ldr	w0, [sp, #28]
   81e50:	7100001f 	cmp	w0, #0x0
   81e54:	54fffe01 	b.ne	81e14 <print_x+0x3c>  // b.any
   81e58:	14000008 	b	81e78 <print_x+0xa0>
   81e5c:	b9405fe0 	ldr	w0, [sp, #92]
   81e60:	51000401 	sub	w1, w0, #0x1
   81e64:	b9005fe1 	str	w1, [sp, #92]
   81e68:	93407c00 	sxtw	x0, w0
   81e6c:	9100a3e1 	add	x1, sp, #0x28
   81e70:	38606820 	ldrb	w0, [x1, x0]
   81e74:	97ffff76 	bl	81c4c <print_c>
   81e78:	b9405fe0 	ldr	w0, [sp, #92]
   81e7c:	7100001f 	cmp	w0, #0x0
   81e80:	54fffeea 	b.ge	81e5c <print_x+0x84>  // b.tcont
   81e84:	d503201f 	nop
   81e88:	d503201f 	nop
   81e8c:	a8c67bfd 	ldp	x29, x30, [sp], #96
   81e90:	d65f03c0 	ret

0000000000081e94 <my_printf>:
   81e94:	a9b07bfd 	stp	x29, x30, [sp, #-256]!
   81e98:	910003fd 	mov	x29, sp
   81e9c:	f9000fe0 	str	x0, [sp, #24]
   81ea0:	f90067e1 	str	x1, [sp, #200]
   81ea4:	f9006be2 	str	x2, [sp, #208]
   81ea8:	f9006fe3 	str	x3, [sp, #216]
   81eac:	f90073e4 	str	x4, [sp, #224]
   81eb0:	f90077e5 	str	x5, [sp, #232]
   81eb4:	f9007be6 	str	x6, [sp, #240]
   81eb8:	f9007fe7 	str	x7, [sp, #248]
   81ebc:	3d8013e0 	str	q0, [sp, #64]
   81ec0:	3d8017e1 	str	q1, [sp, #80]
   81ec4:	3d801be2 	str	q2, [sp, #96]
   81ec8:	3d801fe3 	str	q3, [sp, #112]
   81ecc:	3d8023e4 	str	q4, [sp, #128]
   81ed0:	3d8027e5 	str	q5, [sp, #144]
   81ed4:	3d802be6 	str	q6, [sp, #160]
   81ed8:	3d802fe7 	str	q7, [sp, #176]
   81edc:	910403e0 	add	x0, sp, #0x100
   81ee0:	f90013e0 	str	x0, [sp, #32]
   81ee4:	910403e0 	add	x0, sp, #0x100
   81ee8:	f90017e0 	str	x0, [sp, #40]
   81eec:	910303e0 	add	x0, sp, #0xc0
   81ef0:	f9001be0 	str	x0, [sp, #48]
   81ef4:	128006e0 	mov	w0, #0xffffffc8            	// #-56
   81ef8:	b9003be0 	str	w0, [sp, #56]
   81efc:	12800fe0 	mov	w0, #0xffffff80            	// #-128
   81f00:	b9003fe0 	str	w0, [sp, #60]
   81f04:	14000061 	b	82088 <my_printf+0x1f4>
   81f08:	f9400fe0 	ldr	x0, [sp, #24]
   81f0c:	39400000 	ldrb	w0, [x0]
   81f10:	7100941f 	cmp	w0, #0x25
   81f14:	54000ae1 	b.ne	82070 <my_printf+0x1dc>  // b.any
   81f18:	f9400fe0 	ldr	x0, [sp, #24]
   81f1c:	91000400 	add	x0, x0, #0x1
   81f20:	f9000fe0 	str	x0, [sp, #24]
   81f24:	f9400fe0 	ldr	x0, [sp, #24]
   81f28:	39400000 	ldrb	w0, [x0]
   81f2c:	7101e01f 	cmp	w0, #0x78
   81f30:	540006a0 	b.eq	82004 <my_printf+0x170>  // b.none
   81f34:	7101e01f 	cmp	w0, #0x78
   81f38:	5400094c 	b.gt	82060 <my_printf+0x1cc>
   81f3c:	7101901f 	cmp	w0, #0x64
   81f40:	54000340 	b.eq	81fa8 <my_printf+0x114>  // b.none
   81f44:	7101cc1f 	cmp	w0, #0x73
   81f48:	540008c1 	b.ne	82060 <my_printf+0x1cc>  // b.any
   81f4c:	b9403be1 	ldr	w1, [sp, #56]
   81f50:	f94013e0 	ldr	x0, [sp, #32]
   81f54:	7100003f 	cmp	w1, #0x0
   81f58:	540000ab 	b.lt	81f6c <my_printf+0xd8>  // b.tstop
   81f5c:	91003c01 	add	x1, x0, #0xf
   81f60:	927df021 	and	x1, x1, #0xfffffffffffffff8
   81f64:	f90013e1 	str	x1, [sp, #32]
   81f68:	1400000d 	b	81f9c <my_printf+0x108>
   81f6c:	11002022 	add	w2, w1, #0x8
   81f70:	b9003be2 	str	w2, [sp, #56]
   81f74:	b9403be2 	ldr	w2, [sp, #56]
   81f78:	7100005f 	cmp	w2, #0x0
   81f7c:	540000ad 	b.le	81f90 <my_printf+0xfc>
   81f80:	91003c01 	add	x1, x0, #0xf
   81f84:	927df021 	and	x1, x1, #0xfffffffffffffff8
   81f88:	f90013e1 	str	x1, [sp, #32]
   81f8c:	14000004 	b	81f9c <my_printf+0x108>
   81f90:	f94017e2 	ldr	x2, [sp, #40]
   81f94:	93407c20 	sxtw	x0, w1
   81f98:	8b000040 	add	x0, x2, x0
   81f9c:	f9400000 	ldr	x0, [x0]
   81fa0:	97ffff33 	bl	81c6c <print_s>
   81fa4:	1400002f 	b	82060 <my_printf+0x1cc>
   81fa8:	b9403be1 	ldr	w1, [sp, #56]
   81fac:	f94013e0 	ldr	x0, [sp, #32]
   81fb0:	7100003f 	cmp	w1, #0x0
   81fb4:	540000ab 	b.lt	81fc8 <my_printf+0x134>  // b.tstop
   81fb8:	91002c01 	add	x1, x0, #0xb
   81fbc:	927df021 	and	x1, x1, #0xfffffffffffffff8
   81fc0:	f90013e1 	str	x1, [sp, #32]
   81fc4:	1400000d 	b	81ff8 <my_printf+0x164>
   81fc8:	11002022 	add	w2, w1, #0x8
   81fcc:	b9003be2 	str	w2, [sp, #56]
   81fd0:	b9403be2 	ldr	w2, [sp, #56]
   81fd4:	7100005f 	cmp	w2, #0x0
   81fd8:	540000ad 	b.le	81fec <my_printf+0x158>
   81fdc:	91002c01 	add	x1, x0, #0xb
   81fe0:	927df021 	and	x1, x1, #0xfffffffffffffff8
   81fe4:	f90013e1 	str	x1, [sp, #32]
   81fe8:	14000004 	b	81ff8 <my_printf+0x164>
   81fec:	f94017e2 	ldr	x2, [sp, #40]
   81ff0:	93407c20 	sxtw	x0, w1
   81ff4:	8b000040 	add	x0, x2, x0
   81ff8:	b9400000 	ldr	w0, [x0]
   81ffc:	97ffff2c 	bl	81cac <print_i>
   82000:	14000018 	b	82060 <my_printf+0x1cc>
   82004:	b9403be1 	ldr	w1, [sp, #56]
   82008:	f94013e0 	ldr	x0, [sp, #32]
   8200c:	7100003f 	cmp	w1, #0x0
   82010:	540000ab 	b.lt	82024 <my_printf+0x190>  // b.tstop
   82014:	91002c01 	add	x1, x0, #0xb
   82018:	927df021 	and	x1, x1, #0xfffffffffffffff8
   8201c:	f90013e1 	str	x1, [sp, #32]
   82020:	1400000d 	b	82054 <my_printf+0x1c0>
   82024:	11002022 	add	w2, w1, #0x8
   82028:	b9003be2 	str	w2, [sp, #56]
   8202c:	b9403be2 	ldr	w2, [sp, #56]
   82030:	7100005f 	cmp	w2, #0x0
   82034:	540000ad 	b.le	82048 <my_printf+0x1b4>
   82038:	91002c01 	add	x1, x0, #0xb
   8203c:	927df021 	and	x1, x1, #0xfffffffffffffff8
   82040:	f90013e1 	str	x1, [sp, #32]
   82044:	14000004 	b	82054 <my_printf+0x1c0>
   82048:	f94017e2 	ldr	x2, [sp, #40]
   8204c:	93407c20 	sxtw	x0, w1
   82050:	8b000040 	add	x0, x2, x0
   82054:	b9400000 	ldr	w0, [x0]
   82058:	97ffff60 	bl	81dd8 <print_x>
   8205c:	d503201f 	nop
   82060:	f9400fe0 	ldr	x0, [sp, #24]
   82064:	91000400 	add	x0, x0, #0x1
   82068:	f9000fe0 	str	x0, [sp, #24]
   8206c:	14000007 	b	82088 <my_printf+0x1f4>
   82070:	f9400fe0 	ldr	x0, [sp, #24]
   82074:	39400000 	ldrb	w0, [x0]
   82078:	97fffef5 	bl	81c4c <print_c>
   8207c:	f9400fe0 	ldr	x0, [sp, #24]
   82080:	91000400 	add	x0, x0, #0x1
   82084:	f9000fe0 	str	x0, [sp, #24]
   82088:	f9400fe0 	ldr	x0, [sp, #24]
   8208c:	39400000 	ldrb	w0, [x0]
   82090:	7100001f 	cmp	w0, #0x0
   82094:	54fff3a1 	b.ne	81f08 <my_printf+0x74>  // b.any
   82098:	d503201f 	nop
   8209c:	d503201f 	nop
   820a0:	a8d07bfd 	ldp	x29, x30, [sp], #256
   820a4:	d65f03c0 	ret

00000000000820a8 <mailbox_call>:
   820a8:	d10083ff 	sub	sp, sp, #0x20
   820ac:	b9000fe0 	str	w0, [sp, #12]
   820b0:	b9400fe0 	ldr	w0, [sp, #12]
   820b4:	12000c01 	and	w1, w0, #0xf
   820b8:	f0000000 	adrp	x0, 85000 <mailbox>
   820bc:	91000000 	add	x0, x0, #0x0
   820c0:	121c6c00 	and	w0, w0, #0xfffffff0
   820c4:	2a000020 	orr	w0, w1, w0
   820c8:	b9001fe0 	str	w0, [sp, #28]
   820cc:	d503201f 	nop
   820d0:	d2971300 	mov	x0, #0xb898                	// #47256
   820d4:	f2a7e000 	movk	x0, #0x3f00, lsl #16
   820d8:	b9400000 	ldr	w0, [x0]
   820dc:	7100001f 	cmp	w0, #0x0
   820e0:	54ffff6b 	b.lt	820cc <mailbox_call+0x24>  // b.tstop
   820e4:	d2971400 	mov	x0, #0xb8a0                	// #47264
   820e8:	f2a7e000 	movk	x0, #0x3f00, lsl #16
   820ec:	b9401fe1 	ldr	w1, [sp, #28]
   820f0:	b9000001 	str	w1, [x0]
   820f4:	d503201f 	nop
   820f8:	d2971300 	mov	x0, #0xb898                	// #47256
   820fc:	f2a7e000 	movk	x0, #0x3f00, lsl #16
   82100:	b9400000 	ldr	w0, [x0]
   82104:	12020000 	and	w0, w0, #0x40000000
   82108:	7100001f 	cmp	w0, #0x0
   8210c:	54ffff41 	b.ne	820f4 <mailbox_call+0x4c>  // b.any
   82110:	d2971000 	mov	x0, #0xb880                	// #47232
   82114:	f2a7e000 	movk	x0, #0x3f00, lsl #16
   82118:	b9400000 	ldr	w0, [x0]
   8211c:	b9401fe1 	ldr	w1, [sp, #28]
   82120:	6b00003f 	cmp	w1, w0
   82124:	54fffe81 	b.ne	820f4 <mailbox_call+0x4c>  // b.any
   82128:	f0000000 	adrp	x0, 85000 <mailbox>
   8212c:	91000000 	add	x0, x0, #0x0
   82130:	b9400401 	ldr	w1, [x0, #4]
   82134:	52b00000 	mov	w0, #0x80000000            	// #-2147483648
   82138:	6b00003f 	cmp	w1, w0
   8213c:	1a9f17e0 	cset	w0, eq  // eq = none
   82140:	12001c00 	and	w0, w0, #0xff
   82144:	910083ff 	add	sp, sp, #0x20
   82148:	d65f03c0 	ret

000000000008214c <get_board_revision>:
   8214c:	a9bf7bfd 	stp	x29, x30, [sp, #-16]!
   82150:	910003fd 	mov	x29, sp
   82154:	f0000000 	adrp	x0, 85000 <mailbox>
   82158:	91000000 	add	x0, x0, #0x0
   8215c:	52800381 	mov	w1, #0x1c                  	// #28
   82160:	b9000001 	str	w1, [x0]
   82164:	f0000000 	adrp	x0, 85000 <mailbox>
   82168:	91000000 	add	x0, x0, #0x0
   8216c:	b900041f 	str	wzr, [x0, #4]
   82170:	f0000000 	adrp	x0, 85000 <mailbox>
   82174:	91000000 	add	x0, x0, #0x0
   82178:	52800041 	mov	w1, #0x2                   	// #2
   8217c:	72a00021 	movk	w1, #0x1, lsl #16
   82180:	b9000801 	str	w1, [x0, #8]
   82184:	f0000000 	adrp	x0, 85000 <mailbox>
   82188:	91000000 	add	x0, x0, #0x0
   8218c:	52800081 	mov	w1, #0x4                   	// #4
   82190:	b9000c01 	str	w1, [x0, #12]
   82194:	f0000000 	adrp	x0, 85000 <mailbox>
   82198:	91000000 	add	x0, x0, #0x0
   8219c:	b900101f 	str	wzr, [x0, #16]
   821a0:	f0000000 	adrp	x0, 85000 <mailbox>
   821a4:	91000000 	add	x0, x0, #0x0
   821a8:	b900141f 	str	wzr, [x0, #20]
   821ac:	f0000000 	adrp	x0, 85000 <mailbox>
   821b0:	91000000 	add	x0, x0, #0x0
   821b4:	b900181f 	str	wzr, [x0, #24]
   821b8:	52800100 	mov	w0, #0x8                   	// #8
   821bc:	97ffffbb 	bl	820a8 <mailbox_call>
   821c0:	f0000000 	adrp	x0, 85000 <mailbox>
   821c4:	91000000 	add	x0, x0, #0x0
   821c8:	b9401400 	ldr	w0, [x0, #20]
   821cc:	2a0003e1 	mov	w1, w0
   821d0:	b0000000 	adrp	x0, 83000 <main+0x128>
   821d4:	91004000 	add	x0, x0, #0x10
   821d8:	97ffff2f 	bl	81e94 <my_printf>
   821dc:	d503201f 	nop
   821e0:	a8c17bfd 	ldp	x29, x30, [sp], #16
   821e4:	d65f03c0 	ret

00000000000821e8 <get_vc_memory_addr>:
   821e8:	a9bf7bfd 	stp	x29, x30, [sp, #-16]!
   821ec:	910003fd 	mov	x29, sp
   821f0:	f0000000 	adrp	x0, 85000 <mailbox>
   821f4:	91000000 	add	x0, x0, #0x0
   821f8:	52800401 	mov	w1, #0x20                  	// #32
   821fc:	b9000001 	str	w1, [x0]
   82200:	f0000000 	adrp	x0, 85000 <mailbox>
   82204:	91000000 	add	x0, x0, #0x0
   82208:	b900041f 	str	wzr, [x0, #4]
   8220c:	f0000000 	adrp	x0, 85000 <mailbox>
   82210:	91000000 	add	x0, x0, #0x0
   82214:	528000c1 	mov	w1, #0x6                   	// #6
   82218:	72a00021 	movk	w1, #0x1, lsl #16
   8221c:	b9000801 	str	w1, [x0, #8]
   82220:	f0000000 	adrp	x0, 85000 <mailbox>
   82224:	91000000 	add	x0, x0, #0x0
   82228:	52800101 	mov	w1, #0x8                   	// #8
   8222c:	b9000c01 	str	w1, [x0, #12]
   82230:	f0000000 	adrp	x0, 85000 <mailbox>
   82234:	91000000 	add	x0, x0, #0x0
   82238:	b900101f 	str	wzr, [x0, #16]
   8223c:	f0000000 	adrp	x0, 85000 <mailbox>
   82240:	91000000 	add	x0, x0, #0x0
   82244:	b900141f 	str	wzr, [x0, #20]
   82248:	f0000000 	adrp	x0, 85000 <mailbox>
   8224c:	91000000 	add	x0, x0, #0x0
   82250:	b900181f 	str	wzr, [x0, #24]
   82254:	f0000000 	adrp	x0, 85000 <mailbox>
   82258:	91000000 	add	x0, x0, #0x0
   8225c:	b9001c1f 	str	wzr, [x0, #28]
   82260:	52800100 	mov	w0, #0x8                   	// #8
   82264:	97ffff91 	bl	820a8 <mailbox_call>
   82268:	f0000000 	adrp	x0, 85000 <mailbox>
   8226c:	91000000 	add	x0, x0, #0x0
   82270:	b9401400 	ldr	w0, [x0, #20]
   82274:	2a0003e1 	mov	w1, w0
   82278:	b0000000 	adrp	x0, 83000 <main+0x128>
   8227c:	9100a000 	add	x0, x0, #0x28
   82280:	97ffff05 	bl	81e94 <my_printf>
   82284:	f0000000 	adrp	x0, 85000 <mailbox>
   82288:	91000000 	add	x0, x0, #0x0
   8228c:	b9401800 	ldr	w0, [x0, #24]
   82290:	2a0003e1 	mov	w1, w0
   82294:	b0000000 	adrp	x0, 83000 <main+0x128>
   82298:	91010000 	add	x0, x0, #0x40
   8229c:	97fffefe 	bl	81e94 <my_printf>
   822a0:	d503201f 	nop
   822a4:	a8c17bfd 	ldp	x29, x30, [sp], #16
   822a8:	d65f03c0 	ret

00000000000822ac <get_uart0_clk_state>:
   822ac:	a9bf7bfd 	stp	x29, x30, [sp, #-16]!
   822b0:	910003fd 	mov	x29, sp
   822b4:	f0000000 	adrp	x0, 85000 <mailbox>
   822b8:	91000000 	add	x0, x0, #0x0
   822bc:	52800401 	mov	w1, #0x20                  	// #32
   822c0:	b9000001 	str	w1, [x0]
   822c4:	f0000000 	adrp	x0, 85000 <mailbox>
   822c8:	91000000 	add	x0, x0, #0x0
   822cc:	b900041f 	str	wzr, [x0, #4]
   822d0:	f0000000 	adrp	x0, 85000 <mailbox>
   822d4:	91000000 	add	x0, x0, #0x0
   822d8:	52800021 	mov	w1, #0x1                   	// #1
   822dc:	72a00061 	movk	w1, #0x3, lsl #16
   822e0:	b9000801 	str	w1, [x0, #8]
   822e4:	f0000000 	adrp	x0, 85000 <mailbox>
   822e8:	91000000 	add	x0, x0, #0x0
   822ec:	52800081 	mov	w1, #0x4                   	// #4
   822f0:	b9000c01 	str	w1, [x0, #12]
   822f4:	f0000000 	adrp	x0, 85000 <mailbox>
   822f8:	91000000 	add	x0, x0, #0x0
   822fc:	b900101f 	str	wzr, [x0, #16]
   82300:	f0000000 	adrp	x0, 85000 <mailbox>
   82304:	91000000 	add	x0, x0, #0x0
   82308:	52800041 	mov	w1, #0x2                   	// #2
   8230c:	b9001401 	str	w1, [x0, #20]
   82310:	f0000000 	adrp	x0, 85000 <mailbox>
   82314:	91000000 	add	x0, x0, #0x0
   82318:	b900181f 	str	wzr, [x0, #24]
   8231c:	f0000000 	adrp	x0, 85000 <mailbox>
   82320:	91000000 	add	x0, x0, #0x0
   82324:	b9001c1f 	str	wzr, [x0, #28]
   82328:	52800100 	mov	w0, #0x8                   	// #8
   8232c:	97ffff5f 	bl	820a8 <mailbox_call>
   82330:	f0000000 	adrp	x0, 85000 <mailbox>
   82334:	91000000 	add	x0, x0, #0x0
   82338:	b9401400 	ldr	w0, [x0, #20]
   8233c:	2a0003e1 	mov	w1, w0
   82340:	b0000000 	adrp	x0, 83000 <main+0x128>
   82344:	91014000 	add	x0, x0, #0x50
   82348:	97fffed3 	bl	81e94 <my_printf>
   8234c:	f0000000 	adrp	x0, 85000 <mailbox>
   82350:	91000000 	add	x0, x0, #0x0
   82354:	b9401800 	ldr	w0, [x0, #24]
   82358:	2a0003e1 	mov	w1, w0
   8235c:	b0000000 	adrp	x0, 83000 <main+0x128>
   82360:	91018000 	add	x0, x0, #0x60
   82364:	97fffecc 	bl	81e94 <my_printf>
   82368:	d503201f 	nop
   8236c:	a8c17bfd 	ldp	x29, x30, [sp], #16
   82370:	d65f03c0 	ret

0000000000082374 <get_uart0_clk_rate>:
   82374:	a9bf7bfd 	stp	x29, x30, [sp, #-16]!
   82378:	910003fd 	mov	x29, sp
   8237c:	f0000000 	adrp	x0, 85000 <mailbox>
   82380:	91000000 	add	x0, x0, #0x0
   82384:	52800401 	mov	w1, #0x20                  	// #32
   82388:	b9000001 	str	w1, [x0]
   8238c:	f0000000 	adrp	x0, 85000 <mailbox>
   82390:	91000000 	add	x0, x0, #0x0
   82394:	b900041f 	str	wzr, [x0, #4]
   82398:	f0000000 	adrp	x0, 85000 <mailbox>
   8239c:	91000000 	add	x0, x0, #0x0
   823a0:	52800041 	mov	w1, #0x2                   	// #2
   823a4:	72a00061 	movk	w1, #0x3, lsl #16
   823a8:	b9000801 	str	w1, [x0, #8]
   823ac:	f0000000 	adrp	x0, 85000 <mailbox>
   823b0:	91000000 	add	x0, x0, #0x0
   823b4:	52800081 	mov	w1, #0x4                   	// #4
   823b8:	b9000c01 	str	w1, [x0, #12]
   823bc:	f0000000 	adrp	x0, 85000 <mailbox>
   823c0:	91000000 	add	x0, x0, #0x0
   823c4:	b900101f 	str	wzr, [x0, #16]
   823c8:	f0000000 	adrp	x0, 85000 <mailbox>
   823cc:	91000000 	add	x0, x0, #0x0
   823d0:	52800041 	mov	w1, #0x2                   	// #2
   823d4:	b9001401 	str	w1, [x0, #20]
   823d8:	f0000000 	adrp	x0, 85000 <mailbox>
   823dc:	91000000 	add	x0, x0, #0x0
   823e0:	b900181f 	str	wzr, [x0, #24]
   823e4:	f0000000 	adrp	x0, 85000 <mailbox>
   823e8:	91000000 	add	x0, x0, #0x0
   823ec:	b9001c1f 	str	wzr, [x0, #28]
   823f0:	52800100 	mov	w0, #0x8                   	// #8
   823f4:	97ffff2d 	bl	820a8 <mailbox_call>
   823f8:	f0000000 	adrp	x0, 85000 <mailbox>
   823fc:	91000000 	add	x0, x0, #0x0
   82400:	b9401400 	ldr	w0, [x0, #20]
   82404:	2a0003e1 	mov	w1, w0
   82408:	b0000000 	adrp	x0, 83000 <main+0x128>
   8240c:	91014000 	add	x0, x0, #0x50
   82410:	97fffea1 	bl	81e94 <my_printf>
   82414:	f0000000 	adrp	x0, 85000 <mailbox>
   82418:	91000000 	add	x0, x0, #0x0
   8241c:	b9401800 	ldr	w0, [x0, #24]
   82420:	2a0003e1 	mov	w1, w0
   82424:	b0000000 	adrp	x0, 83000 <main+0x128>
   82428:	9101c000 	add	x0, x0, #0x70
   8242c:	97fffe9a 	bl	81e94 <my_printf>
   82430:	f0000000 	adrp	x0, 85000 <mailbox>
   82434:	91000000 	add	x0, x0, #0x0
   82438:	b9401800 	ldr	w0, [x0, #24]
   8243c:	a8c17bfd 	ldp	x29, x30, [sp], #16
   82440:	d65f03c0 	ret

0000000000082444 <fb_init>:
   82444:	a9be7bfd 	stp	x29, x30, [sp, #-32]!
   82448:	910003fd 	mov	x29, sp
   8244c:	52800020 	mov	w0, #0x1                   	// #1
   82450:	b9001fe0 	str	w0, [sp, #28]
   82454:	b9401fe0 	ldr	w0, [sp, #28]
   82458:	11000401 	add	w1, w0, #0x1
   8245c:	b9001fe1 	str	w1, [sp, #28]
   82460:	f0000001 	adrp	x1, 85000 <mailbox>
   82464:	91000021 	add	x1, x1, #0x0
   82468:	93407c00 	sxtw	x0, w0
   8246c:	b820783f 	str	wzr, [x1, x0, lsl #2]
   82470:	b9401fe0 	ldr	w0, [sp, #28]
   82474:	11000401 	add	w1, w0, #0x1
   82478:	b9001fe1 	str	w1, [sp, #28]
   8247c:	f0000001 	adrp	x1, 85000 <mailbox>
   82480:	91000021 	add	x1, x1, #0x0
   82484:	93407c00 	sxtw	x0, w0
   82488:	52800022 	mov	w2, #0x1                   	// #1
   8248c:	72a00082 	movk	w2, #0x4, lsl #16
   82490:	b8207822 	str	w2, [x1, x0, lsl #2]
   82494:	b9401fe0 	ldr	w0, [sp, #28]
   82498:	11000401 	add	w1, w0, #0x1
   8249c:	b9001fe1 	str	w1, [sp, #28]
   824a0:	f0000001 	adrp	x1, 85000 <mailbox>
   824a4:	91000021 	add	x1, x1, #0x0
   824a8:	93407c00 	sxtw	x0, w0
   824ac:	52800082 	mov	w2, #0x4                   	// #4
   824b0:	b8207822 	str	w2, [x1, x0, lsl #2]
   824b4:	b9401fe0 	ldr	w0, [sp, #28]
   824b8:	11000401 	add	w1, w0, #0x1
   824bc:	b9001fe1 	str	w1, [sp, #28]
   824c0:	f0000001 	adrp	x1, 85000 <mailbox>
   824c4:	91000021 	add	x1, x1, #0x0
   824c8:	93407c00 	sxtw	x0, w0
   824cc:	b820783f 	str	wzr, [x1, x0, lsl #2]
   824d0:	b9401fe0 	ldr	w0, [sp, #28]
   824d4:	11000401 	add	w1, w0, #0x1
   824d8:	b9001fe1 	str	w1, [sp, #28]
   824dc:	f0000001 	adrp	x1, 85000 <mailbox>
   824e0:	91000021 	add	x1, x1, #0x0
   824e4:	93407c00 	sxtw	x0, w0
   824e8:	52948002 	mov	w2, #0xa400                	// #41984
   824ec:	72a003e2 	movk	w2, #0x1f, lsl #16
   824f0:	b8207822 	str	w2, [x1, x0, lsl #2]
   824f4:	b9401fe0 	ldr	w0, [sp, #28]
   824f8:	11000401 	add	w1, w0, #0x1
   824fc:	b9001fe1 	str	w1, [sp, #28]
   82500:	f0000001 	adrp	x1, 85000 <mailbox>
   82504:	91000021 	add	x1, x1, #0x0
   82508:	93407c00 	sxtw	x0, w0
   8250c:	52900062 	mov	w2, #0x8003                	// #32771
   82510:	72a00082 	movk	w2, #0x4, lsl #16
   82514:	b8207822 	str	w2, [x1, x0, lsl #2]
   82518:	b9401fe0 	ldr	w0, [sp, #28]
   8251c:	11000401 	add	w1, w0, #0x1
   82520:	b9001fe1 	str	w1, [sp, #28]
   82524:	f0000001 	adrp	x1, 85000 <mailbox>
   82528:	91000021 	add	x1, x1, #0x0
   8252c:	93407c00 	sxtw	x0, w0
   82530:	52800102 	mov	w2, #0x8                   	// #8
   82534:	b8207822 	str	w2, [x1, x0, lsl #2]
   82538:	b9401fe0 	ldr	w0, [sp, #28]
   8253c:	11000401 	add	w1, w0, #0x1
   82540:	b9001fe1 	str	w1, [sp, #28]
   82544:	f0000001 	adrp	x1, 85000 <mailbox>
   82548:	91000021 	add	x1, x1, #0x0
   8254c:	93407c00 	sxtw	x0, w0
   82550:	b820783f 	str	wzr, [x1, x0, lsl #2]
   82554:	b9401fe0 	ldr	w0, [sp, #28]
   82558:	11000401 	add	w1, w0, #0x1
   8255c:	b9001fe1 	str	w1, [sp, #28]
   82560:	f0000001 	adrp	x1, 85000 <mailbox>
   82564:	91000021 	add	x1, x1, #0x0
   82568:	93407c00 	sxtw	x0, w0
   8256c:	5280f002 	mov	w2, #0x780                 	// #1920
   82570:	b8207822 	str	w2, [x1, x0, lsl #2]
   82574:	b9401fe0 	ldr	w0, [sp, #28]
   82578:	11000401 	add	w1, w0, #0x1
   8257c:	b9001fe1 	str	w1, [sp, #28]
   82580:	f0000001 	adrp	x1, 85000 <mailbox>
   82584:	91000021 	add	x1, x1, #0x0
   82588:	93407c00 	sxtw	x0, w0
   8258c:	52808702 	mov	w2, #0x438                 	// #1080
   82590:	b8207822 	str	w2, [x1, x0, lsl #2]
   82594:	b9401fe0 	ldr	w0, [sp, #28]
   82598:	11000401 	add	w1, w0, #0x1
   8259c:	b9001fe1 	str	w1, [sp, #28]
   825a0:	f0000001 	adrp	x1, 85000 <mailbox>
   825a4:	91000021 	add	x1, x1, #0x0
   825a8:	93407c00 	sxtw	x0, w0
   825ac:	52900082 	mov	w2, #0x8004                	// #32772
   825b0:	72a00082 	movk	w2, #0x4, lsl #16
   825b4:	b8207822 	str	w2, [x1, x0, lsl #2]
   825b8:	b9401fe0 	ldr	w0, [sp, #28]
   825bc:	11000401 	add	w1, w0, #0x1
   825c0:	b9001fe1 	str	w1, [sp, #28]
   825c4:	f0000001 	adrp	x1, 85000 <mailbox>
   825c8:	91000021 	add	x1, x1, #0x0
   825cc:	93407c00 	sxtw	x0, w0
   825d0:	52800102 	mov	w2, #0x8                   	// #8
   825d4:	b8207822 	str	w2, [x1, x0, lsl #2]
   825d8:	b9401fe0 	ldr	w0, [sp, #28]
   825dc:	11000401 	add	w1, w0, #0x1
   825e0:	b9001fe1 	str	w1, [sp, #28]
   825e4:	f0000001 	adrp	x1, 85000 <mailbox>
   825e8:	91000021 	add	x1, x1, #0x0
   825ec:	93407c00 	sxtw	x0, w0
   825f0:	b820783f 	str	wzr, [x1, x0, lsl #2]
   825f4:	b9401fe0 	ldr	w0, [sp, #28]
   825f8:	11000401 	add	w1, w0, #0x1
   825fc:	b9001fe1 	str	w1, [sp, #28]
   82600:	f0000001 	adrp	x1, 85000 <mailbox>
   82604:	91000021 	add	x1, x1, #0x0
   82608:	93407c00 	sxtw	x0, w0
   8260c:	5280f002 	mov	w2, #0x780                 	// #1920
   82610:	b8207822 	str	w2, [x1, x0, lsl #2]
   82614:	b9401fe0 	ldr	w0, [sp, #28]
   82618:	11000401 	add	w1, w0, #0x1
   8261c:	b9001fe1 	str	w1, [sp, #28]
   82620:	f0000001 	adrp	x1, 85000 <mailbox>
   82624:	91000021 	add	x1, x1, #0x0
   82628:	93407c00 	sxtw	x0, w0
   8262c:	52808702 	mov	w2, #0x438                 	// #1080
   82630:	b8207822 	str	w2, [x1, x0, lsl #2]
   82634:	b9401fe0 	ldr	w0, [sp, #28]
   82638:	11000401 	add	w1, w0, #0x1
   8263c:	b9001fe1 	str	w1, [sp, #28]
   82640:	f0000001 	adrp	x1, 85000 <mailbox>
   82644:	91000021 	add	x1, x1, #0x0
   82648:	93407c00 	sxtw	x0, w0
   8264c:	52900122 	mov	w2, #0x8009                	// #32777
   82650:	72a00082 	movk	w2, #0x4, lsl #16
   82654:	b8207822 	str	w2, [x1, x0, lsl #2]
   82658:	b9401fe0 	ldr	w0, [sp, #28]
   8265c:	11000401 	add	w1, w0, #0x1
   82660:	b9001fe1 	str	w1, [sp, #28]
   82664:	f0000001 	adrp	x1, 85000 <mailbox>
   82668:	91000021 	add	x1, x1, #0x0
   8266c:	93407c00 	sxtw	x0, w0
   82670:	52800102 	mov	w2, #0x8                   	// #8
   82674:	b8207822 	str	w2, [x1, x0, lsl #2]
   82678:	b9401fe0 	ldr	w0, [sp, #28]
   8267c:	11000401 	add	w1, w0, #0x1
   82680:	b9001fe1 	str	w1, [sp, #28]
   82684:	f0000001 	adrp	x1, 85000 <mailbox>
   82688:	91000021 	add	x1, x1, #0x0
   8268c:	93407c00 	sxtw	x0, w0
   82690:	b820783f 	str	wzr, [x1, x0, lsl #2]
   82694:	b9401fe0 	ldr	w0, [sp, #28]
   82698:	11000401 	add	w1, w0, #0x1
   8269c:	b9001fe1 	str	w1, [sp, #28]
   826a0:	f0000001 	adrp	x1, 85000 <mailbox>
   826a4:	91000021 	add	x1, x1, #0x0
   826a8:	93407c00 	sxtw	x0, w0
   826ac:	b820783f 	str	wzr, [x1, x0, lsl #2]
   826b0:	b9401fe0 	ldr	w0, [sp, #28]
   826b4:	11000401 	add	w1, w0, #0x1
   826b8:	b9001fe1 	str	w1, [sp, #28]
   826bc:	f0000001 	adrp	x1, 85000 <mailbox>
   826c0:	91000021 	add	x1, x1, #0x0
   826c4:	93407c00 	sxtw	x0, w0
   826c8:	b820783f 	str	wzr, [x1, x0, lsl #2]
   826cc:	b9401fe0 	ldr	w0, [sp, #28]
   826d0:	11000401 	add	w1, w0, #0x1
   826d4:	b9001fe1 	str	w1, [sp, #28]
   826d8:	f0000001 	adrp	x1, 85000 <mailbox>
   826dc:	91000021 	add	x1, x1, #0x0
   826e0:	93407c00 	sxtw	x0, w0
   826e4:	529000a2 	mov	w2, #0x8005                	// #32773
   826e8:	72a00082 	movk	w2, #0x4, lsl #16
   826ec:	b8207822 	str	w2, [x1, x0, lsl #2]
   826f0:	b9401fe0 	ldr	w0, [sp, #28]
   826f4:	11000401 	add	w1, w0, #0x1
   826f8:	b9001fe1 	str	w1, [sp, #28]
   826fc:	f0000001 	adrp	x1, 85000 <mailbox>
   82700:	91000021 	add	x1, x1, #0x0
   82704:	93407c00 	sxtw	x0, w0
   82708:	52800082 	mov	w2, #0x4                   	// #4
   8270c:	b8207822 	str	w2, [x1, x0, lsl #2]
   82710:	b9401fe0 	ldr	w0, [sp, #28]
   82714:	11000401 	add	w1, w0, #0x1
   82718:	b9001fe1 	str	w1, [sp, #28]
   8271c:	f0000001 	adrp	x1, 85000 <mailbox>
   82720:	91000021 	add	x1, x1, #0x0
   82724:	93407c00 	sxtw	x0, w0
   82728:	b820783f 	str	wzr, [x1, x0, lsl #2]
   8272c:	b9401fe0 	ldr	w0, [sp, #28]
   82730:	11000401 	add	w1, w0, #0x1
   82734:	b9001fe1 	str	w1, [sp, #28]
   82738:	f0000001 	adrp	x1, 85000 <mailbox>
   8273c:	91000021 	add	x1, x1, #0x0
   82740:	93407c00 	sxtw	x0, w0
   82744:	52800402 	mov	w2, #0x20                  	// #32
   82748:	b8207822 	str	w2, [x1, x0, lsl #2]
   8274c:	b9401fe0 	ldr	w0, [sp, #28]
   82750:	11000401 	add	w1, w0, #0x1
   82754:	b9001fe1 	str	w1, [sp, #28]
   82758:	f0000001 	adrp	x1, 85000 <mailbox>
   8275c:	91000021 	add	x1, x1, #0x0
   82760:	93407c00 	sxtw	x0, w0
   82764:	529000c2 	mov	w2, #0x8006                	// #32774
   82768:	72a00082 	movk	w2, #0x4, lsl #16
   8276c:	b8207822 	str	w2, [x1, x0, lsl #2]
   82770:	b9401fe0 	ldr	w0, [sp, #28]
   82774:	11000401 	add	w1, w0, #0x1
   82778:	b9001fe1 	str	w1, [sp, #28]
   8277c:	f0000001 	adrp	x1, 85000 <mailbox>
   82780:	91000021 	add	x1, x1, #0x0
   82784:	93407c00 	sxtw	x0, w0
   82788:	52800082 	mov	w2, #0x4                   	// #4
   8278c:	b8207822 	str	w2, [x1, x0, lsl #2]
   82790:	b9401fe0 	ldr	w0, [sp, #28]
   82794:	11000401 	add	w1, w0, #0x1
   82798:	b9001fe1 	str	w1, [sp, #28]
   8279c:	f0000001 	adrp	x1, 85000 <mailbox>
   827a0:	91000021 	add	x1, x1, #0x0
   827a4:	93407c00 	sxtw	x0, w0
   827a8:	b820783f 	str	wzr, [x1, x0, lsl #2]
   827ac:	b9401fe0 	ldr	w0, [sp, #28]
   827b0:	11000401 	add	w1, w0, #0x1
   827b4:	b9001fe1 	str	w1, [sp, #28]
   827b8:	f0000001 	adrp	x1, 85000 <mailbox>
   827bc:	91000021 	add	x1, x1, #0x0
   827c0:	93407c00 	sxtw	x0, w0
   827c4:	52800022 	mov	w2, #0x1                   	// #1
   827c8:	b8207822 	str	w2, [x1, x0, lsl #2]
   827cc:	b9401fe0 	ldr	w0, [sp, #28]
   827d0:	11000401 	add	w1, w0, #0x1
   827d4:	b9001fe1 	str	w1, [sp, #28]
   827d8:	f0000001 	adrp	x1, 85000 <mailbox>
   827dc:	91000021 	add	x1, x1, #0x0
   827e0:	93407c00 	sxtw	x0, w0
   827e4:	52800102 	mov	w2, #0x8                   	// #8
   827e8:	72a00082 	movk	w2, #0x4, lsl #16
   827ec:	b8207822 	str	w2, [x1, x0, lsl #2]
   827f0:	b9401fe0 	ldr	w0, [sp, #28]
   827f4:	11000401 	add	w1, w0, #0x1
   827f8:	b9001fe1 	str	w1, [sp, #28]
   827fc:	f0000001 	adrp	x1, 85000 <mailbox>
   82800:	91000021 	add	x1, x1, #0x0
   82804:	93407c00 	sxtw	x0, w0
   82808:	52800082 	mov	w2, #0x4                   	// #4
   8280c:	b8207822 	str	w2, [x1, x0, lsl #2]
   82810:	b9401fe0 	ldr	w0, [sp, #28]
   82814:	11000401 	add	w1, w0, #0x1
   82818:	b9001fe1 	str	w1, [sp, #28]
   8281c:	f0000001 	adrp	x1, 85000 <mailbox>
   82820:	91000021 	add	x1, x1, #0x0
   82824:	93407c00 	sxtw	x0, w0
   82828:	b820783f 	str	wzr, [x1, x0, lsl #2]
   8282c:	b9401fe0 	ldr	w0, [sp, #28]
   82830:	11000401 	add	w1, w0, #0x1
   82834:	b9001fe1 	str	w1, [sp, #28]
   82838:	f0000001 	adrp	x1, 85000 <mailbox>
   8283c:	91000021 	add	x1, x1, #0x0
   82840:	93407c00 	sxtw	x0, w0
   82844:	b820783f 	str	wzr, [x1, x0, lsl #2]
   82848:	b9401fe0 	ldr	w0, [sp, #28]
   8284c:	11000401 	add	w1, w0, #0x1
   82850:	b9001fe1 	str	w1, [sp, #28]
   82854:	f0000001 	adrp	x1, 85000 <mailbox>
   82858:	91000021 	add	x1, x1, #0x0
   8285c:	93407c00 	sxtw	x0, w0
   82860:	b820783f 	str	wzr, [x1, x0, lsl #2]
   82864:	b9401fe0 	ldr	w0, [sp, #28]
   82868:	531e7400 	lsl	w0, w0, #2
   8286c:	2a0003e1 	mov	w1, w0
   82870:	f0000000 	adrp	x0, 85000 <mailbox>
   82874:	91000000 	add	x0, x0, #0x0
   82878:	b9000001 	str	w1, [x0]
   8287c:	52800100 	mov	w0, #0x8                   	// #8
   82880:	97fffe0a 	bl	820a8 <mailbox_call>
   82884:	b9401fe1 	ldr	w1, [sp, #28]
   82888:	b0000000 	adrp	x0, 83000 <main+0x128>
   8288c:	91020000 	add	x0, x0, #0x80
   82890:	97fffd81 	bl	81e94 <my_printf>
   82894:	f0000000 	adrp	x0, 85000 <mailbox>
   82898:	91000000 	add	x0, x0, #0x0
   8289c:	b9400400 	ldr	w0, [x0, #4]
   828a0:	2a0003e1 	mov	w1, w0
   828a4:	b0000000 	adrp	x0, 83000 <main+0x128>
   828a8:	91024000 	add	x0, x0, #0x90
   828ac:	97fffd7a 	bl	81e94 <my_printf>
   828b0:	f0000000 	adrp	x0, 85000 <mailbox>
   828b4:	91000000 	add	x0, x0, #0x0
   828b8:	b9401400 	ldr	w0, [x0, #20]
   828bc:	2a0003e0 	mov	w0, w0
   828c0:	aa0003e1 	mov	x1, x0
   828c4:	f0000000 	adrp	x0, 85000 <mailbox>
   828c8:	91040000 	add	x0, x0, #0x100
   828cc:	f9000001 	str	x1, [x0]
   828d0:	f0000000 	adrp	x0, 85000 <mailbox>
   828d4:	91040000 	add	x0, x0, #0x100
   828d8:	f9400000 	ldr	x0, [x0]
   828dc:	aa0003e1 	mov	x1, x0
   828e0:	b0000000 	adrp	x0, 83000 <main+0x128>
   828e4:	91028000 	add	x0, x0, #0xa0
   828e8:	97fffd6b 	bl	81e94 <my_printf>
   828ec:	f0000000 	adrp	x0, 85000 <mailbox>
   828f0:	91000000 	add	x0, x0, #0x0
   828f4:	b9401800 	ldr	w0, [x0, #24]
   828f8:	2a0003e1 	mov	w1, w0
   828fc:	f0000000 	adrp	x0, 85000 <mailbox>
   82900:	91042000 	add	x0, x0, #0x108
   82904:	b9000001 	str	w1, [x0]
   82908:	f0000000 	adrp	x0, 85000 <mailbox>
   8290c:	91042000 	add	x0, x0, #0x108
   82910:	b9400000 	ldr	w0, [x0]
   82914:	2a0003e1 	mov	w1, w0
   82918:	b0000000 	adrp	x0, 83000 <main+0x128>
   8291c:	9102c000 	add	x0, x0, #0xb0
   82920:	97fffd5d 	bl	81e94 <my_printf>
   82924:	f0000000 	adrp	x0, 85000 <mailbox>
   82928:	91000000 	add	x0, x0, #0x0
   8292c:	b9408000 	ldr	w0, [x0, #128]
   82930:	2a0003e1 	mov	w1, w0
   82934:	f0000000 	adrp	x0, 85000 <mailbox>
   82938:	91043000 	add	x0, x0, #0x10c
   8293c:	b9000001 	str	w1, [x0]
   82940:	f0000000 	adrp	x0, 85000 <mailbox>
   82944:	91043000 	add	x0, x0, #0x10c
   82948:	b9400000 	ldr	w0, [x0]
   8294c:	2a0003e1 	mov	w1, w0
   82950:	b0000000 	adrp	x0, 83000 <main+0x128>
   82954:	91030000 	add	x0, x0, #0xc0
   82958:	97fffd4f 	bl	81e94 <my_printf>
   8295c:	d503201f 	nop
   82960:	a8c27bfd 	ldp	x29, x30, [sp], #32
   82964:	d65f03c0 	ret

0000000000082968 <fb_loadSplashImage>:
   82968:	d10083ff 	sub	sp, sp, #0x20
   8296c:	b90013ff 	str	wzr, [sp, #16]
   82970:	12800000 	mov	w0, #0xffffffff            	// #-1
   82974:	b9000fe0 	str	w0, [sp, #12]
   82978:	52800020 	mov	w0, #0x1                   	// #1
   8297c:	b90017e0 	str	w0, [sp, #20]
   82980:	b9001bff 	str	wzr, [sp, #24]
   82984:	1400004a 	b	82aac <fb_loadSplashImage+0x144>
   82988:	b9401be2 	ldr	w2, [sp, #24]
   8298c:	528ccce0 	mov	w0, #0x6667                	// #26215
   82990:	72acccc0 	movk	w0, #0x6666, lsl #16
   82994:	9b207c40 	smull	x0, w2, w0
   82998:	d360fc00 	lsr	x0, x0, #32
   8299c:	13037c01 	asr	w1, w0, #3
   829a0:	131f7c40 	asr	w0, w2, #31
   829a4:	4b000021 	sub	w1, w1, w0
   829a8:	2a0103e0 	mov	w0, w1
   829ac:	531e7400 	lsl	w0, w0, #2
   829b0:	0b010000 	add	w0, w0, w1
   829b4:	531e7400 	lsl	w0, w0, #2
   829b8:	4b000041 	sub	w1, w2, w0
   829bc:	7100003f 	cmp	w1, #0x0
   829c0:	540000c1 	b.ne	829d8 <fb_loadSplashImage+0x70>  // b.any
   829c4:	b94017e0 	ldr	w0, [sp, #20]
   829c8:	7100001f 	cmp	w0, #0x0
   829cc:	1a9f17e0 	cset	w0, eq  // eq = none
   829d0:	12001c00 	and	w0, w0, #0xff
   829d4:	b90017e0 	str	w0, [sp, #20]
   829d8:	b9001fff 	str	wzr, [sp, #28]
   829dc:	1400002e 	b	82a94 <fb_loadSplashImage+0x12c>
   829e0:	b9401fe2 	ldr	w2, [sp, #28]
   829e4:	528ccce0 	mov	w0, #0x6667                	// #26215
   829e8:	72acccc0 	movk	w0, #0x6666, lsl #16
   829ec:	9b207c40 	smull	x0, w2, w0
   829f0:	d360fc00 	lsr	x0, x0, #32
   829f4:	13037c01 	asr	w1, w0, #3
   829f8:	131f7c40 	asr	w0, w2, #31
   829fc:	4b000021 	sub	w1, w1, w0
   82a00:	2a0103e0 	mov	w0, w1
   82a04:	531e7400 	lsl	w0, w0, #2
   82a08:	0b010000 	add	w0, w0, w1
   82a0c:	531e7400 	lsl	w0, w0, #2
   82a10:	4b000041 	sub	w1, w2, w0
   82a14:	7100003f 	cmp	w1, #0x0
   82a18:	540000c1 	b.ne	82a30 <fb_loadSplashImage+0xc8>  // b.any
   82a1c:	b94017e0 	ldr	w0, [sp, #20]
   82a20:	7100001f 	cmp	w0, #0x0
   82a24:	1a9f17e0 	cset	w0, eq  // eq = none
   82a28:	12001c00 	and	w0, w0, #0xff
   82a2c:	b90017e0 	str	w0, [sp, #20]
   82a30:	b94017e0 	ldr	w0, [sp, #20]
   82a34:	7100001f 	cmp	w0, #0x0
   82a38:	54000160 	b.eq	82a64 <fb_loadSplashImage+0xfc>  // b.none
   82a3c:	f0000000 	adrp	x0, 85000 <mailbox>
   82a40:	91040000 	add	x0, x0, #0x100
   82a44:	f9400000 	ldr	x0, [x0]
   82a48:	91001002 	add	x2, x0, #0x4
   82a4c:	f0000001 	adrp	x1, 85000 <mailbox>
   82a50:	91040021 	add	x1, x1, #0x100
   82a54:	f9000022 	str	x2, [x1]
   82a58:	b94013e1 	ldr	w1, [sp, #16]
   82a5c:	b9000001 	str	w1, [x0]
   82a60:	1400000a 	b	82a88 <fb_loadSplashImage+0x120>
   82a64:	f0000000 	adrp	x0, 85000 <mailbox>
   82a68:	91040000 	add	x0, x0, #0x100
   82a6c:	f9400000 	ldr	x0, [x0]
   82a70:	91001002 	add	x2, x0, #0x4
   82a74:	f0000001 	adrp	x1, 85000 <mailbox>
   82a78:	91040021 	add	x1, x1, #0x100
   82a7c:	f9000022 	str	x2, [x1]
   82a80:	b9400fe1 	ldr	w1, [sp, #12]
   82a84:	b9000001 	str	w1, [x0]
   82a88:	b9401fe0 	ldr	w0, [sp, #28]
   82a8c:	11000400 	add	w0, w0, #0x1
   82a90:	b9001fe0 	str	w0, [sp, #28]
   82a94:	b9401fe0 	ldr	w0, [sp, #28]
   82a98:	711dfc1f 	cmp	w0, #0x77f
   82a9c:	54fffa2d 	b.le	829e0 <fb_loadSplashImage+0x78>
   82aa0:	b9401be0 	ldr	w0, [sp, #24]
   82aa4:	11000400 	add	w0, w0, #0x1
   82aa8:	b9001be0 	str	w0, [sp, #24]
   82aac:	b9401be0 	ldr	w0, [sp, #24]
   82ab0:	7110dc1f 	cmp	w0, #0x437
   82ab4:	54fff6ad 	b.le	82988 <fb_loadSplashImage+0x20>
   82ab8:	d503201f 	nop
   82abc:	d503201f 	nop
   82ac0:	910083ff 	add	sp, sp, #0x20
   82ac4:	d65f03c0 	ret

0000000000082ac8 <core_timer_enable>:
   82ac8:	d2800020 	mov	x0, #0x1                   	// #1
   82acc:	d51be220 	msr	cntp_ctl_el0, x0
   82ad0:	b2407fe0 	mov	x0, #0xffffffff            	// #4294967295
   82ad4:	d51be200 	msr	cntp_tval_el0, x0
   82ad8:	d2800040 	mov	x0, #0x2                   	// #2
   82adc:	58000721 	ldr	x1, 82bc0 <local_timer_handler+0x60>
   82ae0:	f9000020 	str	x0, [x1]
   82ae4:	d50342ff 	msr	daifclr, #0x2
   82ae8:	d503201f 	nop
   82aec:	d65f03c0 	ret

0000000000082af0 <core_timer_handler>:
   82af0:	a9bf7bfd 	stp	x29, x30, [sp, #-16]!
   82af4:	910003fd 	mov	x29, sp
   82af8:	b0000000 	adrp	x0, 83000 <main+0x128>
   82afc:	91034000 	add	x0, x0, #0xd0
   82b00:	97fffce5 	bl	81e94 <my_printf>
   82b04:	d2800020 	mov	x0, #0x1                   	// #1
   82b08:	d53be001 	mrs	x1, cntfrq_el0
   82b0c:	9b017c00 	mul	x0, x0, x1
   82b10:	d51be200 	msr	cntp_tval_el0, x0
   82b14:	d503201f 	nop
   82b18:	a8c17bfd 	ldp	x29, x30, [sp], #16
   82b1c:	d65f03c0 	ret

0000000000082b20 <local_timer_init>:
   82b20:	d10043ff 	sub	sp, sp, #0x10
   82b24:	52a60000 	mov	w0, #0x30000000            	// #805306368
   82b28:	b9000fe0 	str	w0, [sp, #12]
   82b2c:	528f0800 	mov	w0, #0x7840                	// #30784
   82b30:	72a02fa0 	movk	w0, #0x17d, lsl #16
   82b34:	b9000be0 	str	w0, [sp, #8]
   82b38:	d2800680 	mov	x0, #0x34                  	// #52
   82b3c:	f2a80000 	movk	x0, #0x4000, lsl #16
   82b40:	b9400fe2 	ldr	w2, [sp, #12]
   82b44:	b9400be1 	ldr	w1, [sp, #8]
   82b48:	2a010041 	orr	w1, w2, w1
   82b4c:	b9000001 	str	w1, [x0]
   82b50:	d50342ff 	msr	daifclr, #0x2
   82b54:	d503201f 	nop
   82b58:	910043ff 	add	sp, sp, #0x10
   82b5c:	d65f03c0 	ret

0000000000082b60 <local_timer_handler>:
   82b60:	a9be7bfd 	stp	x29, x30, [sp, #-32]!
   82b64:	910003fd 	mov	x29, sp
   82b68:	529214a0 	mov	w0, #0x90a5                	// #37029
   82b6c:	72a19860 	movk	w0, #0xcc3, lsl #16
   82b70:	b9001fe0 	str	w0, [sp, #28]
   82b74:	d2800700 	mov	x0, #0x38                  	// #56
   82b78:	f2a80000 	movk	x0, #0x4000, lsl #16
   82b7c:	52b80001 	mov	w1, #0xc0000000            	// #-1073741824
   82b80:	b9000001 	str	w1, [x0]
   82b84:	b0000000 	adrp	x0, 83000 <main+0x128>
   82b88:	91038000 	add	x0, x0, #0xe0
   82b8c:	97fffcc2 	bl	81e94 <my_printf>
   82b90:	d50342ff 	msr	daifclr, #0x2
   82b94:	14000002 	b	82b9c <local_timer_handler+0x3c>
   82b98:	d503201f 	nop
   82b9c:	b9401fe0 	ldr	w0, [sp, #28]
   82ba0:	51000401 	sub	w1, w0, #0x1
   82ba4:	b9001fe1 	str	w1, [sp, #28]
   82ba8:	7100001f 	cmp	w0, #0x0
   82bac:	54ffff61 	b.ne	82b98 <local_timer_handler+0x38>  // b.any
   82bb0:	d503201f 	nop
   82bb4:	d503201f 	nop
   82bb8:	a8c27bfd 	ldp	x29, x30, [sp], #32
   82bbc:	d65f03c0 	ret
   82bc0:	40000040 	.inst	0x40000040 ; undefined
   82bc4:	00000000 	udf	#0

0000000000082bc8 <reset>:
   82bc8:	d10043ff 	sub	sp, sp, #0x10
   82bcc:	b9000fe0 	str	w0, [sp, #12]
   82bd0:	d2800380 	mov	x0, #0x1c                  	// #28
   82bd4:	f2a7e200 	movk	x0, #0x3f10, lsl #16
   82bd8:	52800401 	mov	w1, #0x20                  	// #32
   82bdc:	72ab4001 	movk	w1, #0x5a00, lsl #16
   82be0:	b9000001 	str	w1, [x0]
   82be4:	b9400fe1 	ldr	w1, [sp, #12]
   82be8:	52ab4000 	mov	w0, #0x5a000000            	// #1509949440
   82bec:	2a000021 	orr	w1, w1, w0
   82bf0:	d2800480 	mov	x0, #0x24                  	// #36
   82bf4:	f2a7e200 	movk	x0, #0x3f10, lsl #16
   82bf8:	b9000001 	str	w1, [x0]
   82bfc:	d503201f 	nop
   82c00:	910043ff 	add	sp, sp, #0x10
   82c04:	d65f03c0 	ret

0000000000082c08 <cancel_reset>:
   82c08:	d2800380 	mov	x0, #0x1c                  	// #28
   82c0c:	f2a7e200 	movk	x0, #0x3f10, lsl #16
   82c10:	52ab4001 	mov	w1, #0x5a000000            	// #1509949440
   82c14:	b9000001 	str	w1, [x0]
   82c18:	d2800480 	mov	x0, #0x24                  	// #36
   82c1c:	f2a7e200 	movk	x0, #0x3f10, lsl #16
   82c20:	52ab4001 	mov	w1, #0x5a000000            	// #1509949440
   82c24:	b9000001 	str	w1, [x0]
   82c28:	d503201f 	nop
   82c2c:	d65f03c0 	ret

0000000000082c30 <read_cmd>:
   82c30:	a9bd7bfd 	stp	x29, x30, [sp, #-48]!
   82c34:	910003fd 	mov	x29, sp
   82c38:	f9000fe0 	str	x0, [sp, #24]
   82c3c:	f9400fe0 	ldr	x0, [sp, #24]
   82c40:	3900001f 	strb	wzr, [x0]
   82c44:	b9002fff 	str	wzr, [sp, #44]
   82c48:	1400001f 	b	82cc4 <read_cmd+0x94>
   82c4c:	3940afe0 	ldrb	w0, [sp, #43]
   82c50:	7103c01f 	cmp	w0, #0xf0
   82c54:	54000041 	b.ne	82c5c <read_cmd+0x2c>  // b.any
   82c58:	1400001b 	b	82cc4 <read_cmd+0x94>
   82c5c:	3940afe0 	ldrb	w0, [sp, #43]
   82c60:	7101fc1f 	cmp	w0, #0x7f
   82c64:	540001c1 	b.ne	82c9c <read_cmd+0x6c>  // b.any
   82c68:	b9402fe0 	ldr	w0, [sp, #44]
   82c6c:	51000400 	sub	w0, w0, #0x1
   82c70:	b9002fe0 	str	w0, [sp, #44]
   82c74:	b9402fe0 	ldr	w0, [sp, #44]
   82c78:	7100001f 	cmp	w0, #0x0
   82c7c:	540001eb 	b.lt	82cb8 <read_cmd+0x88>  // b.tstop
   82c80:	b0000000 	adrp	x0, 83000 <main+0x128>
   82c84:	9103c000 	add	x0, x0, #0xf0
   82c88:	97fffbf9 	bl	81c6c <print_s>
   82c8c:	b9402fe0 	ldr	w0, [sp, #44]
   82c90:	51000400 	sub	w0, w0, #0x1
   82c94:	b9002fe0 	str	w0, [sp, #44]
   82c98:	14000008 	b	82cb8 <read_cmd+0x88>
   82c9c:	b9802fe0 	ldrsw	x0, [sp, #44]
   82ca0:	f9400fe1 	ldr	x1, [sp, #24]
   82ca4:	8b000020 	add	x0, x1, x0
   82ca8:	3940afe1 	ldrb	w1, [sp, #43]
   82cac:	39000001 	strb	w1, [x0]
   82cb0:	3940afe0 	ldrb	w0, [sp, #43]
   82cb4:	97fffbe6 	bl	81c4c <print_c>
   82cb8:	b9402fe0 	ldr	w0, [sp, #44]
   82cbc:	11000400 	add	w0, w0, #0x1
   82cc0:	b9002fe0 	str	w0, [sp, #44]
   82cc4:	97fffbdc 	bl	81c34 <read_c>
   82cc8:	3900afe0 	strb	w0, [sp, #43]
   82ccc:	3940afe0 	ldrb	w0, [sp, #43]
   82cd0:	7100281f 	cmp	w0, #0xa
   82cd4:	54fffbc1 	b.ne	82c4c <read_cmd+0x1c>  // b.any
   82cd8:	b0000000 	adrp	x0, 83000 <main+0x128>
   82cdc:	9103e000 	add	x0, x0, #0xf8
   82ce0:	97fffbe3 	bl	81c6c <print_s>
   82ce4:	b9802fe0 	ldrsw	x0, [sp, #44]
   82ce8:	f9400fe1 	ldr	x1, [sp, #24]
   82cec:	8b000020 	add	x0, x1, x0
   82cf0:	3900001f 	strb	wzr, [x0]
   82cf4:	d503201f 	nop
   82cf8:	a8c37bfd 	ldp	x29, x30, [sp], #48
   82cfc:	d65f03c0 	ret

0000000000082d00 <shell>:
   82d00:	a9ad7bfd 	stp	x29, x30, [sp, #-304]!
   82d04:	910003fd 	mov	x29, sp
   82d08:	a901ffff 	stp	xzr, xzr, [sp, #24]
   82d0c:	9100a3e0 	add	x0, sp, #0x28
   82d10:	4f000400 	movi	v0.4s, #0x0
   82d14:	ad000000 	stp	q0, q0, [x0]
   82d18:	ad010000 	stp	q0, q0, [x0, #32]
   82d1c:	ad020000 	stp	q0, q0, [x0, #64]
   82d20:	ad030000 	stp	q0, q0, [x0, #96]
   82d24:	ad040000 	stp	q0, q0, [x0, #128]
   82d28:	ad050000 	stp	q0, q0, [x0, #160]
   82d2c:	ad060000 	stp	q0, q0, [x0, #192]
   82d30:	3d803800 	str	q0, [x0, #224]
   82d34:	b0000000 	adrp	x0, 83000 <main+0x128>
   82d38:	91040000 	add	x0, x0, #0x100
   82d3c:	97fffc56 	bl	81e94 <my_printf>
   82d40:	910063e0 	add	x0, sp, #0x18
   82d44:	97ffffbb 	bl	82c30 <read_cmd>
   82d48:	910063e2 	add	x2, sp, #0x18
   82d4c:	b0000000 	adrp	x0, 83000 <main+0x128>
   82d50:	91042001 	add	x1, x0, #0x108
   82d54:	aa0203e0 	mov	x0, x2
   82d58:	97fffa9f 	bl	817d4 <strcmp>
   82d5c:	7100001f 	cmp	w0, #0x0
   82d60:	540000a1 	b.ne	82d74 <shell+0x74>  // b.any
   82d64:	b0000000 	adrp	x0, 83000 <main+0x128>
   82d68:	91044000 	add	x0, x0, #0x110
   82d6c:	97fffc4a 	bl	81e94 <my_printf>
   82d70:	14000057 	b	82ecc <shell+0x1cc>
   82d74:	910063e2 	add	x2, sp, #0x18
   82d78:	b0000000 	adrp	x0, 83000 <main+0x128>
   82d7c:	9107c001 	add	x1, x0, #0x1f0
   82d80:	aa0203e0 	mov	x0, x2
   82d84:	97fffa94 	bl	817d4 <strcmp>
   82d88:	7100001f 	cmp	w0, #0x0
   82d8c:	540000a1 	b.ne	82da0 <shell+0xa0>  // b.any
   82d90:	b0000000 	adrp	x0, 83000 <main+0x128>
   82d94:	9107e000 	add	x0, x0, #0x1f8
   82d98:	97fffc3f 	bl	81e94 <my_printf>
   82d9c:	1400004c 	b	82ecc <shell+0x1cc>
   82da0:	910063e2 	add	x2, sp, #0x18
   82da4:	b0000000 	adrp	x0, 83000 <main+0x128>
   82da8:	91082001 	add	x1, x0, #0x208
   82dac:	aa0203e0 	mov	x0, x2
   82db0:	97fffa89 	bl	817d4 <strcmp>
   82db4:	7100001f 	cmp	w0, #0x0
   82db8:	54000081 	b.ne	82dc8 <shell+0xc8>  // b.any
   82dbc:	97fffce4 	bl	8214c <get_board_revision>
   82dc0:	97fffd0a 	bl	821e8 <get_vc_memory_addr>
   82dc4:	14000042 	b	82ecc <shell+0x1cc>
   82dc8:	910063e2 	add	x2, sp, #0x18
   82dcc:	b0000000 	adrp	x0, 83000 <main+0x128>
   82dd0:	91084001 	add	x1, x0, #0x210
   82dd4:	aa0203e0 	mov	x0, x2
   82dd8:	97fffa7f 	bl	817d4 <strcmp>
   82ddc:	7100001f 	cmp	w0, #0x0
   82de0:	540001c1 	b.ne	82e18 <shell+0x118>  // b.any
   82de4:	d53be020 	mrs	x0, cntpct_el0
   82de8:	f90097e0 	str	x0, [sp, #296]
   82dec:	d53be000 	mrs	x0, cntfrq_el0
   82df0:	f90093e0 	str	x0, [sp, #288]
   82df4:	f94097e1 	ldr	x1, [sp, #296]
   82df8:	f94093e0 	ldr	x0, [sp, #288]
   82dfc:	9ac00820 	udiv	x0, x1, x0
   82e00:	f9008fe0 	str	x0, [sp, #280]
   82e04:	f9408fe1 	ldr	x1, [sp, #280]
   82e08:	b0000000 	adrp	x0, 83000 <main+0x128>
   82e0c:	91088000 	add	x0, x0, #0x220
   82e10:	97fffc21 	bl	81e94 <my_printf>
   82e14:	1400002e 	b	82ecc <shell+0x1cc>
   82e18:	910063e2 	add	x2, sp, #0x18
   82e1c:	b0000000 	adrp	x0, 83000 <main+0x128>
   82e20:	9108a001 	add	x1, x0, #0x228
   82e24:	aa0203e0 	mov	x0, x2
   82e28:	97fffa6b 	bl	817d4 <strcmp>
   82e2c:	7100001f 	cmp	w0, #0x0
   82e30:	54000061 	b.ne	82e3c <shell+0x13c>  // b.any
   82e34:	d4000021 	svc	#0x1
   82e38:	14000025 	b	82ecc <shell+0x1cc>
   82e3c:	910063e2 	add	x2, sp, #0x18
   82e40:	b0000000 	adrp	x0, 83000 <main+0x128>
   82e44:	9108c001 	add	x1, x0, #0x230
   82e48:	aa0203e0 	mov	x0, x2
   82e4c:	97fffa62 	bl	817d4 <strcmp>
   82e50:	7100001f 	cmp	w0, #0x0
   82e54:	540000c1 	b.ne	82e6c <shell+0x16c>  // b.any
   82e58:	b0000000 	adrp	x0, 83000 <main+0x128>
   82e5c:	9108e000 	add	x0, x0, #0x238
   82e60:	97fffc0d 	bl	81e94 <my_printf>
   82e64:	d4000041 	svc	#0x2
   82e68:	14000019 	b	82ecc <shell+0x1cc>
   82e6c:	910063e2 	add	x2, sp, #0x18
   82e70:	b0000000 	adrp	x0, 83000 <main+0x128>
   82e74:	91090001 	add	x1, x0, #0x240
   82e78:	aa0203e0 	mov	x0, x2
   82e7c:	97fffa56 	bl	817d4 <strcmp>
   82e80:	7100001f 	cmp	w0, #0x0
   82e84:	54000081 	b.ne	82e94 <shell+0x194>  // b.any
   82e88:	52800140 	mov	w0, #0xa                   	// #10
   82e8c:	97ffff4f 	bl	82bc8 <reset>
   82e90:	1400000f 	b	82ecc <shell+0x1cc>
   82e94:	910063e2 	add	x2, sp, #0x18
   82e98:	b0000000 	adrp	x0, 83000 <main+0x128>
   82e9c:	91092001 	add	x1, x0, #0x248
   82ea0:	aa0203e0 	mov	x0, x2
   82ea4:	97fffa4c 	bl	817d4 <strcmp>
   82ea8:	7100001f 	cmp	w0, #0x0
   82eac:	540000a1 	b.ne	82ec0 <shell+0x1c0>  // b.any
   82eb0:	b0000000 	adrp	x0, 83000 <main+0x128>
   82eb4:	91094000 	add	x0, x0, #0x250
   82eb8:	97fffbf7 	bl	81e94 <my_printf>
   82ebc:	14000004 	b	82ecc <shell+0x1cc>
   82ec0:	b0000000 	adrp	x0, 83000 <main+0x128>
   82ec4:	91098000 	add	x0, x0, #0x260
   82ec8:	97fffbf3 	bl	81e94 <my_printf>
   82ecc:	d503201f 	nop
   82ed0:	a8d37bfd 	ldp	x29, x30, [sp], #304
   82ed4:	d65f03c0 	ret

0000000000082ed8 <main>:
   82ed8:	a9bf7bfd 	stp	x29, x30, [sp, #-16]!
   82edc:	910003fd 	mov	x29, sp
   82ee0:	97fffaf8 	bl	81ac0 <uart1_init>
   82ee4:	97fffd58 	bl	82444 <fb_init>
   82ee8:	97fffea0 	bl	82968 <fb_loadSplashImage>
   82eec:	b0000000 	adrp	x0, 83000 <main+0x128>
   82ef0:	9109e000 	add	x0, x0, #0x278
   82ef4:	97fffb5e 	bl	81c6c <print_s>
   82ef8:	b0000000 	adrp	x0, 83000 <main+0x128>
   82efc:	910a2000 	add	x0, x0, #0x288
   82f00:	97fffb5b 	bl	81c6c <print_s>
   82f04:	97ffff7f 	bl	82d00 <shell>
   82f08:	17ffffff 	b	82f04 <main+0x2c>

Disassembly of section .rodata:

0000000000082f10 <.rodata>:
   82f10:	6d6d7564 	ldp	d4, d29, [x11, #-304]
   82f14:	78655f79 	.inst	0x78655f79 ; undefined
   82f18:	74706563 	.inst	0x74706563 ; undefined
   82f1c:	5f6e6f69 	.inst	0x5f6e6f69 ; undefined
   82f20:	646e6168 	.inst	0x646e6168 ; undefined
   82f24:	0a72656c 	bic	w12, w11, w18, lsr #25
	...
   82f30:	20535349 	.inst	0x20535349 ; undefined
   82f34:	2030203d 	.inst	0x2030203d ; undefined
   82f38:	0a3f3f3f 	bic	wzr, w25, wzr, lsl #15
   82f3c:	00000000 	udf	#0
   82f40:	65707974 	fnmls	z20.h, p6/m, z11.h, z16.h
   82f44:	7825203a 	ldeorh	w5, w26, [x1]
   82f48:	0000000a 	udf	#10
   82f4c:	00000000 	udf	#0
   82f50:	65637845 	fnmls	z5.h, p6/m, z2.h, z3.h
   82f54:	6f697470 	uqshl	v16.2d, v3.2d, #41
   82f58:	6572206e 	fmls	z14.h, p0/m, z3.h, z18.h
   82f5c:	6e727574 	uabd	v20.8h, v11.8h, v18.8h
   82f60:	64646120 	.inst	0x64646120 ; undefined
   82f64:	73736572 	.inst	0x73736572 ; undefined
   82f68:	25783020 	whilewr	p0.h, x1, x24
   82f6c:	00000a78 	udf	#2680
   82f70:	29434528 	ldp	w8, w17, [x9, #24]
   82f74:	65637845 	fnmls	z5.h, p6/m, z2.h, z3.h
   82f78:	6f697470 	uqshl	v16.2d, v3.2d, #41
   82f7c:	6c63206e 	ldnp	d14, d8, [x3, #-464]
   82f80:	20737361 	.inst	0x20737361 ; undefined
   82f84:	78257830 	strh	w16, [x1, x5, lsl #1]
   82f88:	0000000a 	udf	#10
   82f8c:	00000000 	udf	#0
   82f90:	53534928 	.inst	0x53534928 ; undefined
   82f94:	736e4929 	.inst	0x736e4929 ; undefined
   82f98:	63757274 	.inst	0x63757274 ; undefined
   82f9c:	6e6f6974 	.inst	0x6e6f6974 ; undefined
   82fa0:	65707320 	fnmls	z0.h, p4/m, z25.h, z16.h
   82fa4:	69666963 	ldpsw	x3, x26, [x11, #-208]
   82fa8:	79732063 	ldrh	w3, [x3, #6544]
   82fac:	6f72646e 	sqshlu	v14.2d, v3.2d, #50
   82fb0:	3020656d 	adr	x13, c3c5d <_end+0x3ab4d>
   82fb4:	0a782578 	bic	w24, w11, w24, lsr #9
	...
   82fc0:	5f717269 	sqdmlsl	s9, h19, v1.h[3]
   82fc4:	646e6168 	.inst	0x646e6168 ; undefined
   82fc8:	0a72656c 	bic	w12, w11, w18, lsr #25
   82fcc:	00000000 	udf	#0
   82fd0:	5f716966 	.inst	0x5f716966 ; undefined
   82fd4:	646e6168 	.inst	0x646e6168 ; undefined
   82fd8:	0a72656c 	bic	w12, w11, w18, lsr #25
   82fdc:	00000000 	udf	#0
   82fe0:	72726573 	.inst	0x72726573 ; undefined
   82fe4:	6e61685f 	fcvtxn2	v31.4s, v2.2d
   82fe8:	72656c64 	.inst	0x72656c64 ; undefined
   82fec:	0000000a 	udf	#10
   82ff0:	000a4b4f 	.inst	0x000a4b4f ; undefined
   82ff4:	00000000 	udf	#0
   82ff8:	33323130 	.inst	0x33323130 ; undefined
   82ffc:	37363534 	tbnz	w20, #6, 7f6a0 <__bss_size+0x7f47e>
   83000:	62613938 	.inst	0x62613938 ; undefined
   83004:	66656463 	.inst	0x66656463 ; undefined
	...
   83010:	72616f62 	.inst	0x72616f62 ; undefined
   83014:	65725f64 	fnmla	z4.h, p7/m, z27.h, z18.h
   83018:	69736976 	ldpsw	x22, x26, [x11, #-104]
   8301c:	203a6e6f 	.inst	0x203a6e6f ; undefined
   83020:	78257830 	strh	w16, [x1, x5, lsl #1]
   83024:	0000000a 	udf	#10
   83028:	65736162 	fnmls	z2.h, p0/m, z11.h, z19.h
   8302c:	6464615f 	.inst	0x6464615f ; undefined
   83030:	30203a72 	adr	x18, c377d <_end+0x3a66d>
   83034:	0a782578 	bic	w24, w11, w24, lsr #9
	...
   83040:	657a6973 	fnmls	z19.h, p2/m, z11.h, z26.h
   83044:	7830203a 	ldeorh	w16, w26, [x1]
   83048:	000a7825 	.inst	0x000a7825 ; undefined
   8304c:	00000000 	udf	#0
   83050:	5f6b6c63 	.inst	0x5f6b6c63 ; undefined
   83054:	203a6469 	.inst	0x203a6469 ; undefined
   83058:	000a6425 	.inst	0x000a6425 ; undefined
   8305c:	00000000 	udf	#0
   83060:	5f6b6c63 	.inst	0x5f6b6c63 ; undefined
   83064:	74617473 	.inst	0x74617473 ; undefined
   83068:	25203a65 	.inst	0x25203a65 ; undefined
   8306c:	00000a64 	udf	#2660
   83070:	5f6b6c63 	.inst	0x5f6b6c63 ; undefined
   83074:	65746172 	fnmls	z18.h, p0/m, z11.h, z20.h
   83078:	6425203a 	fmul	z26.h, z1.h, z5.h[0]
   8307c:	0000000a 	udf	#10
   83080:	676e656c 	.inst	0x676e656c ; undefined
   83084:	203a6874 	.inst	0x203a6874 ; undefined
   83088:	000a6425 	.inst	0x000a6425 ; undefined
   8308c:	00000000 	udf	#0
   83090:	20716552 	.inst	0x20716552 ; undefined
   83094:	75736572 	.inst	0x75736572 ; undefined
   83098:	203a746c 	.inst	0x203a746c ; undefined
   8309c:	000a6425 	.inst	0x000a6425 ; undefined
   830a0:	625f6266 	.inst	0x625f6266 ; undefined
   830a4:	3a657361 	.inst	0x3a657361 ; undefined
   830a8:	25783020 	whilewr	p0.h, x1, x24
   830ac:	00000a78 	udf	#2680
   830b0:	735f6266 	.inst	0x735f6266 ; undefined
   830b4:	3a657a69 	.inst	0x3a657a69 ; undefined
   830b8:	0a642520 	bic	w0, w9, w4, lsr #9
   830bc:	00000000 	udf	#0
   830c0:	63746970 	.inst	0x63746970 ; undefined
   830c4:	25203a68 	.inst	0x25203a68 ; undefined
   830c8:	00000a64 	udf	#2660
   830cc:	00000000 	udf	#0
   830d0:	65726f63 	fnmls	z3.h, p3/m, z27.h, z18.h
   830d4:	6d697420 	ldp	d0, d29, [x1, #-368]
   830d8:	000a7265 	.inst	0x000a7265 ; undefined
   830dc:	00000000 	udf	#0
   830e0:	61636f6c 	.inst	0x61636f6c ; undefined
   830e4:	6974206c 	ldpsw	x12, x8, [x3, #-96]
   830e8:	0a72656d 	bic	w13, w11, w18, lsr #25
   830ec:	00000000 	udf	#0
   830f0:	00082008 	.inst	0x00082008 ; undefined
   830f4:	00000000 	udf	#0
   830f8:	0000000a 	udf	#10
   830fc:	00000000 	udf	#0
   83100:	00002024 	udf	#8228
   83104:	00000000 	udf	#0
   83108:	706c6568 	adr	x8, 15bdb7 <_end+0xd2ca7>
   8310c:	00000000 	udf	#0
   83110:	706c6568 	adr	x8, 15bdbf <_end+0xd2caf>
   83114:	20202020 	.inst	0x20202020 ; undefined
   83118:	3a092020 	.inst	0x3a092020 ; undefined
   8311c:	69727020 	ldpsw	x0, x28, [x1, #-112]
   83120:	7420746e 	.inst	0x7420746e ; undefined
   83124:	20736968 	.inst	0x20736968 ; undefined
   83128:	706c6568 	adr	x8, 15bdd7 <_end+0xd2cc7>
   8312c:	6e656d20 	umin	v0.8h, v9.8h, v5.8h
   83130:	65680a75 	fmla	z21.h, p2/m, z19.h, z8.h
   83134:	206f6c6c 	.inst	0x206f6c6c ; undefined
   83138:	20202020 	.inst	0x20202020 ; undefined
   8313c:	70203a09 	adr	x9, c387f <_end+0x3a76f>
   83140:	746e6972 	.inst	0x746e6972 ; undefined
   83144:	6c654820 	ldnp	d0, d18, [x1, #-432]
   83148:	57206f6c 	.inst	0x57206f6c ; undefined
   8314c:	646c726f 	.inst	0x646c726f ; undefined
   83150:	77680a21 	.inst	0x77680a21 ; undefined
   83154:	20202020 	.inst	0x20202020 ; undefined
   83158:	203a0909 	.inst	0x203a0909 ; undefined
   8315c:	6e697270 	uabdl2	v16.4s, v19.8h, v9.8h
   83160:	57482074 	.inst	0x57482074 ; undefined
   83164:	666e6920 	.inst	0x666e6920 ; undefined
   83168:	740a216f 	.inst	0x740a216f ; undefined
   8316c:	73656d69 	.inst	0x73656d69 ; undefined
   83170:	706d6174 	adr	x20, 15dd9f <_end+0xd4c8f>
   83174:	203a0920 	.inst	0x203a0920 ; undefined
   83178:	6e697270 	uabdl2	v16.4s, v19.8h, v9.8h
   8317c:	79732074 	ldrh	w20, [x3, #6544]
   83180:	6d657473 	ldp	d19, d29, [x3, #-432]
   83184:	6d697420 	ldp	d0, d29, [x1, #-368]
   83188:	61747365 	.inst	0x61747365 ; undefined
   8318c:	650a706d 	.inst	0x650a706d ; undefined
   83190:	09206378 	.inst	0x09206378 ; undefined
   83194:	74203a09 	.inst	0x74203a09 ; undefined
   83198:	20706172 	.inst	0x20706172 ; undefined
   8319c:	78652061 	ldeorlh	w5, w1, [x3]
   831a0:	706f6563 	adr	x3, 161e4f <_end+0xd8d3f>
   831a4:	6e6f6974 	.inst	0x6e6f6974 ; undefined
   831a8:	7172690a 	subs	w10, w8, #0xc9a, lsl #12
   831ac:	3a090920 	.inst	0x3a090920 ; undefined
   831b0:	696e6920 	ldpsw	x0, x26, [x9, #-144]
   831b4:	6c616974 	ldnp	d20, d26, [x11, #-496]
   831b8:	6d697420 	ldp	d0, d29, [x1, #-368]
   831bc:	69207265 	stgp	x5, x28, [x19, #-1024]
   831c0:	7265746e 	.inst	0x7265746e ; undefined
   831c4:	74707572 	.inst	0x74707572 ; undefined
   831c8:	65720a73 	fmla	z19.h, p2/m, z19.h, z18.h
   831cc:	746f6f62 	.inst	0x746f6f62 ; undefined
   831d0:	20202020 	.inst	0x20202020 ; undefined
   831d4:	72203a09 	ands	w9, w16, #0x7fff
   831d8:	6f6f6265 	umlsl2	v5.4s, v19.8h, v15.h[2]
   831dc:	68742074 	.inst	0x68742074 ; undefined
   831e0:	65642065 	fmls	z5.h, p0/m, z3.h, z4.h
   831e4:	65636976 	fnmls	z22.h, p2/m, z11.h, z3.h
   831e8:	00000a0d 	udf	#2573
   831ec:	00000000 	udf	#0
   831f0:	6c6c6568 	ldnp	d8, d25, [x11, #-320]
   831f4:	0000006f 	udf	#111
   831f8:	6c6c6548 	ldnp	d8, d25, [x10, #-320]
   831fc:	6f57206f 	umlal2	v15.4s, v3.8h, v7.h[1]
   83200:	21646c72 	.inst	0x21646c72 ; undefined
   83204:	0000000a 	udf	#10
   83208:	00007768 	udf	#30568
   8320c:	00000000 	udf	#0
   83210:	656d6974 	fnmls	z20.h, p2/m, z11.h, z13.h
   83214:	6d617473 	ldp	d19, d29, [x3, #-496]
   83218:	00000070 	udf	#112
   8321c:	00000000 	udf	#0
   83220:	5d64255b 	.inst	0x5d64255b ; undefined
   83224:	0000000a 	udf	#10
   83228:	00637865 	.inst	0x00637865 ; undefined
   8322c:	00000000 	udf	#0
   83230:	00717269 	.inst	0x00717269 ; undefined
   83234:	00000000 	udf	#0
   83238:	656d6974 	fnmls	z20.h, p2/m, z11.h, z13.h
   8323c:	00000a72 	udf	#2674
   83240:	6f626572 	sqshlu	v18.2d, v11.2d, #34
   83244:	0000746f 	udf	#29807
   83248:	61656c63 	.inst	0x61656c63 ; undefined
   8324c:	00000072 	udf	#114
   83250:	4a325b1b 	eon	w27, w24, w18, lsl #22
   83254:	3b315b1b 	.inst	0x3b315b1b ; undefined
   83258:	00004831 	udf	#18481
   8325c:	00000000 	udf	#0
   83260:	6d6d6f63 	ldp	d3, d27, [x27, #-304]
   83264:	20646e61 	.inst	0x20646e61 ; undefined
   83268:	20746f6e 	.inst	0x20746f6e ; undefined
   8326c:	6e756f66 	umin	v6.8h, v27.8h, v21.8h
   83270:	00000a64 	udf	#2660
   83274:	00000000 	udf	#0
   83278:	4a325b1b 	eon	w27, w24, w18, lsl #22
   8327c:	3b315b1b 	.inst	0x3b315b1b ; undefined
   83280:	00004831 	udf	#18481
   83284:	00000000 	udf	#0
   83288:	746f6f42 	.inst	0x746f6f42 ; undefined
   8328c:	64616f6c 	.inst	0x64616f6c ; undefined
   83290:	72207265 	ands	w5, w19, #0x1fffffff
   83294:	696e6e75 	ldpsw	x21, x27, [x19, #-144]
   83298:	6920676e 	stgp	x14, x25, [x27, #-1024]
   8329c:	4551206e 	.inst	0x4551206e ; undefined
   832a0:	4720554d 	.inst	0x4720554d ; undefined
   832a4:	0a214955 	bic	w21, w10, w1, lsl #18
	...

Disassembly of section .bss:

0000000000084000 <__bss_start>:
	...

0000000000085000 <mailbox>:
	...

0000000000085100 <fb_base>:
	...

0000000000085108 <fb_size>:
   85108:	00000000 	udf	#0

000000000008510c <fb_pitch>:
   8510c:	00000000 	udf	#0

Disassembly of section .stack:

0000000000085110 <stack_bottom>:
	...

Disassembly of section .debug_info:

0000000000000000 <.debug_info>:
   0:	0000016d 	udf	#365
   4:	08010005 	stxrb	w1, w5, [x0]
   8:	00000000 	udf	#0
   c:	001ebf07 	.inst	0x001ebf07 ; undefined
  10:	00001d00 	udf	#7424
  14:	000d0000 	.inst	0x000d0000 ; undefined
  18:	01080000 	.inst	0x01080000 ; undefined
  1c:	00000008 	udf	#8
  20:	01580000 	.inst	0x01580000 ; undefined
	...
  30:	e7020000 	.inst	0xe7020000 ; undefined
  34:	05000028 	orr	z8.s, z8.s, #0x3
  38:	0000003e 	udf	#62
  3c:	7c020001 	stur	h1, [x0, #32]
  40:	0300002f 	.inst	0x0300002f ; undefined
  44:	0000004a 	udf	#74
  48:	1d020001 	.inst	0x1d020001 ; undefined
  4c:	0400001b 	add	z27.b, p0/m, z27.b, z0.b
  50:	00000056 	udf	#86
  54:	89020001 	.inst	0x89020001 ; undefined
  58:	02000004 	.inst	0x02000004 ; undefined
  5c:	00000062 	udf	#98
  60:	e8080001 	.inst	0xe8080001 ; undefined
  64:	03000018 	.inst	0x03000018 ; undefined
  68:	0075060e 	.inst	0x0075060e ; undefined
  6c:	75090000 	.inst	0x75090000 ; undefined
  70:	01000000 	.inst	0x01000000 ; undefined
  74:	82080a00 	.inst	0x82080a00 ; undefined
  78:	04000000 	add	z0.b, p0/m, z0.b, z0.b
  7c:	28510801 	ldnp	w1, w2, [x0, #136]
  80:	7b0b0000 	.inst	0x7b0b0000 ; undefined
  84:	03000000 	.inst	0x03000000 ; undefined
  88:	00003055 	udf	#12373
  8c:	08024035 	stxrb	w2, w21, [x1]
  90:	00000000 	udf	#0
  94:	00002000 	udf	#8192
  98:	00000000 	udf	#0
  9c:	039c0100 	.inst	0x039c0100 ; undefined
  a0:	0000248d 	udf	#9357
  a4:	08022030 	stxrb	w2, w16, [x1]
  a8:	00000000 	udf	#0
  ac:	00002000 	udf	#8192
  b0:	00000000 	udf	#0
  b4:	039c0100 	.inst	0x039c0100 ; undefined
  b8:	00000ecf 	udf	#3791
  bc:	0801f827 	stlxrb	w1, w7, [x1]
  c0:	00000000 	udf	#0
  c4:	00002800 	udf	#10240
  c8:	00000000 	udf	#0
  cc:	0c9c0100 	st4	{v0.8b-v3.8b}, [x8], x28
  d0:	00000c2e 	udf	#3118
  d4:	40061101 	.inst	0x40061101 ; undefined
  d8:	00000801 	udf	#2049
  dc:	b8000000 	stur	w0, [x0]
  e0:	00000000 	udf	#0
  e4:	01000000 	.inst	0x01000000 ; undefined
  e8:	0001309c 	.inst	0x0001309c ; undefined
  ec:	2e9f0d00 	.inst	0x2e9f0d00 ; undefined
  f0:	11010000 	add	w0, w0, #0x40
  f4:	00013021 	.inst	0x00013021 ; undefined
  f8:	68910200 	stgp	x0, x0, [x16], #544
  fc:	72736505 	.inst	0x72736505 ; undefined
 100:	01303500 	.inst	0x01303500 ; undefined
 104:	91020000 	add	x0, x0, #0x80
 108:	6c650560 	ldnp	d0, d1, [x11, #-432]
 10c:	30480072 	adr	x18, 90119 <_end+0x7009>
 110:	02000001 	.inst	0x02000001 ; undefined
 114:	69065891 	stgp	x17, x22, [x4, #192]
 118:	06007373 	.inst	0x06007373 ; undefined
 11c:	00000137 	udf	#311
 120:	067c9102 	.inst	0x067c9102 ; undefined
 124:	0b006365 	add	w5, w27, w0, lsl #24
 128:	00000137 	udf	#311
 12c:	00789102 	.inst	0x00789102 ; undefined
 130:	c6070804 	.inst	0xc6070804 ; undefined
 134:	0e000008 	tbl	v8.8b, {v0.16b}, v0.8b
 138:	6e690504 	uhadd	v4.8h, v8.8h, v9.8h
 13c:	7b030074 	.inst	0x7b030074 ; undefined
 140:	0c000027 	st4	{v7.8b-v10.8b}, [x1]
 144:	00080120 	.inst	0x00080120 ; undefined
 148:	00000000 	udf	#0
 14c:	00000020 	udf	#32
 150:	00000000 	udf	#0
 154:	770f9c01 	.inst	0x770f9c01 ; undefined
 158:	01000019 	.inst	0x01000019 ; undefined
 15c:	01080608 	.inst	0x01080608 ; undefined
 160:	00000008 	udf	#8
 164:	00180000 	.inst	0x00180000 ; undefined
 168:	00000000 	udf	#0
 16c:	9c010000 	ldr	q0, 216c <__bss_size+0x1f4a>
 170:	00002500 	udf	#9472
 174:	01000500 	.inst	0x01000500 ; undefined
 178:	0000f408 	udf	#62472
 17c:	00b30100 	.inst	0x00b30100 ; undefined
 180:	08000000 	stxrb	w0, w0, [x0]
 184:	00000008 	udf	#8
 188:	1f840000 	.inst	0x1f840000 ; undefined
 18c:	000037e7 	udf	#14311
 190:	000037f0 	udf	#14320
 194:	00003815 	udf	#14357
 198:	00258001 	.inst	0x00258001 ; NYI
 19c:	00050000 	.inst	0x00050000 ; undefined
 1a0:	01080801 	.inst	0x01080801 ; undefined
 1a4:	32010000 	orr	w0, w0, #0x80000000
 1a8:	00000001 	udf	#1
 1ac:	00000800 	udf	#2048
 1b0:	88000000 	stxr	w0, w0, [x0]
 1b4:	00382102 	.inst	0x00382102 ; NYI
 1b8:	0037f000 	.inst	0x0037f000 ; NYI
 1bc:	00381500 	.inst	0x00381500 ; NYI
 1c0:	11800100 	.inst	0x11800100 ; undefined
 1c4:	05000001 	orr	z1.s, z1.s, #0x1
 1c8:	1c080100 	ldr	s0, 101e8 <__bss_size+0xffc6>
 1cc:	05000001 	orr	z1.s, z1.s, #0x1
 1d0:	00001ebf 	udf	#7871
 1d4:	0000581d 	udf	#22557
 1d8:	00000d00 	udf	#3328
 1dc:	08178400 	stlxrb	w23, w0, [x0]
 1e0:	00000000 	udf	#0
 1e4:	00013800 	.inst	0x00013800 ; undefined
 1e8:	00000000 	udf	#0
 1ec:	0001b100 	.inst	0x0001b100 ; undefined
 1f0:	000aa400 	.inst	0x000aa400 ; undefined
 1f4:	38290200 	ldaddb	w9, w0, [x16]
 1f8:	6c190000 	stnp	d0, d0, [x0, #400]
 1fc:	78000000 	sturh	w0, [x0]
 200:	00000818 	udf	#2072
 204:	44000000 	.inst	0x44000000 ; undefined
 208:	00000000 	udf	#0
 20c:	01000000 	.inst	0x01000000 ; undefined
 210:	00006c9c 	udf	#27804
 214:	00730100 	.inst	0x00730100 ; undefined
 218:	00731819 	.inst	0x00731819 ; undefined
 21c:	91020000 	add	x0, x0, #0x80
 220:	00690668 	.inst	0x00690668 ; undefined
 224:	6c091b01 	stnp	d1, d6, [x24, #144]
 228:	02000000 	.inst	0x02000000 ; undefined
 22c:	07007c91 	.inst	0x07007c91 ; undefined
 230:	6e690504 	uhadd	v4.8h, v8.8h, v9.8h
 234:	7f030074 	.inst	0x7f030074 ; undefined
 238:	04000000 	add	z0.b, p0/m, z0.b, z0.b
 23c:	28510801 	ldnp	w1, w2, [x0, #136]
 240:	78080000 	sturh	w0, [x0, #128]
 244:	02000000 	.inst	0x02000000 ; undefined
 248:	00003837 	udf	#14391
 24c:	00006c0a 	udf	#27658
 250:	0817d400 	stlxrb	w23, w0, [x0]
 254:	00000000 	udf	#0
 258:	0000a400 	udf	#41984
 25c:	00000000 	udf	#0
 260:	bf9c0100 	.inst	0xbf9c0100 ; undefined
 264:	01000000 	.inst	0x01000000 ; undefined
 268:	0a003173 	and	w19, w11, w0, lsl #12
 26c:	00007318 	udf	#29464
 270:	78910200 	ldursh	x0, [x16, #-240]
 274:	00327301 	.inst	0x00327301 ; NYI
 278:	0073280a 	.inst	0x0073280a ; undefined
 27c:	91020000 	add	x0, x0, #0x80
 280:	30090070 	adr	x16, 1228d <__bss_size+0x1206b>
 284:	01000038 	.inst	0x01000038 ; undefined
 288:	17840602 	b	fffffffffe101a90 <_end+0xfffffffffe078980>
 28c:	00000008 	udf	#8
 290:	00500000 	.inst	0x00500000 ; undefined
 294:	00000000 	udf	#0
 298:	9c010000 	ldr	q0, 2298 <__bss_size+0x2076>
 29c:	00000108 	udf	#264
 2a0:	67656201 	.inst	0x67656201 ; undefined
 2a4:	081b0200 	stxrb	w27, w0, [x16]
 2a8:	02000001 	.inst	0x02000001 ; undefined
 2ac:	76017891 	.inst	0x76017891 ; undefined
 2b0:	02006c61 	.inst	0x02006c61 ; undefined
 2b4:	00010d2d 	.inst	0x00010d2d ; undefined
 2b8:	74910200 	.inst	0x74910200 ; undefined
 2bc:	6e656c01 	umin	v1.8h, v0.8h, v5.8h
 2c0:	0d3f0200 	.inst	0x0d3f0200 ; undefined
 2c4:	02000001 	.inst	0x02000001 ; undefined
 2c8:	03007091 	.inst	0x03007091 ; undefined
 2cc:	0000010d 	udf	#269
 2d0:	6e070404 	mov	v4.b[3], v0.b[0]
 2d4:	00000027 	udf	#39
 2d8:	00000389 	udf	#905
 2dc:	08010005 	stxrb	w1, w5, [x0]
 2e0:	000001b6 	udf	#438
 2e4:	001ebf0d 	.inst	0x001ebf0d ; undefined
 2e8:	005f1d00 	.inst	0x005f1d00 ; undefined
 2ec:	000d0000 	.inst	0x000d0000 ; undefined
 2f0:	18bc0000 	ldr	w0, fffffffffff782f0 <_end+0xffffffffffeef1e0>
 2f4:	00000008 	udf	#8
 2f8:	07ec0000 	.inst	0x07ec0000 ; undefined
 2fc:	00000000 	udf	#0
 300:	02610000 	.inst	0x02610000 ; undefined
 304:	0ab50000 	bic	w0, w0, w21, asr #0
 308:	08050000 	stxrb	w5, w0, [x0]
 30c:	0008c607 	.inst	0x0008c607 ; undefined
 310:	07040500 	.inst	0x07040500 ; undefined
 314:	0000276e 	udf	#10094
 318:	00391f0e 	.inst	0x00391f0e ; NYI
 31c:	051c0200 	mov	z0.b, p12/z, #16
 320:	00000052 	udf	#82
 324:	00000052 	udf	#82
 328:	040f0006 	.inst	0x040f0006 ; undefined
 32c:	746e6905 	.inst	0x746e6905 ; undefined
 330:	39f61000 	ldrsb	w0, [x0, #3460]
 334:	1b020000 	madd	w0, w0, w2, w0
 338:	00006706 	udf	#26374
 33c:	02000600 	.inst	0x02000600 ; undefined
 340:	000018e8 	udf	#6376
 344:	081e94c9 	stlxrb	w30, w9, [x6]
 348:	00000000 	udf	#0
 34c:	00021400 	.inst	0x00021400 ; undefined
 350:	00000000 	udf	#0
 354:	a39c0100 	.inst	0xa39c0100 ; undefined
 358:	03000000 	.inst	0x03000000 ; undefined
 35c:	00746d66 	.inst	0x00746d66 ; undefined
 360:	00a31cc9 	.inst	0x00a31cc9 ; undefined
 364:	91030000 	add	x0, x0, #0xc0
 368:	07067e98 	.inst	0x07067e98 ; undefined
 36c:	0000389b 	udf	#14491
 370:	00b517ca 	.inst	0x00b517ca ; undefined
 374:	91030000 	add	x0, x0, #0xc0
 378:	11007ea0 	add	w0, w21, #0x1f
 37c:	0000b008 	udf	#45064
 380:	08010500 	stxrb	w1, w0, [x8]
 384:	00002851 	udf	#10321
 388:	0000a912 	udf	#43282
 38c:	47e81300 	.inst	0x47e81300 ; undefined
 390:	03200000 	.inst	0x03200000 ; undefined
 394:	0000f400 	udf	#62464
 398:	3aa10400 	.inst	0x3aa10400 ; undefined
 39c:	00f40000 	.inst	0x00f40000 ; undefined
 3a0:	04000000 	add	z0.b, p0/m, z0.b, z0.b
 3a4:	0000383e 	udf	#14398
 3a8:	000000f4 	udf	#244
 3ac:	3a730408 	.inst	0x3a730408 ; undefined
 3b0:	00f40000 	.inst	0x00f40000 ; undefined
 3b4:	04100000 	mul	z0.b, p0/m, z0.b, z0.b
 3b8:	00003954 	udf	#14676
 3bc:	00000052 	udf	#82
 3c0:	3a690418 	.inst	0x3a690418 ; undefined
 3c4:	00520000 	.inst	0x00520000 ; undefined
 3c8:	001c0000 	.inst	0x001c0000 ; undefined
 3cc:	a8020814 	stnp	x20, x2, [x0, #32]
 3d0:	b3000038 	.inst	0xb3000038 ; undefined
 3d4:	00081dd8 	.inst	0x00081dd8 ; undefined
 3d8:	00000000 	udf	#0
 3dc:	000000bc 	udf	#188
 3e0:	00000000 	udf	#0
 3e4:	014a9c01 	.inst	0x014a9c01 ; undefined
 3e8:	4e080000 	tbl	v0.16b, {v0.16b}, v8.16b
 3ec:	b3000039 	.inst	0xb3000039 ; undefined
 3f0:	0000391b 	udf	#14619
 3f4:	bc910300 	.inst	0xbc910300 ; undefined
 3f8:	39d5077f 	ldrsb	wzr, [x27, #1345]
 3fc:	0ab50000 	bic	w0, w0, w21, asr #0
 400:	0000014a 	udf	#330
 404:	01689102 	.inst	0x01689102 ; undefined
 408:	09b60069 	.inst	0x09b60069 ; undefined
 40c:	00000052 	udf	#82
 410:	017c9102 	.inst	0x017c9102 ; undefined
 414:	00667562 	.inst	0x00667562 ; undefined
 418:	015a0ab7 	.inst	0x015a0ab7 ; undefined
 41c:	91020000 	add	x0, x0, #0x80
 420:	a9090048 	stp	x8, x0, [x2, #144]
 424:	5a000000 	sbc	w0, w0, w0
 428:	0a000001 	and	w1, w0, w0
 42c:	00000032 	udf	#50
 430:	a9090010 	stp	x16, x0, [x0, #144]
 434:	6a000000 	ands	w0, w0, w0
 438:	0a000001 	and	w1, w0, w0
 43c:	00000032 	udf	#50
 440:	9302001f 	.inst	0x9302001f ; undefined
 444:	9c000038 	ldr	q24, 448 <__bss_size+0x226>
 448:	00081cac 	.inst	0x00081cac ; undefined
 44c:	00000000 	udf	#0
 450:	0000012c 	udf	#300
 454:	00000000 	udf	#0
 458:	01bd9c01 	.inst	0x01bd9c01 ; undefined
 45c:	4e080000 	tbl	v0.16b, {v0.16b}, v8.16b
 460:	9c000039 	ldr	q25, 464 <__bss_size+0x242>
 464:	00005212 	udf	#21010
 468:	4c910200 	st4	{v0.16b-v3.16b}, [x16], x17
 46c:	67656e01 	.inst	0x67656e01 ; undefined
 470:	52099d00 	eor	w0, w8, #0x7f807f80
 474:	02000000 	.inst	0x02000000 ; undefined
 478:	69017c91 	stgp	x17, xzr, [x4, #32]
 47c:	52109d00 	eor	w0, w8, #0xff00ff
 480:	02000000 	.inst	0x02000000 ; undefined
 484:	62017891 	.inst	0x62017891 ; undefined
 488:	9e006675 	.inst	0x9e006675 ; undefined
 48c:	00015a0a 	.inst	0x00015a0a ; undefined
 490:	58910200 	ldr	x0, fffffffffff224d0 <_end+0xffffffffffe993c0>
 494:	3a381500 	.inst	0x3a381500 ; undefined
 498:	9a010000 	adc	x0, x0, x1
 49c:	081c8c06 	stlxrb	w28, w6, [x0]
 4a0:	00000000 	udf	#0
 4a4:	00002000 	udf	#8192
 4a8:	00000000 	udf	#0
 4ac:	029c0100 	.inst	0x029c0100 ; undefined
 4b0:	000038a0 	udf	#14496
 4b4:	081c6c95 	stxrb	w28, w21, [x4]
 4b8:	00000000 	udf	#0
 4bc:	00002000 	udf	#8192
 4c0:	00000000 	udf	#0
 4c4:	019c0100 	.inst	0x019c0100 ; undefined
 4c8:	03000002 	.inst	0x03000002 ; undefined
 4cc:	95006863 	bl	401a658 <_end+0x3f91548>
 4d0:	0000a31a 	udf	#41754
 4d4:	78910200 	ldursh	x0, [x16, #-240]
 4d8:	388b0200 	ldursb	x0, [x16, #176]
 4dc:	4c940000 	st4	{v0.16b-v3.16b}, [x0], x20
 4e0:	0000081c 	udf	#2076
 4e4:	20000000 	.inst	0x20000000 ; undefined
 4e8:	00000000 	udf	#0
 4ec:	01000000 	.inst	0x01000000 ; undefined
 4f0:	00022b9c 	.inst	0x00022b9c ; undefined
 4f4:	68630300 	.inst	0x68630300 ; undefined
 4f8:	a9139400 	stp	x0, x5, [x0, #312]
 4fc:	02000000 	.inst	0x02000000 ; undefined
 500:	16007f91 	b	fffffffff8020344 <_end+0xfffffffff7f97234>
 504:	000038fc 	udf	#14588
 508:	a9069301 	stp	x1, x4, [x24, #104]
 50c:	34000000 	cbz	w0, 50c <__bss_size+0x2ea>
 510:	0000081c 	udf	#2076
 514:	18000000 	ldr	w0, 514 <__bss_size+0x2f2>
 518:	00000000 	udf	#0
 51c:	01000000 	.inst	0x01000000 ; undefined
 520:	3a0a0b9c 	.inst	0x3a0a0b9c ; undefined
 524:	a9870000 	stp	x0, x0, [x0, #112]!
 528:	e4000000 	.inst	0xe4000000 ; undefined
 52c:	0000081b 	udf	#2075
 530:	50000000 	adr	x0, 532 <__bss_size+0x310>
 534:	00000000 	udf	#0
 538:	01000000 	.inst	0x01000000 ; undefined
 53c:	0002769c 	.inst	0x0002769c ; undefined
 540:	00720100 	.inst	0x00720100 ; undefined
 544:	00a90a88 	.inst	0x00a90a88 ; undefined
 548:	91020000 	add	x0, x0, #0x80
 54c:	f102007f 	cmp	x3, #0x80
 550:	80000038 	.inst	0x80000038 ; undefined
 554:	00081b88 	.inst	0x00081b88 ; undefined
 558:	00000000 	udf	#0
 55c:	0000005c 	udf	#92
 560:	00000000 	udf	#0
 564:	02a19c01 	.inst	0x02a19c01 ; undefined
 568:	73030000 	.inst	0x73030000 ; undefined
 56c:	80007274 	.inst	0x80007274 ; undefined
 570:	0000a31d 	udf	#41757
 574:	78910200 	ldursh	x0, [x16, #-240]
 578:	38e60c00 	.inst	0x38e60c00 ; undefined
 57c:	48780000 	.inst	0x48780000 ; undefined
 580:	0000081b 	udf	#2075
 584:	40000000 	.inst	0x40000000 ; undefined
 588:	00000000 	udf	#0
 58c:	01000000 	.inst	0x01000000 ; undefined
 590:	0002ca9c 	.inst	0x0002ca9c ; undefined
 594:	00630300 	.inst	0x00630300 ; undefined
 598:	00a91678 	.inst	0x00a91678 ; undefined
 59c:	91020000 	add	x0, x0, #0x80
 5a0:	1517007f 	b	45c079c <_end+0x453768c>
 5a4:	0100003a 	.inst	0x0100003a ; undefined
 5a8:	1ac00648 	.inst	0x1ac00648 ; undefined
 5ac:	00000008 	udf	#8
 5b0:	00880000 	.inst	0x00880000 ; undefined
 5b4:	00000000 	udf	#0
 5b8:	9c010000 	ldr	q0, 25b8 <__bss_size+0x2396>
 5bc:	0038620b 	.inst	0x0038620b ; NYI
 5c0:	00a93b00 	.inst	0x00a93b00 ; undefined
 5c4:	1a700000 	.inst	0x1a700000 ; undefined
 5c8:	00000008 	udf	#8
 5cc:	00500000 	.inst	0x00500000 ; undefined
 5d0:	00000000 	udf	#0
 5d4:	9c010000 	ldr	q0, 25d4 <__bss_size+0x23b2>
 5d8:	00000311 	udf	#785
 5dc:	3c007201 	stur	b1, [x16, #7]
 5e0:	0000a90a 	udf	#43274
 5e4:	7f910200 	.inst	0x7f910200 ; undefined
 5e8:	39eb0200 	ldrsb	w0, [x16, #2752]
 5ec:	14340000 	b	d005ec <_end+0xc774dc>
 5f0:	0000081a 	udf	#2074
 5f4:	5c000000 	ldr	d0, 5f4 <__bss_size+0x3d2>
 5f8:	00000000 	udf	#0
 5fc:	01000000 	.inst	0x01000000 ; undefined
 600:	00033c9c 	.inst	0x00033c9c ; undefined
 604:	74730300 	.inst	0x74730300 ; undefined
 608:	1d340072 	.inst	0x1d340072 ; undefined
 60c:	000000a3 	udf	#163
 610:	00789102 	.inst	0x00789102 ; undefined
 614:	0039e00c 	.inst	0x0039e00c ; NYI
 618:	19d42f00 	.inst	0x19d42f00 ; undefined
 61c:	00000008 	udf	#8
 620:	00400000 	.inst	0x00400000 ; undefined
 624:	00000000 	udf	#0
 628:	9c010000 	ldr	q0, 2628 <__bss_size+0x2406>
 62c:	00000365 	udf	#869
 630:	2f006303 	.inst	0x2f006303 ; undefined
 634:	0000a916 	udf	#43286
 638:	7f910200 	.inst	0x7f910200 ; undefined
 63c:	3a7c1800 	.inst	0x3a7c1800 ; undefined
 640:	06010000 	.inst	0x06010000 ; undefined
 644:	0818bc06 	stlxrb	w24, w6, [x0]
 648:	00000000 	udf	#0
 64c:	00011800 	.inst	0x00011800 ; undefined
 650:	00000000 	udf	#0
 654:	019c0100 	.inst	0x019c0100 ; undefined
 658:	06070072 	.inst	0x06070072 ; undefined
 65c:	00000052 	udf	#82
 660:	007c9102 	.inst	0x007c9102 ; undefined
 664:	00014400 	.inst	0x00014400 ; undefined
 668:	01000500 	.inst	0x01000500 ; undefined
 66c:	00035108 	.inst	0x00035108 ; undefined
 670:	1ebf0400 	.inst	0x1ebf0400 ; undefined
 674:	7b1d0000 	.inst	0x7b1d0000 ; undefined
 678:	0d000000 	st1	{v0.b}[0], [x0]
 67c:	a8000000 	stnp	x0, x0, [x0]
 680:	00000820 	udf	#2080
 684:	9c000000 	ldr	q0, 684 <__bss_size+0x462>
 688:	00000003 	udf	#3
 68c:	2d000000 	stp	s0, s0, [x0]
 690:	36000005 	tbz	w5, #0, 690 <__bss_size+0x46e>
 694:	0500000b 	orr	z11.s, z11.s, #0x1
 698:	00000055 	udf	#85
 69c:	00000042 	udf	#66
 6a0:	00004706 	udf	#18182
 6a4:	03003f00 	.inst	0x03003f00 ; undefined
 6a8:	00000032 	udf	#50
 6ac:	c6070801 	.inst	0xc6070801 ; undefined
 6b0:	01000008 	.inst	0x01000008 ; undefined
 6b4:	276e0704 	.inst	0x276e0704 ; undefined
 6b8:	4e030000 	tbl	v0.16b, {v0.16b}, v3.16b
 6bc:	07000000 	.inst	0x07000000 ; undefined
 6c0:	00003b35 	udf	#15157
 6c4:	423b1702 	.inst	0x423b1702 ; undefined
 6c8:	10000000 	adr	x0, 6c8 <__bss_size+0x4a6>
 6cc:	00005a08 	udf	#23048
 6d0:	34060100 	cbz	w0, c6f0 <__bss_size+0xc4ce>
 6d4:	50000309 	adr	x9, 736 <__bss_size+0x514>
 6d8:	00000008 	udf	#8
 6dc:	e8090000 	.inst	0xe8090000 ; undefined
 6e0:	03000018 	.inst	0x03000018 ; undefined
 6e4:	008c060e 	.inst	0x008c060e ; undefined
 6e8:	8c0a0000 	.inst	0x8c0a0000 ; undefined
 6ec:	0b000000 	add	w0, w0, w0
 6f0:	99080c00 	.inst	0x99080c00 ; undefined
 6f4:	01000000 	.inst	0x01000000 ; undefined
 6f8:	28510801 	ldnp	w1, w2, [x0, #136]
 6fc:	920d0000 	and	x0, x0, #0x8000000080000
 700:	0e000000 	tbl	v0.8b, {v0.16b}, v0.8b
 704:	0000391f 	udf	#14623
 708:	bc055c01 	str	s1, [x0, #85]!
 70c:	74000000 	.inst	0x74000000 ; undefined
 710:	00000823 	udf	#2083
 714:	d0000000 	adrp	x0, 2000 <__bss_size+0x1dde>
 718:	00000000 	udf	#0
 71c:	01000000 	.inst	0x01000000 ; undefined
 720:	05040f9c 	.inst	0x05040f9c ; undefined
 724:	00746e69 	.inst	0x00746e69 ; undefined
 728:	0039f602 	.inst	0x0039f602 ; NYI
 72c:	22ac4700 	.inst	0x22ac4700 ; undefined
 730:	00000008 	udf	#8
 734:	00c80000 	.inst	0x00c80000 ; undefined
 738:	00000000 	udf	#0
 73c:	9c010000 	ldr	q0, 273c <__bss_size+0x251a>
 740:	003b2202 	.inst	0x003b2202 ; NYI
 744:	21e83300 	.inst	0x21e83300 ; undefined
 748:	00000008 	udf	#8
 74c:	00c40000 	.inst	0x00c40000 ; undefined
 750:	00000000 	udf	#0
 754:	9c010000 	ldr	q0, 2754 <__bss_size+0x2532>
 758:	003b0202 	.inst	0x003b0202 ; NYI
 75c:	214c1f00 	.inst	0x214c1f00 ; undefined
 760:	00000008 	udf	#8
 764:	009c0000 	.inst	0x009c0000 ; undefined
 768:	00000000 	udf	#0
 76c:	9c010000 	ldr	q0, 276c <__bss_size+0x254a>
 770:	003b1510 	.inst	0x003b1510 ; NYI
 774:	05080100 	.inst	0x05080100 ; undefined
 778:	000000bc 	udf	#188
 77c:	000820a8 	.inst	0x000820a8 ; undefined
 780:	00000000 	udf	#0
 784:	000000a4 	udf	#164
 788:	00000000 	udf	#0
 78c:	63119c01 	.inst	0x63119c01 ; undefined
 790:	08010068 	stxrb	w1, w8, [x3]
 794:	0000bc16 	udf	#48150
 798:	6c910200 	stp	d0, d0, [x16], #272
 79c:	71657212 	subs	w18, w16, #0x95c, lsl #12
 7a0:	0f0a0100 	.inst	0x0f0a0100 ; undefined
 7a4:	0000004e 	udf	#78
 7a8:	007c9102 	.inst	0x007c9102 ; undefined
 7ac:	00017300 	.inst	0x00017300 ; undefined
 7b0:	01000500 	.inst	0x01000500 ; undefined
 7b4:	00045b08 	.inst	0x00045b08 ; undefined
 7b8:	1ebf0700 	.inst	0x1ebf0700 ; undefined
 7bc:	8c1d0000 	.inst	0x8c1d0000 ; undefined
 7c0:	0d000000 	st1	{v0.b}[0], [x0]
 7c4:	44000000 	.inst	0x44000000 ; undefined
 7c8:	00000824 	udf	#2084
 7cc:	84000000 	ld1sb	{z0.s}, p0/z, [x0, z0.s, uxtw]
 7d0:	00000006 	udf	#6
 7d4:	4d000000 	st1	{v0.b}[8], [x0]
 7d8:	61000006 	.inst	0x61000006 ; undefined
 7dc:	0800000b 	stxrb	w0, w11, [x0]
 7e0:	00000055 	udf	#85
 7e4:	00000042 	udf	#66
 7e8:	00004709 	udf	#18185
 7ec:	04003f00 	saddv	d0, p7, z24.b
 7f0:	00000032 	udf	#50
 7f4:	c6070802 	.inst	0xc6070802 ; undefined
 7f8:	02000008 	.inst	0x02000008 ; undefined
 7fc:	276e0704 	.inst	0x276e0704 ; undefined
 800:	4e040000 	tbl	v0.16b, {v0.16b}, v4.16b
 804:	0a000000 	and	w0, w0, w0
 808:	00003b35 	udf	#15157
 80c:	423b1702 	.inst	0x423b1702 ; undefined
 810:	10000000 	adr	x0, 810 <__bss_size+0x5ee>
 814:	003b8f01 	.inst	0x003b8f01 ; NYI
 818:	7c161400 	str	h0, [x0], #-159
 81c:	09000000 	.inst	0x09000000 ; undefined
 820:	08510003 	ldxrb	w3, [x0]
 824:	00000000 	udf	#0
 828:	004e0500 	.inst	0x004e0500 ; undefined
 82c:	e5010000 	.inst	0xe5010000 ; undefined
 830:	1500003b 	b	400091c <_end+0x3f7780c>
 834:	0000960c 	udf	#38412
 838:	08030900 	stxrb	w3, w0, [x8]
 83c:	00000851 	udf	#2129
 840:	0b000000 	add	w0, w0, w0
 844:	6e690504 	uhadd	v4.8h, v8.8h, v9.8h
 848:	11010074 	add	w20, w3, #0x40
 84c:	1500003c 	b	400093c <_end+0x3f7782c>
 850:	00009617 	udf	#38423
 854:	0c030900 	.inst	0x0c030900 ; undefined
 858:	00000851 	udf	#2129
 85c:	0c000000 	st4	{v0.8b-v3.8b}, [x0]
 860:	000018e8 	udf	#6376
 864:	c5060e03 	ld1sw	{z3.d}, p3/z, [x16, z6.d, uxtw]
 868:	06000000 	.inst	0x06000000 ; undefined
 86c:	000000c5 	udf	#197
 870:	d105000d 	sub	x13, x0, #0x140
 874:	02000000 	.inst	0x02000000 ; undefined
 878:	28510801 	ldnp	w1, w2, [x0, #136]
 87c:	ca0e0000 	eor	x0, x0, x14
 880:	0f000000 	.inst	0x0f000000 ; undefined
 884:	00003b15 	udf	#15125
 888:	96051802 	bl	fffffffff8146890 <_end+0xfffffffff80bd780>
 88c:	ec000000 	.inst	0xec000000 ; undefined
 890:	06000000 	.inst	0x06000000 ; undefined
 894:	00000096 	udf	#150
 898:	3c6d1000 	.inst	0x3c6d1000 ; undefined
 89c:	65010000 	.inst	0x65010000 ; undefined
 8a0:	08296806 	.inst	0x08296806 ; undefined
 8a4:	00000000 	udf	#0
 8a8:	00016000 	.inst	0x00016000 ; undefined
 8ac:	00000000 	udf	#0
 8b0:	4d9c0100 	st1	{v0.b}[8], [x8], x28
 8b4:	03000001 	.inst	0x03000001 ; undefined
 8b8:	09670078 	.inst	0x09670078 ; undefined
 8bc:	00000096 	udf	#150
 8c0:	037c9102 	.inst	0x037c9102 ; undefined
 8c4:	0b670079 	.inst	0x0b670079 ; undefined
 8c8:	00000096 	udf	#150
 8cc:	01789102 	.inst	0x01789102 ; undefined
 8d0:	00003c65 	udf	#15461
 8d4:	00960968 	.inst	0x00960968 ; undefined
 8d8:	91020000 	add	x0, x0, #0x80
 8dc:	3c430170 	ldur	b16, [x11, #48]
 8e0:	1d680000 	.inst	0x1d680000 ; undefined
 8e4:	00000096 	udf	#150
 8e8:	016c9102 	.inst	0x016c9102 ; undefined
 8ec:	00003bab 	udf	#15275
 8f0:	00960969 	.inst	0x00960969 ; undefined
 8f4:	91020000 	add	x0, x0, #0x80
 8f8:	3b110074 	.inst	0x3b110074 ; undefined
 8fc:	0100003c 	.inst	0x0100003c ; undefined
 900:	24440617 	cmphi	p7.h, p1/z, z16.h, z4.h
 904:	00000008 	udf	#8
 908:	05240000 	ext	z0.b, z0.b, z0.b, #32
 90c:	00000000 	udf	#0
 910:	9c010000 	ldr	q0, 2910 <__bss_size+0x26ee>
 914:	78646903 	ldrh	w3, [x8, x4]
 918:	96091900 	bl	fffffffff8246d18 <_end+0xfffffffff81bdc08>
 91c:	02000000 	.inst	0x02000000 ; undefined
 920:	00007c91 	udf	#31889
 924:	000000fb 	udf	#251
 928:	08010005 	stxrb	w1, w5, [x0]
 92c:	00000553 	udf	#1363
 930:	001ebf03 	.inst	0x001ebf03 ; undefined
 934:	00961d00 	.inst	0x00961d00 ; undefined
 938:	000d0000 	.inst	0x000d0000 ; undefined
 93c:	2ac80000 	orr	w0, w0, w8, ror #0
 940:	00000008 	udf	#8
 944:	00f80000 	.inst	0x00f80000 ; undefined
 948:	00000000 	udf	#0
 94c:	080e0000 	stxrb	w14, w0, [x0]
 950:	0bde0000 	.inst	0x0bde0000 ; undefined
 954:	e8040000 	.inst	0xe8040000 ; undefined
 958:	02000018 	.inst	0x02000018 ; undefined
 95c:	0045060e 	.inst	0x0045060e ; undefined
 960:	45050000 	.inst	0x45050000 ; undefined
 964:	06000000 	.inst	0x06000000 ; undefined
 968:	52080700 	eor	w0, w24, #0x3000000
 96c:	01000000 	.inst	0x01000000 ; undefined
 970:	28510801 	ldnp	w1, w2, [x0, #136]
 974:	4b080000 	sub	w0, w0, w8
 978:	09000000 	.inst	0x09000000 ; undefined
 97c:	000028e7 	udf	#10471
 980:	60062c01 	.inst	0x60062c01 ; undefined
 984:	0000082b 	udf	#2091
 988:	60000000 	.inst	0x60000000 ; undefined
 98c:	00000000 	udf	#0
 990:	01000000 	.inst	0x01000000 ; undefined
 994:	0000839c 	udf	#33692
 998:	006b0a00 	.inst	0x006b0a00 ; undefined
 99c:	83072d01 	.inst	0x83072d01 ; undefined
 9a0:	02000000 	.inst	0x02000000 ; undefined
 9a4:	0b007c91 	add	w17, w4, w0, lsl #31
 9a8:	6e690504 	uhadd	v4.8h, v8.8h, v9.8h
 9ac:	1d0c0074 	.inst	0x1d0c0074 ; undefined
 9b0:	0100001b 	.inst	0x0100001b ; undefined
 9b4:	2b200624 	adds	w4, w17, w0, uxtb #1
 9b8:	00000008 	udf	#8
 9bc:	00400000 	.inst	0x00400000 ; undefined
 9c0:	00000000 	udf	#0
 9c4:	9c010000 	ldr	q0, 29c4 <__bss_size+0x27a2>
 9c8:	000000c3 	udf	#195
 9cc:	003d4302 	.inst	0x003d4302 ; NYI
 9d0:	00c32500 	.inst	0x00c32500 ; undefined
 9d4:	91020000 	add	x0, x0, #0x80
 9d8:	3c92027c 	stur	q28, [x19, #-224]
 9dc:	c3260000 	.inst	0xc3260000 ; undefined
 9e0:	02000000 	.inst	0x02000000 ; undefined
 9e4:	01007891 	.inst	0x01007891 ; undefined
 9e8:	276e0704 	.inst	0x276e0704 ; undefined
 9ec:	7c0d0000 	stur	h0, [x0, #208]
 9f0:	0100002f 	.inst	0x0100002f ; undefined
 9f4:	2af00619 	orn	w25, w16, w16, ror #1
 9f8:	00000008 	udf	#8
 9fc:	00300000 	.inst	0x00300000 ; NYI
 a00:	00000000 	udf	#0
 a04:	9c010000 	ldr	q0, 2a04 <__bss_size+0x27e2>
 a08:	0004890e 	.inst	0x0004890e ; undefined
 a0c:	060b0100 	.inst	0x060b0100 ; undefined
 a10:	00082ac8 	.inst	0x00082ac8 ; undefined
 a14:	00000000 	udf	#0
 a18:	00000028 	udf	#40
 a1c:	00000000 	udf	#0
 a20:	7e009c01 	.inst	0x7e009c01 ; undefined
 a24:	05000000 	orr	z0.s, z0.s, #0x1
 a28:	34080100 	cbz	w0, 10a48 <__bss_size+0x10826>
 a2c:	01000006 	.inst	0x01000006 ; undefined
 a30:	00001ebf 	udf	#7871
 a34:	00009e1d 	udf	#40477
 a38:	00000d00 	udf	#3328
 a3c:	082bc800 	.inst	0x082bc800 ; undefined
 a40:	00000000 	udf	#0
 a44:	00006800 	udf	#26624
 a48:	00000000 	udf	#0
 a4c:	0008ab00 	.inst	0x0008ab00 ; undefined
 a50:	000c0b00 	.inst	0x000c0b00 ; undefined
 a54:	3dbe0200 	str	q0, [x16, #63488]
 a58:	0e010000 	tbl	v0.8b, {v0.16b}, v1.8b
 a5c:	082c0806 	.inst	0x082c0806 ; undefined
 a60:	00000000 	udf	#0
 a64:	00002800 	udf	#10240
 a68:	00000000 	udf	#0
 a6c:	039c0100 	.inst	0x039c0100 ; undefined
 a70:	00003dc5 	udf	#15813
 a74:	c8060601 	stxr	w6, x1, [x16]
 a78:	0000082b 	udf	#2091
 a7c:	40000000 	.inst	0x40000000 ; undefined
 a80:	00000000 	udf	#0
 a84:	01000000 	.inst	0x01000000 ; undefined
 a88:	00007a9c 	udf	#31388
 a8c:	3d8c0400 	str	q0, [x0, #12304]
 a90:	06010000 	.inst	0x06010000 ; undefined
 a94:	00007a10 	udf	#31248
 a98:	7c910200 	.inst	0x7c910200 ; undefined
 a9c:	05040500 	.inst	0x05040500 ; undefined
 aa0:	00746e69 	.inst	0x00746e69 ; undefined
 aa4:	0001df00 	.inst	0x0001df00 ; undefined
 aa8:	01000500 	.inst	0x01000500 ; undefined
 aac:	00069808 	.inst	0x00069808 ; undefined
 ab0:	1ebf0900 	.inst	0x1ebf0900 ; undefined
 ab4:	a61d0000 	.inst	0xa61d0000 ; undefined
 ab8:	0d000000 	st1	{v0.b}[0], [x0]
 abc:	30000000 	adr	x0, abd <__bss_size+0x89b>
 ac0:	0000082c 	udf	#2092
 ac4:	a8000000 	stnp	x0, x0, [x0]
 ac8:	00000002 	udf	#2
 acc:	18000000 	ldr	w0, acc <__bss_size+0x8aa>
 ad0:	2e000009 	ext	v9.8b, v0.8b, v0.8b, #0
 ad4:	0100000c 	.inst	0x0100000c ; undefined
 ad8:	284a0601 	ldnp	w1, w1, [x16, #80]
 adc:	02010000 	.inst	0x02010000 ; undefined
 ae0:	0007b005 	.inst	0x0007b005 ; undefined
 ae4:	05040a00 	.inst	0x05040a00 ; undefined
 ae8:	00746e69 	.inst	0x00746e69 ; undefined
 aec:	d6050801 	.inst	0xd6050801 ; undefined
 af0:	01000020 	.inst	0x01000020 ; undefined
 af4:	2aa30801 	orn	w1, w0, w3, asr #2
 af8:	02010000 	.inst	0x02010000 ; undefined
 afc:	00067a07 	.inst	0x00067a07 ; undefined
 b00:	07040100 	.inst	0x07040100 ; undefined
 b04:	0000276e 	udf	#10094
 b08:	00450a0b 	.inst	0x00450a0b ; undefined
 b0c:	19370500 	.inst	0x19370500 ; undefined
 b10:	0000006f 	udf	#111
 b14:	c6070801 	.inst	0xc6070801 ; undefined
 b18:	03000008 	.inst	0x03000008 ; undefined
 b1c:	00003dc5 	udf	#15813
 b20:	00870103 	.inst	0x00870103 ; undefined
 b24:	40020000 	.inst	0x40020000 ; undefined
 b28:	00000000 	udf	#0
 b2c:	003b2206 	.inst	0x003b2206 ; NYI
 b30:	00931a00 	.inst	0x00931a00 ; undefined
 b34:	00040000 	.inst	0x00040000 ; undefined
 b38:	003b0206 	.inst	0x003b0206 ; NYI
 b3c:	009f1900 	.inst	0x009f1900 ; undefined
 b40:	00040000 	.inst	0x00040000 ; undefined
 b44:	0038370c 	.inst	0x0038370c ; NYI
 b48:	05030600 	orr	z0.d, z0.d, #0xffffffff0001ffff
 b4c:	00000040 	udf	#64
 b50:	000000ba 	udf	#186
 b54:	0000ba02 	udf	#47618
 b58:	00ba0200 	.inst	0x00ba0200 ; undefined
 b5c:	07000000 	.inst	0x07000000 ; undefined
 b60:	000000c6 	udf	#198
 b64:	51080101 	sub	w1, w8, #0x200
 b68:	0d000028 	st1	{v8.b}[0], [x1]
 b6c:	000000bf 	udf	#191
 b70:	0018e803 	.inst	0x0018e803 ; undefined
 b74:	dd0e0400 	.inst	0xdd0e0400 ; undefined
 b78:	02000000 	.inst	0x02000000 ; undefined
 b7c:	000000ba 	udf	#186
 b80:	fc0e0004 	stur	d4, [x0, #224]
 b84:	04000038 	add	z24.b, p0/m, z24.b, z1.b
 b88:	00bf0609 	.inst	0x00bf0609 ; undefined
 b8c:	00ef0000 	.inst	0x00ef0000 ; undefined
 b90:	00040000 	.inst	0x00040000 ; undefined
 b94:	00388b03 	.inst	0x00388b03 ; NYI
 b98:	000b0400 	.inst	0x000b0400 ; undefined
 b9c:	02000001 	.inst	0x02000001 ; undefined
 ba0:	000000bf 	udf	#191
 ba4:	38a00300 	ldaddab	w0, w0, [x24]
 ba8:	0a040000 	and	w0, w0, w4
 bac:	00000111 	udf	#273
 bb0:	00011102 	.inst	0x00011102 ; undefined
 bb4:	bf070000 	.inst	0xbf070000 ; undefined
 bb8:	0f000000 	.inst	0x0f000000 ; undefined
 bbc:	00003dcb 	udf	#15819
 bc0:	00061f01 	.inst	0x00061f01 ; undefined
 bc4:	0000082d 	udf	#2093
 bc8:	d8000000 	prfm	pldl1keep, bc8 <__bss_size+0x9a6>
 bcc:	00000001 	udf	#1
 bd0:	01000000 	.inst	0x01000000 ; undefined
 bd4:	00018c9c 	.inst	0x00018c9c ; undefined
 bd8:	6d630800 	ldp	d0, d2, [x0, #-464]
 bdc:	07210064 	.inst	0x07210064 ; undefined
 be0:	0000018c 	udf	#396
 be4:	7de89103 	.inst	0x7de89103 ; undefined
 be8:	082de410 	.inst	0x082de410 ; undefined
 bec:	00000000 	udf	#0
 bf0:	00003000 	udf	#12288
 bf4:	00000000 	udf	#0
 bf8:	3f460500 	.inst	0x3f460500 ; undefined
 bfc:	12340000 	and	w0, w0, #0x1000
 c00:	00000063 	udf	#99
 c04:	05789102 	.inst	0x05789102 ; undefined
 c08:	00004375 	udf	#17269
 c0c:	00631a34 	.inst	0x00631a34 ; undefined
 c10:	91020000 	add	x0, x0, #0x80
 c14:	46dc0570 	.inst	0x46dc0570 ; undefined
 c18:	22340000 	.inst	0x22340000 ; undefined
 c1c:	00000063 	udf	#99
 c20:	11689102 	add	w2, w8, #0xa24, lsl #12
 c24:	000042e6 	udf	#17126
 c28:	632a3401 	.inst	0x632a3401 ; undefined
 c2c:	00000000 	udf	#0
 c30:	00bf1200 	.inst	0x00bf1200 ; undefined
 c34:	019c0000 	.inst	0x019c0000 ; undefined
 c38:	6f130000 	.inst	0x6f130000 ; undefined
 c3c:	ff000000 	.inst	0xff000000 ; undefined
 c40:	40dd1400 	.inst	0x40dd1400 ; undefined
 c44:	08010000 	stxrb	w1, w0, [x0]
 c48:	082c3006 	.inst	0x082c3006 ; undefined
 c4c:	00000000 	udf	#0
 c50:	0000d000 	udf	#53248
 c54:	00000000 	udf	#0
 c58:	159c0100 	b	6701058 <_end+0x6677f48>
 c5c:	00646d63 	.inst	0x00646d63 ; undefined
 c60:	11150801 	add	w1, w0, #0x542
 c64:	02000001 	.inst	0x02000001 ; undefined
 c68:	6e086891 	ext	v17.16b, v4.16b, v8.16b, #13
 c6c:	0900776f 	.inst	0x0900776f ; undefined
 c70:	0000bf0a 	udf	#48906
 c74:	7b910200 	.inst	0x7b910200 ; undefined
 c78:	0040e605 	.inst	0x0040e605 ; undefined
 c7c:	40090b00 	.inst	0x40090b00 ; undefined
 c80:	02000000 	.inst	0x02000000 ; undefined
 c84:	00007c91 	udf	#31889
 c88:	000000d8 	udf	#216
 c8c:	08010005 	stxrb	w1, w5, [x0]
 c90:	000007d8 	udf	#2008
 c94:	001ebf04 	.inst	0x001ebf04 ; undefined
 c98:	00fc1d00 	.inst	0x00fc1d00 ; undefined
 c9c:	000d0000 	.inst	0x000d0000 ; undefined
 ca0:	2ed80000 	.inst	0x2ed80000 ; undefined
 ca4:	00000008 	udf	#8
 ca8:	00340000 	.inst	0x00340000 ; NYI
 cac:	00000000 	udf	#0
 cb0:	0a5b0000 	and	w0, w0, w27, lsr #0
 cb4:	0fb90000 	fmlal	v0.2s, v0.2h, v9.h[3]
 cb8:	01010000 	.inst	0x01010000 ; undefined
 cbc:	00284a06 	.inst	0x00284a06 ; NYI
 cc0:	05020100 	orr	z0.d, z0.d, #0x1ff
 cc4:	000007b0 	udf	#1968
 cc8:	69050405 	stgp	x5, x1, [x0, #160]
 ccc:	0100746e 	.inst	0x0100746e ; undefined
 cd0:	20d60508 	.inst	0x20d60508 ; undefined
 cd4:	01010000 	.inst	0x01010000 ; undefined
 cd8:	002aa308 	.inst	0x002aa308 ; NYI
 cdc:	07020100 	.inst	0x07020100 ; undefined
 ce0:	0000067a 	udf	#1658
 ce4:	6e070401 	mov	v1.b[3], v0.b[0]
 ce8:	01000027 	.inst	0x01000027 ; undefined
 cec:	08c60708 	ldlarb	w8, [x24]
 cf0:	cb020000 	sub	x0, x0, x2
 cf4:	0200003d 	.inst	0x0200003d ; undefined
 cf8:	00007702 	udf	#30466
 cfc:	06000300 	.inst	0x06000300 ; undefined
 d00:	000038a0 	udf	#14496
 d04:	89060a04 	.inst	0x89060a04 ; undefined
 d08:	07000000 	.inst	0x07000000 ; undefined
 d0c:	00000089 	udf	#137
 d10:	8f080800 	.inst	0x8f080800 ; undefined
 d14:	01000000 	.inst	0x01000000 ; undefined
 d18:	28510801 	ldnp	w1, w2, [x0, #136]
 d1c:	6d020000 	stp	d0, d0, [x0, #32]
 d20:	0300003c 	.inst	0x0300003c ; undefined
 d24:	0000a303 	udf	#41731
 d28:	02000300 	.inst	0x02000300 ; undefined
 d2c:	00003c3b 	udf	#15419
 d30:	00b00203 	.inst	0x00b00203 ; undefined
 d34:	00030000 	.inst	0x00030000 ; undefined
 d38:	003a1502 	.inst	0x003a1502 ; NYI
 d3c:	bd050400 	str	s0, [x0, #1284]
 d40:	03000000 	.inst	0x03000000 ; undefined
 d44:	485b0900 	ldxrh	w0, [x8]
 d48:	0b010000 	add	w0, w0, w1
 d4c:	00004005 	udf	#16389
 d50:	082ed800 	.inst	0x082ed800 ; undefined
 d54:	00000000 	udf	#0
 d58:	00003400 	udf	#13312
 d5c:	00000000 	udf	#0
 d60:	009c0100 	.inst	0x009c0100 ; undefined

Disassembly of section .debug_abbrev:

0000000000000000 <.debug_abbrev>:
   0:	00001801 	udf	#6145
   4:	012e0200 	.inst	0x012e0200 ; undefined
   8:	0e03193f 	uzp1	v31.8b, v9.8b, v3.8b
   c:	3b02213a 	.inst	0x3b02213a ; undefined
  10:	0621390b 	.inst	0x0621390b ; undefined
  14:	1301193c 	sbfx	w28, w9, #1, #6
  18:	2e030000 	ext	v0.8b, v0.8b, v3.8b, #0
  1c:	03193f00 	.inst	0x03193f00 ; undefined
  20:	01213a0e 	.inst	0x01213a0e ; undefined
  24:	21390b3b 	.inst	0x21390b3b ; undefined
  28:	12011106 	and	w6, w8, #0x8000000f
  2c:	7c184007 	stur	h7, [x0, #-124]
  30:	04000019 	add	z25.b, p0/m, z25.b, z0.b
  34:	0b0b0024 	add	w4, w1, w11
  38:	0e030b3e 	.inst	0x0e030b3e ; undefined
  3c:	05050000 	.inst	0x05050000 ; undefined
  40:	3a080300 	adcs	w0, w24, w8
  44:	213b0121 	.inst	0x213b0121 ; undefined
  48:	490b3911 	.inst	0x490b3911 ; undefined
  4c:	00180213 	.inst	0x00180213 ; undefined
  50:	00340600 	.inst	0x00340600 ; NYI
  54:	213a0803 	.inst	0x213a0803 ; undefined
  58:	13213b01 	.inst	0x13213b01 ; undefined
  5c:	13490b39 	.inst	0x13490b39 ; undefined
  60:	00001802 	udf	#6146
  64:	25011107 	cmpge	p7.b, p4/z, z8.b, #1
  68:	030b130e 	.inst	0x030b130e ; undefined
  6c:	111f1b1f 	add	wsp, w24, #0x7c6
  70:	10071201 	adr	x1, e2b0 <__bss_size+0xe08e>
  74:	00177917 	.inst	0x00177917 ; undefined
  78:	012e0800 	.inst	0x012e0800 ; undefined
  7c:	0e03193f 	uzp1	v31.8b, v9.8b, v3.8b
  80:	0b3b0b3a 	add	w26, w25, w27, uxtb #2
  84:	19270b39 	.inst	0x19270b39 ; undefined
  88:	1301193c 	sbfx	w28, w9, #1, #6
  8c:	05090000 	.inst	0x05090000 ; undefined
  90:	00134900 	.inst	0x00134900 ; undefined
  94:	000f0a00 	.inst	0x000f0a00 ; undefined
  98:	13490b0b 	.inst	0x13490b0b ; undefined
  9c:	260b0000 	.inst	0x260b0000 ; undefined
  a0:	00134900 	.inst	0x00134900 ; undefined
  a4:	012e0c00 	.inst	0x012e0c00 ; undefined
  a8:	0e03193f 	uzp1	v31.8b, v9.8b, v3.8b
  ac:	0b3b0b3a 	add	w26, w25, w27, uxtb #2
  b0:	19270b39 	.inst	0x19270b39 ; undefined
  b4:	07120111 	.inst	0x07120111 ; undefined
  b8:	197c1840 	.inst	0x197c1840 ; undefined
  bc:	00001301 	udf	#4865
  c0:	0300050d 	.inst	0x0300050d ; undefined
  c4:	3b0b3a0e 	.inst	0x3b0b3a0e ; undefined
  c8:	490b390b 	.inst	0x490b390b ; undefined
  cc:	00180213 	.inst	0x00180213 ; undefined
  d0:	00240e00 	.inst	0x00240e00 ; NYI
  d4:	0b3e0b0b 	add	w11, w24, w30, uxtb #2
  d8:	00000803 	udf	#2051
  dc:	3f002e0f 	.inst	0x3f002e0f ; undefined
  e0:	3a0e0319 	adcs	w25, w24, w14
  e4:	390b3b0b 	strb	w11, [x24, #718]
  e8:	1201110b 	and	w11, w8, #0x8000000f
  ec:	7a184007 	.inst	0x7a184007 ; undefined
  f0:	00000019 	udf	#25
  f4:	10001101 	adr	x1, 314 <__bss_size+0xf2>
  f8:	12011117 	and	w23, w8, #0x8000000f
  fc:	1b0e030f 	madd	w15, w24, w14, w0
 100:	130e250e 	sbfiz	w14, w8, #18, #10
 104:	00000005 	udf	#5
 108:	10001101 	adr	x1, 328 <__bss_size+0x106>
 10c:	12011117 	and	w23, w8, #0x8000000f
 110:	1b0e030f 	madd	w15, w24, w14, w0
 114:	130e250e 	sbfiz	w14, w8, #18, #10
 118:	00000005 	udf	#5
 11c:	03000501 	.inst	0x03000501 ; undefined
 120:	01213a08 	.inst	0x01213a08 ; undefined
 124:	0b390b3b 	add	w27, w25, w25, uxtb #2
 128:	18021349 	ldr	w9, 4390 <__bss_size+0x416e>
 12c:	2e020000 	ext	v0.8b, v0.8b, v2.8b, #0
 130:	03193f01 	.inst	0x03193f01 ; undefined
 134:	01213a0e 	.inst	0x01213a0e ; undefined
 138:	21390b3b 	.inst	0x21390b3b ; undefined
 13c:	49192705 	.inst	0x49192705 ; undefined
 140:	12011113 	and	w19, w8, #0x8000000f
 144:	7a184007 	.inst	0x7a184007 ; undefined
 148:	00130119 	.inst	0x00130119 ; undefined
 14c:	000f0300 	.inst	0x000f0300 ; undefined
 150:	4908210b 	.inst	0x4908210b ; undefined
 154:	04000013 	add	z19.b, p0/m, z19.b, z0.b
 158:	0b0b0024 	add	w4, w1, w11
 15c:	0e030b3e 	.inst	0x0e030b3e ; undefined
 160:	11050000 	add	w0, w0, #0x140
 164:	130e2501 	sbfiz	w1, w8, #18, #10
 168:	1b1f030b 	madd	w11, w24, wzr, w0
 16c:	1201111f 	and	wsp, w8, #0x8000000f
 170:	79171007 	strh	w7, [x0, #2952]
 174:	06000017 	.inst	0x06000017 ; undefined
 178:	08030034 	stxrb	w3, w20, [x1]
 17c:	0b3b0b3a 	add	w26, w25, w27, uxtb #2
 180:	13490b39 	.inst	0x13490b39 ; undefined
 184:	00001802 	udf	#6146
 188:	0b002407 	add	w7, w0, w0, lsl #9
 18c:	030b3e0b 	.inst	0x030b3e0b ; undefined
 190:	08000008 	stxrb	w0, w8, [x0]
 194:	13490026 	.inst	0x13490026 ; undefined
 198:	2e090000 	ext	v0.8b, v0.8b, v9.8b, #0
 19c:	03193f01 	.inst	0x03193f01 ; undefined
 1a0:	3b0b3a0e 	.inst	0x3b0b3a0e ; undefined
 1a4:	270b390b 	.inst	0x270b390b ; undefined
 1a8:	12011119 	and	w25, w8, #0x8000000f
 1ac:	7a184007 	.inst	0x7a184007 ; undefined
 1b0:	00130119 	.inst	0x00130119 ; undefined
 1b4:	34010000 	cbz	w0, 21b4 <__bss_size+0x1f92>
 1b8:	3a080300 	adcs	w0, w24, w8
 1bc:	0b3b0121 	add	w1, w9, w27, uxtb
 1c0:	13490b39 	.inst	0x13490b39 ; undefined
 1c4:	00001802 	udf	#6146
 1c8:	3f012e02 	.inst	0x3f012e02 ; undefined
 1cc:	3a0e0319 	adcs	w25, w24, w14
 1d0:	0b3b0121 	add	w1, w9, w27, uxtb
 1d4:	27062139 	.inst	0x27062139 ; undefined
 1d8:	12011119 	and	w25, w8, #0x8000000f
 1dc:	7c184007 	stur	h7, [x0, #-124]
 1e0:	00130119 	.inst	0x00130119 ; undefined
 1e4:	00050300 	.inst	0x00050300 ; undefined
 1e8:	213a0803 	.inst	0x213a0803 ; undefined
 1ec:	390b3b01 	strb	w1, [x24, #718]
 1f0:	0213490b 	.inst	0x0213490b ; undefined
 1f4:	04000018 	add	z24.b, p0/m, z24.b, z0.b
 1f8:	0e03000d 	tbl	v13.8b, {v0.16b}, v3.8b
 1fc:	0b381349 	add	w9, w26, w24, uxtb #4
 200:	00001934 	udf	#6452
 204:	0b002405 	add	w5, w0, w0, lsl #9
 208:	030b3e0b 	.inst	0x030b3e0b ; undefined
 20c:	0600000e 	.inst	0x0600000e ; undefined
 210:	00000018 	udf	#24
 214:	03003407 	.inst	0x03003407 ; undefined
 218:	01213a0e 	.inst	0x01213a0e ; undefined
 21c:	0b390b3b 	add	w27, w25, w25, uxtb #2
 220:	18021349 	ldr	w9, 4488 <__bss_size+0x4266>
 224:	05080000 	.inst	0x05080000 ; undefined
 228:	3a0e0300 	adcs	w0, w24, w14
 22c:	0b3b0121 	add	w1, w9, w27, uxtb
 230:	13490b39 	.inst	0x13490b39 ; undefined
 234:	00001802 	udf	#6146
 238:	49010109 	.inst	0x49010109 ; undefined
 23c:	00130113 	.inst	0x00130113 ; undefined
 240:	00210a00 	.inst	0x00210a00 ; NYI
 244:	0b2f1349 	add	w9, w26, w15, uxtb #4
 248:	2e0b0000 	ext	v0.8b, v0.8b, v11.8b, #0
 24c:	03193f01 	.inst	0x03193f01 ; undefined
 250:	01213a0e 	.inst	0x01213a0e ; undefined
 254:	21390b3b 	.inst	0x21390b3b ; undefined
 258:	11134906 	add	w6, w8, #0x4d2
 25c:	40071201 	.inst	0x40071201 ; undefined
 260:	01197a18 	.inst	0x01197a18 ; undefined
 264:	0c000013 	st4	{v19.8b-v22.8b}, [x0]
 268:	193f012e 	.inst	0x193f012e ; undefined
 26c:	213a0e03 	.inst	0x213a0e03 ; undefined
 270:	390b3b01 	strb	w1, [x24, #718]
 274:	19270621 	.inst	0x19270621 ; undefined
 278:	07120111 	.inst	0x07120111 ; undefined
 27c:	197a1840 	.inst	0x197a1840 ; undefined
 280:	00001301 	udf	#4865
 284:	2501110d 	cmpge	p13.b, p4/z, z8.b, #1
 288:	030b130e 	.inst	0x030b130e ; undefined
 28c:	111f1b1f 	add	wsp, w24, #0x7c6
 290:	10071201 	adr	x1, e4d0 <__bss_size+0xe2ae>
 294:	00177917 	.inst	0x00177917 ; undefined
 298:	012e0e00 	.inst	0x012e0e00 ; undefined
 29c:	0e03193f 	uzp1	v31.8b, v9.8b, v3.8b
 2a0:	0b3b0b3a 	add	w26, w25, w27, uxtb #2
 2a4:	13490b39 	.inst	0x13490b39 ; undefined
 2a8:	1301193c 	sbfx	w28, w9, #1, #6
 2ac:	240f0000 	cmphs	p0.b, p0/z, z0.b, z15.b
 2b0:	3e0b0b00 	.inst	0x3e0b0b00 ; undefined
 2b4:	0008030b 	.inst	0x0008030b ; undefined
 2b8:	012e1000 	.inst	0x012e1000 ; undefined
 2bc:	0e03193f 	uzp1	v31.8b, v9.8b, v3.8b
 2c0:	0b3b0b3a 	add	w26, w25, w27, uxtb #2
 2c4:	193c0b39 	.inst	0x193c0b39 ; undefined
 2c8:	00001301 	udf	#4865
 2cc:	0b000f11 	add	w17, w24, w0, lsl #3
 2d0:	0013490b 	.inst	0x0013490b ; undefined
 2d4:	00261200 	.inst	0x00261200 ; NYI
 2d8:	00001349 	udf	#4937
 2dc:	03011313 	.inst	0x03011313 ; undefined
 2e0:	3a0b0b0e 	.inst	0x3a0b0b0e ; undefined
 2e4:	010b3b0b 	.inst	0x010b3b0b ; undefined
 2e8:	14000013 	b	334 <__bss_size+0x112>
 2ec:	0b0b000f 	add	w15, w0, w11
 2f0:	2e150000 	ext	v0.8b, v0.8b, v21.8b, #0
 2f4:	03193f00 	.inst	0x03193f00 ; undefined
 2f8:	3b0b3a0e 	.inst	0x3b0b3a0e ; undefined
 2fc:	110b390b 	add	w11, w8, #0x2ce
 300:	40071201 	.inst	0x40071201 ; undefined
 304:	00197c18 	.inst	0x00197c18 ; undefined
 308:	002e1600 	.inst	0x002e1600 ; NYI
 30c:	0e03193f 	uzp1	v31.8b, v9.8b, v3.8b
 310:	0b3b0b3a 	add	w26, w25, w27, uxtb #2
 314:	13490b39 	.inst	0x13490b39 ; undefined
 318:	07120111 	.inst	0x07120111 ; undefined
 31c:	197c1840 	.inst	0x197c1840 ; undefined
 320:	2e170000 	ext	v0.8b, v0.8b, v23.8b, #0
 324:	03193f00 	.inst	0x03193f00 ; undefined
 328:	3b0b3a0e 	.inst	0x3b0b3a0e ; undefined
 32c:	110b390b 	add	w11, w8, #0x2ce
 330:	40071201 	.inst	0x40071201 ; undefined
 334:	00197a18 	.inst	0x00197a18 ; undefined
 338:	012e1800 	.inst	0x012e1800 ; undefined
 33c:	0e03193f 	uzp1	v31.8b, v9.8b, v3.8b
 340:	0b3b0b3a 	add	w26, w25, w27, uxtb #2
 344:	01110b39 	.inst	0x01110b39 ; undefined
 348:	18400712 	ldr	w18, 80428 <serr_handler+0x1e8>
 34c:	0000197c 	udf	#6524
 350:	00240100 	.inst	0x00240100 ; NYI
 354:	0b3e0b0b 	add	w11, w24, w30, uxtb #2
 358:	00000e03 	udf	#3587
 35c:	3f002e02 	.inst	0x3f002e02 ; undefined
 360:	3a0e0319 	adcs	w25, w24, w14
 364:	0b3b0121 	add	w1, w9, w27, uxtb
 368:	11062139 	add	w25, w9, #0x188
 36c:	40071201 	.inst	0x40071201 ; undefined
 370:	00197c18 	.inst	0x00197c18 ; undefined
 374:	00350300 	.inst	0x00350300 ; NYI
 378:	00001349 	udf	#4937
 37c:	25011104 	cmpge	p4.b, p4/z, z8.b, #1
 380:	030b130e 	.inst	0x030b130e ; undefined
 384:	111f1b1f 	add	wsp, w24, #0x7c6
 388:	10071201 	adr	x1, e5c8 <__bss_size+0xe3a6>
 38c:	00177917 	.inst	0x00177917 ; undefined
 390:	01010500 	.inst	0x01010500 ; undefined
 394:	13011349 	sbfx	w9, w26, #1, #4
 398:	21060000 	.inst	0x21060000 ; undefined
 39c:	2f134900 	.inst	0x2f134900 ; undefined
 3a0:	0700000b 	.inst	0x0700000b ; undefined
 3a4:	0e030034 	tbl	v20.8b, {v1.16b}, v3.8b
 3a8:	0b3b0b3a 	add	w26, w25, w27, uxtb #2
 3ac:	13490b39 	.inst	0x13490b39 ; undefined
 3b0:	0188193f 	.inst	0x0188193f ; undefined
 3b4:	00193c0b 	.inst	0x00193c0b ; undefined
 3b8:	00340800 	.inst	0x00340800 ; NYI
 3bc:	0b3a1347 	add	w7, w26, w26, uxtb #4
 3c0:	0b390b3b 	add	w27, w25, w25, uxtb #2
 3c4:	00001802 	udf	#6146
 3c8:	3f012e09 	.inst	0x3f012e09 ; undefined
 3cc:	3a0e0319 	adcs	w25, w24, w14
 3d0:	390b3b0b 	strb	w11, [x24, #718]
 3d4:	3c19270b 	str	b11, [x24], #-110
 3d8:	00130119 	.inst	0x00130119 ; undefined
 3dc:	00050a00 	.inst	0x00050a00 ; undefined
 3e0:	00001349 	udf	#4937
 3e4:	0000180b 	udf	#6155
 3e8:	000f0c00 	.inst	0x000f0c00 ; undefined
 3ec:	13490b0b 	.inst	0x13490b0b ; undefined
 3f0:	260d0000 	.inst	0x260d0000 ; undefined
 3f4:	00134900 	.inst	0x00134900 ; undefined
 3f8:	002e0e00 	.inst	0x002e0e00 ; NYI
 3fc:	0e03193f 	uzp1	v31.8b, v9.8b, v3.8b
 400:	0b3b0b3a 	add	w26, w25, w27, uxtb #2
 404:	13490b39 	.inst	0x13490b39 ; undefined
 408:	07120111 	.inst	0x07120111 ; undefined
 40c:	197c1840 	.inst	0x197c1840 ; undefined
 410:	240f0000 	cmphs	p0.b, p0/z, z0.b, z15.b
 414:	3e0b0b00 	.inst	0x3e0b0b00 ; undefined
 418:	0008030b 	.inst	0x0008030b ; undefined
 41c:	012e1000 	.inst	0x012e1000 ; undefined
 420:	0e03193f 	uzp1	v31.8b, v9.8b, v3.8b
 424:	0b3b0b3a 	add	w26, w25, w27, uxtb #2
 428:	19270b39 	.inst	0x19270b39 ; undefined
 42c:	01111349 	.inst	0x01111349 ; undefined
 430:	18400712 	ldr	w18, 80510 <serr_handler+0x2d0>
 434:	0000197a 	udf	#6522
 438:	03000511 	.inst	0x03000511 ; undefined
 43c:	3b0b3a08 	.inst	0x3b0b3a08 ; undefined
 440:	490b390b 	.inst	0x490b390b ; undefined
 444:	00180213 	.inst	0x00180213 ; undefined
 448:	00341200 	.inst	0x00341200 ; NYI
 44c:	0b3a0803 	add	w3, w0, w26, uxtb #2
 450:	0b390b3b 	add	w27, w25, w25, uxtb #2
 454:	18021349 	ldr	w9, 46bc <__bss_size+0x449a>
 458:	01000000 	.inst	0x01000000 ; undefined
 45c:	0e030034 	tbl	v20.8b, {v1.16b}, v3.8b
 460:	3b01213a 	.inst	0x3b01213a ; undefined
 464:	490b390b 	.inst	0x490b390b ; undefined
 468:	00180213 	.inst	0x00180213 ; undefined
 46c:	00240200 	.inst	0x00240200 ; NYI
 470:	0b3e0b0b 	add	w11, w24, w30, uxtb #2
 474:	00000e03 	udf	#3587
 478:	03003403 	.inst	0x03003403 ; undefined
 47c:	01213a08 	.inst	0x01213a08 ; undefined
 480:	0b390b3b 	add	w27, w25, w25, uxtb #2
 484:	18021349 	ldr	w9, 46ec <__bss_size+0x44ca>
 488:	35040000 	cbnz	w0, 8488 <__bss_size+0x8266>
 48c:	00134900 	.inst	0x00134900 ; undefined
 490:	000f0500 	.inst	0x000f0500 ; undefined
 494:	4908210b 	.inst	0x4908210b ; undefined
 498:	06000013 	.inst	0x06000013 ; undefined
 49c:	13490005 	.inst	0x13490005 ; undefined
 4a0:	11070000 	add	w0, w0, #0x1c0
 4a4:	130e2501 	sbfiz	w1, w8, #18, #10
 4a8:	1b1f030b 	madd	w11, w24, wzr, w0
 4ac:	1201111f 	and	wsp, w8, #0x8000000f
 4b0:	79171007 	strh	w7, [x0, #2952]
 4b4:	08000017 	stxrb	w0, w23, [x0]
 4b8:	13490101 	.inst	0x13490101 ; undefined
 4bc:	00001301 	udf	#4865
 4c0:	49002109 	.inst	0x49002109 ; undefined
 4c4:	000b2f13 	.inst	0x000b2f13 ; undefined
 4c8:	00340a00 	.inst	0x00340a00 ; NYI
 4cc:	0b3a0e03 	add	w3, w16, w26, uxtb #3
 4d0:	0b390b3b 	add	w27, w25, w25, uxtb #2
 4d4:	193f1349 	.inst	0x193f1349 ; undefined
 4d8:	3c0b0188 	stur	b8, [x12, #176]
 4dc:	0b000019 	add	w25, w0, w0
 4e0:	0b0b0024 	add	w4, w1, w11
 4e4:	08030b3e 	stxrb	w3, w30, [x25]
 4e8:	2e0c0000 	ext	v0.8b, v0.8b, v12.8b, #0
 4ec:	03193f01 	.inst	0x03193f01 ; undefined
 4f0:	3b0b3a0e 	.inst	0x3b0b3a0e ; undefined
 4f4:	270b390b 	.inst	0x270b390b ; undefined
 4f8:	01193c19 	.inst	0x01193c19 ; undefined
 4fc:	0d000013 	st1	{v19.b}[0], [x0]
 500:	00000018 	udf	#24
 504:	4900260e 	.inst	0x4900260e ; undefined
 508:	0f000013 	.inst	0x0f000013 ; undefined
 50c:	193f012e 	.inst	0x193f012e ; undefined
 510:	0b3a0e03 	add	w3, w16, w26, uxtb #3
 514:	0b390b3b 	add	w27, w25, w25, uxtb #2
 518:	13491927 	.inst	0x13491927 ; undefined
 51c:	1301193c 	sbfx	w28, w9, #1, #6
 520:	2e100000 	ext	v0.8b, v0.8b, v16.8b, #0
 524:	03193f01 	.inst	0x03193f01 ; undefined
 528:	3b0b3a0e 	.inst	0x3b0b3a0e ; undefined
 52c:	110b390b 	add	w11, w8, #0x2ce
 530:	40071201 	.inst	0x40071201 ; undefined
 534:	01197a18 	.inst	0x01197a18 ; undefined
 538:	11000013 	add	w19, w0, #0x0
 53c:	193f012e 	.inst	0x193f012e ; undefined
 540:	0b3a0e03 	add	w3, w16, w26, uxtb #3
 544:	0b390b3b 	add	w27, w25, w25, uxtb #2
 548:	07120111 	.inst	0x07120111 ; undefined
 54c:	197c1840 	.inst	0x197c1840 ; undefined
 550:	01000000 	.inst	0x01000000 ; undefined
 554:	0b0b0024 	add	w4, w1, w11
 558:	0e030b3e 	.inst	0x0e030b3e ; undefined
 55c:	34020000 	cbz	w0, 455c <__bss_size+0x433a>
 560:	3a0e0300 	adcs	w0, w24, w14
 564:	0b3b0121 	add	w1, w9, w27, uxtb
 568:	49102139 	.inst	0x49102139 ; undefined
 56c:	00180213 	.inst	0x00180213 ; undefined
 570:	01110300 	.inst	0x01110300 ; undefined
 574:	0b130e25 	add	w5, w17, w19, lsl #3
 578:	1f1b1f03 	fmadd	s3, s24, s27, s7
 57c:	07120111 	.inst	0x07120111 ; undefined
 580:	17791710 	b	fffffffffde461c0 <_end+0xfffffffffddbd0b0>
 584:	2e040000 	ext	v0.8b, v0.8b, v4.8b, #0
 588:	03193f01 	.inst	0x03193f01 ; undefined
 58c:	3b0b3a0e 	.inst	0x3b0b3a0e ; undefined
 590:	270b390b 	.inst	0x270b390b ; undefined
 594:	01193c19 	.inst	0x01193c19 ; undefined
 598:	05000013 	orr	z19.s, z19.s, #0x1
 59c:	13490005 	.inst	0x13490005 ; undefined
 5a0:	18060000 	ldr	w0, c5a0 <__bss_size+0xc37e>
 5a4:	07000000 	.inst	0x07000000 ; undefined
 5a8:	0b0b000f 	add	w15, w0, w11
 5ac:	00001349 	udf	#4937
 5b0:	49002608 	.inst	0x49002608 ; undefined
 5b4:	09000013 	.inst	0x09000013 ; undefined
 5b8:	193f012e 	.inst	0x193f012e ; undefined
 5bc:	0b3a0e03 	add	w3, w16, w26, uxtb #3
 5c0:	0b390b3b 	add	w27, w25, w25, uxtb #2
 5c4:	07120111 	.inst	0x07120111 ; undefined
 5c8:	197c1840 	.inst	0x197c1840 ; undefined
 5cc:	00001301 	udf	#4865
 5d0:	0300340a 	.inst	0x0300340a ; undefined
 5d4:	3b0b3a08 	.inst	0x3b0b3a08 ; undefined
 5d8:	490b390b 	.inst	0x490b390b ; undefined
 5dc:	00180213 	.inst	0x00180213 ; undefined
 5e0:	00240b00 	.inst	0x00240b00 ; NYI
 5e4:	0b3e0b0b 	add	w11, w24, w30, uxtb #2
 5e8:	00000803 	udf	#2051
 5ec:	3f012e0c 	.inst	0x3f012e0c ; undefined
 5f0:	3a0e0319 	adcs	w25, w24, w14
 5f4:	390b3b0b 	strb	w11, [x24, #718]
 5f8:	1201110b 	and	w11, w8, #0x8000000f
 5fc:	7a184007 	.inst	0x7a184007 ; undefined
 600:	00130119 	.inst	0x00130119 ; undefined
 604:	002e0d00 	.inst	0x002e0d00 ; NYI
 608:	0e03193f 	uzp1	v31.8b, v9.8b, v3.8b
 60c:	0b3b0b3a 	add	w26, w25, w27, uxtb #2
 610:	01110b39 	.inst	0x01110b39 ; undefined
 614:	18400712 	ldr	w18, 806f4 <serr_handler+0x4b4>
 618:	0000197c 	udf	#6524
 61c:	3f002e0e 	.inst	0x3f002e0e ; undefined
 620:	3a0e0319 	adcs	w25, w24, w14
 624:	390b3b0b 	strb	w11, [x24, #718]
 628:	1201110b 	and	w11, w8, #0x8000000f
 62c:	7a184007 	.inst	0x7a184007 ; undefined
 630:	00000019 	udf	#25
 634:	25011101 	cmpge	p1.b, p4/z, z8.b, #1
 638:	030b130e 	.inst	0x030b130e ; undefined
 63c:	111f1b1f 	add	wsp, w24, #0x7c6
 640:	10071201 	adr	x1, e880 <__bss_size+0xe65e>
 644:	00177917 	.inst	0x00177917 ; undefined
 648:	002e0200 	.inst	0x002e0200 ; NYI
 64c:	0e03193f 	uzp1	v31.8b, v9.8b, v3.8b
 650:	0b3b0b3a 	add	w26, w25, w27, uxtb #2
 654:	01110b39 	.inst	0x01110b39 ; undefined
 658:	18400712 	ldr	w18, 80738 <serr_handler+0x4f8>
 65c:	0000197a 	udf	#6522
 660:	3f012e03 	.inst	0x3f012e03 ; undefined
 664:	3a0e0319 	adcs	w25, w24, w14
 668:	390b3b0b 	strb	w11, [x24, #718]
 66c:	1119270b 	add	w11, w24, #0x649
 670:	40071201 	.inst	0x40071201 ; undefined
 674:	01197a18 	.inst	0x01197a18 ; undefined
 678:	04000013 	add	z19.b, p0/m, z19.b, z0.b
 67c:	0e030005 	tbl	v5.8b, {v0.16b}, v3.8b
 680:	0b3b0b3a 	add	w26, w25, w27, uxtb #2
 684:	13490b39 	.inst	0x13490b39 ; undefined
 688:	00001802 	udf	#6146
 68c:	0b002405 	add	w5, w0, w0, lsl #9
 690:	030b3e0b 	.inst	0x030b3e0b ; undefined
 694:	00000008 	udf	#8
 698:	0b002401 	add	w1, w0, w0, lsl #9
 69c:	030b3e0b 	.inst	0x030b3e0b ; undefined
 6a0:	0200000e 	.inst	0x0200000e ; undefined
 6a4:	13490005 	.inst	0x13490005 ; undefined
 6a8:	2e030000 	ext	v0.8b, v0.8b, v3.8b, #0
 6ac:	03193f01 	.inst	0x03193f01 ; undefined
 6b0:	3b0b3a0e 	.inst	0x3b0b3a0e ; undefined
 6b4:	0621390b 	.inst	0x0621390b ; undefined
 6b8:	193c1927 	.inst	0x193c1927 ; undefined
 6bc:	00001301 	udf	#4865
 6c0:	00001804 	udf	#6148
 6c4:	00340500 	.inst	0x00340500 ; NYI
 6c8:	213a0e03 	.inst	0x213a0e03 ; undefined
 6cc:	390b3b01 	strb	w1, [x24, #718]
 6d0:	0213490b 	.inst	0x0213490b ; undefined
 6d4:	06000018 	.inst	0x06000018 ; undefined
 6d8:	193f012e 	.inst	0x193f012e ; undefined
 6dc:	213a0e03 	.inst	0x213a0e03 ; undefined
 6e0:	390b3b02 	strb	w2, [x24, #718]
 6e4:	193c0621 	.inst	0x193c0621 ; undefined
 6e8:	00001301 	udf	#4865
 6ec:	0b000f07 	add	w7, w24, w0, lsl #3
 6f0:	13490821 	.inst	0x13490821 ; undefined
 6f4:	34080000 	cbz	w0, 106f4 <__bss_size+0x104d2>
 6f8:	3a080300 	adcs	w0, w24, w8
 6fc:	0b3b0121 	add	w1, w9, w27, uxtb
 700:	13490b39 	.inst	0x13490b39 ; undefined
 704:	00001802 	udf	#6146
 708:	25011109 	cmpge	p9.b, p4/z, z8.b, #1
 70c:	030b130e 	.inst	0x030b130e ; undefined
 710:	111f1b1f 	add	wsp, w24, #0x7c6
 714:	10071201 	adr	x1, e954 <__bss_size+0xe732>
 718:	00177917 	.inst	0x00177917 ; undefined
 71c:	00240a00 	.inst	0x00240a00 ; NYI
 720:	0b3e0b0b 	add	w11, w24, w30, uxtb #2
 724:	00000803 	udf	#2051
 728:	0300160b 	.inst	0x0300160b ; undefined
 72c:	3b0b3a0e 	.inst	0x3b0b3a0e ; undefined
 730:	490b390b 	.inst	0x490b390b ; undefined
 734:	0c000013 	st4	{v19.8b-v22.8b}, [x0]
 738:	193f012e 	.inst	0x193f012e ; undefined
 73c:	0b3a0e03 	add	w3, w16, w26, uxtb #3
 740:	0b390b3b 	add	w27, w25, w25, uxtb #2
 744:	13491927 	.inst	0x13491927 ; undefined
 748:	1301193c 	sbfx	w28, w9, #1, #6
 74c:	260d0000 	.inst	0x260d0000 ; undefined
 750:	00134900 	.inst	0x00134900 ; undefined
 754:	012e0e00 	.inst	0x012e0e00 ; undefined
 758:	0e03193f 	uzp1	v31.8b, v9.8b, v3.8b
 75c:	0b3b0b3a 	add	w26, w25, w27, uxtb #2
 760:	13490b39 	.inst	0x13490b39 ; undefined
 764:	1301193c 	sbfx	w28, w9, #1, #6
 768:	2e0f0000 	ext	v0.8b, v0.8b, v15.8b, #0
 76c:	03193f01 	.inst	0x03193f01 ; undefined
 770:	3b0b3a0e 	.inst	0x3b0b3a0e ; undefined
 774:	110b390b 	add	w11, w8, #0x2ce
 778:	40071201 	.inst	0x40071201 ; undefined
 77c:	01197c18 	.inst	0x01197c18 ; undefined
 780:	10000013 	adr	x19, 780 <__bss_size+0x55e>
 784:	0111010b 	.inst	0x0111010b ; undefined
 788:	00000712 	udf	#1810
 78c:	03003411 	.inst	0x03003411 ; undefined
 790:	3b0b3a0e 	.inst	0x3b0b3a0e ; undefined
 794:	490b390b 	.inst	0x490b390b ; undefined
 798:	12000013 	and	w19, w0, #0x1
 79c:	13490101 	.inst	0x13490101 ; undefined
 7a0:	00001301 	udf	#4865
 7a4:	49002113 	.inst	0x49002113 ; undefined
 7a8:	000b2f13 	.inst	0x000b2f13 ; undefined
 7ac:	012e1400 	.inst	0x012e1400 ; undefined
 7b0:	0e03193f 	uzp1	v31.8b, v9.8b, v3.8b
 7b4:	0b3b0b3a 	add	w26, w25, w27, uxtb #2
 7b8:	19270b39 	.inst	0x19270b39 ; undefined
 7bc:	07120111 	.inst	0x07120111 ; undefined
 7c0:	197c1840 	.inst	0x197c1840 ; undefined
 7c4:	05150000 	mov	z0.b, p5/z, #0
 7c8:	3a080300 	adcs	w0, w24, w8
 7cc:	390b3b0b 	strb	w11, [x24, #718]
 7d0:	0213490b 	.inst	0x0213490b ; undefined
 7d4:	00000018 	udf	#24
 7d8:	0b002401 	add	w1, w0, w0, lsl #9
 7dc:	030b3e0b 	.inst	0x030b3e0b ; undefined
 7e0:	0200000e 	.inst	0x0200000e ; undefined
 7e4:	193f012e 	.inst	0x193f012e ; undefined
 7e8:	0b3a0e03 	add	w3, w16, w26, uxtb #3
 7ec:	21390b3b 	.inst	0x21390b3b ; undefined
 7f0:	01193c06 	.inst	0x01193c06 ; undefined
 7f4:	03000013 	.inst	0x03000013 ; undefined
 7f8:	00000018 	udf	#24
 7fc:	25011104 	cmpge	p4.b, p4/z, z8.b, #1
 800:	030b130e 	.inst	0x030b130e ; undefined
 804:	111f1b1f 	add	wsp, w24, #0x7c6
 808:	10071201 	adr	x1, ea48 <__bss_size+0xe826>
 80c:	00177917 	.inst	0x00177917 ; undefined
 810:	00240500 	.inst	0x00240500 ; NYI
 814:	0b3e0b0b 	add	w11, w24, w30, uxtb #2
 818:	00000803 	udf	#2051
 81c:	3f012e06 	.inst	0x3f012e06 ; undefined
 820:	3a0e0319 	adcs	w25, w24, w14
 824:	390b3b0b 	strb	w11, [x24, #718]
 828:	3c19270b 	str	b11, [x24], #-110
 82c:	00130119 	.inst	0x00130119 ; undefined
 830:	00050700 	.inst	0x00050700 ; undefined
 834:	00001349 	udf	#4937
 838:	0b000f08 	add	w8, w24, w0, lsl #3
 83c:	0013490b 	.inst	0x0013490b ; undefined
 840:	002e0900 	.inst	0x002e0900 ; NYI
 844:	0e03193f 	uzp1	v31.8b, v9.8b, v3.8b
 848:	0b3b0b3a 	add	w26, w25, w27, uxtb #2
 84c:	19270b39 	.inst	0x19270b39 ; undefined
 850:	01111349 	.inst	0x01111349 ; undefined
 854:	18400712 	ldr	w18, 80934 <_FIQ_handler+0x10>
 858:	0000197c 	udf	#6524
	...

Disassembly of section .debug_aranges:

0000000000000000 <.debug_aranges>:
   0:	0000002c 	udf	#44
   4:	00000002 	udf	#2
   8:	00080000 	.inst	0x00080000 ; undefined
   c:	00000000 	udf	#0
  10:	00080108 	.inst	0x00080108 ; undefined
  14:	00000000 	udf	#0
  18:	00000158 	udf	#344
	...
  30:	0000002c 	udf	#44
  34:	01710002 	.inst	0x01710002 ; undefined
  38:	00080000 	.inst	0x00080000 ; undefined
  3c:	00000000 	udf	#0
  40:	00080800 	.inst	0x00080800 ; undefined
  44:	00000000 	udf	#0
  48:	00000f84 	udf	#3972
	...
  60:	0000002c 	udf	#44
  64:	019a0002 	.inst	0x019a0002 ; undefined
  68:	00080000 	.inst	0x00080000 ; undefined
  6c:	00000000 	udf	#0
  70:	00080000 	.inst	0x00080000 ; undefined
  74:	00000000 	udf	#0
  78:	00000108 	udf	#264
	...
  90:	0000002c 	udf	#44
  94:	01c30002 	.inst	0x01c30002 ; undefined
  98:	00080000 	.inst	0x00080000 ; undefined
  9c:	00000000 	udf	#0
  a0:	00081784 	.inst	0x00081784 ; undefined
  a4:	00000000 	udf	#0
  a8:	00000138 	udf	#312
	...
  c0:	0000002c 	udf	#44
  c4:	02d80002 	.inst	0x02d80002 ; undefined
  c8:	00080000 	.inst	0x00080000 ; undefined
  cc:	00000000 	udf	#0
  d0:	000818bc 	.inst	0x000818bc ; undefined
  d4:	00000000 	udf	#0
  d8:	000007ec 	udf	#2028
	...
  f0:	0000002c 	udf	#44
  f4:	06650002 	.inst	0x06650002 ; undefined
  f8:	00080000 	.inst	0x00080000 ; undefined
  fc:	00000000 	udf	#0
 100:	000820a8 	.inst	0x000820a8 ; undefined
 104:	00000000 	udf	#0
 108:	0000039c 	udf	#924
	...
 120:	0000002c 	udf	#44
 124:	07ad0002 	.inst	0x07ad0002 ; undefined
 128:	00080000 	.inst	0x00080000 ; undefined
 12c:	00000000 	udf	#0
 130:	00082444 	.inst	0x00082444 ; undefined
 134:	00000000 	udf	#0
 138:	00000684 	udf	#1668
	...
 150:	0000002c 	udf	#44
 154:	09240002 	.inst	0x09240002 ; undefined
 158:	00080000 	.inst	0x00080000 ; undefined
 15c:	00000000 	udf	#0
 160:	00082ac8 	.inst	0x00082ac8 ; undefined
 164:	00000000 	udf	#0
 168:	000000f8 	udf	#248
	...
 180:	0000002c 	udf	#44
 184:	0a230002 	bic	w2, w0, w3
 188:	00080000 	.inst	0x00080000 ; undefined
 18c:	00000000 	udf	#0
 190:	00082bc8 	.inst	0x00082bc8 ; undefined
 194:	00000000 	udf	#0
 198:	00000068 	udf	#104
	...
 1b0:	0000002c 	udf	#44
 1b4:	0aa50002 	bic	w2, w0, w5, asr #0
 1b8:	00080000 	.inst	0x00080000 ; undefined
 1bc:	00000000 	udf	#0
 1c0:	00082c30 	.inst	0x00082c30 ; undefined
 1c4:	00000000 	udf	#0
 1c8:	000002a8 	udf	#680
	...
 1e0:	0000002c 	udf	#44
 1e4:	0c880002 	st4	{v2.8b-v5.8b}, [x0], x8
 1e8:	00080000 	.inst	0x00080000 ; undefined
 1ec:	00000000 	udf	#0
 1f0:	00082ed8 	.inst	0x00082ed8 ; undefined
 1f4:	00000000 	udf	#0
 1f8:	00000034 	udf	#52
	...

Disassembly of section .debug_macro:

0000000000000000 <.debug_macro>:
       0:	00020005 	.inst	0x00020005 ; undefined
       4:	07000000 	.inst	0x07000000 ; undefined
       8:	0000002e 	udf	#46
       c:	03010003 	.inst	0x03010003 ; undefined
      10:	bc070401 	str	s1, [x0], #112
      14:	04000009 	add	z9.b, p0/m, z9.b, z0.b
      18:	04030203 	subr	z3.b, p0/m, z3.b, z16.b
      1c:	04020303 	.inst	0x04020303 ; undefined
      20:	10a80505 	adr	x5, fffffffffff500c0 <_end+0xffffffffffec6fb0>
      24:	06050000 	.inst	0x06050000 ; undefined
      28:	000035e5 	udf	#13797
      2c:	00050004 	.inst	0x00050004 ; undefined
      30:	b2000500 	orr	x0, x8, #0x300000003
      34:	05000033 	orr	z19.s, z19.s, #0x3
      38:	002d3b00 	.inst	0x002d3b00 ; NYI
      3c:	08000500 	stxrb	w0, w0, [x8]
      40:	05000022 	orr	z2.s, z2.s, #0x3
      44:	0035d300 	.inst	0x0035d300 ; NYI
      48:	a0000500 	.inst	0xa0000500 ; undefined
      4c:	0500002d 	orr	z13.s, z13.s, #0x3
      50:	000e6900 	.inst	0x000e6900 ; undefined
      54:	ed000500 	.inst	0xed000500 ; undefined
      58:	05000004 	orr	z4.s, z4.s, #0x1
      5c:	0020f300 	.inst	0x0020f300 ; NYI
      60:	39000500 	strb	w0, [x8, #1]
      64:	05000009 	orr	z9.s, z9.s, #0x1
      68:	000a8200 	.inst	0x000a8200 ; undefined
      6c:	ec000500 	.inst	0xec000500 ; undefined
      70:	05000007 	orr	z7.s, z7.s, #0x1
      74:	00242e00 	.inst	0x00242e00 ; NYI
      78:	53000500 	ubfx	w0, w8, #0, #2
      7c:	05000007 	orr	z7.s, z7.s, #0x1
      80:	002ea400 	.inst	0x002ea400 ; NYI
      84:	df000500 	.inst	0xdf000500 ; undefined
      88:	0500001f 	orr	z31.s, z31.s, #0x1
      8c:	001c6700 	.inst	0x001c6700 ; undefined
      90:	57000500 	.inst	0x57000500 ; undefined
      94:	0500001b 	orr	z27.s, z27.s, #0x1
      98:	001b1200 	.inst	0x001b1200 ; undefined
      9c:	69000500 	stgp	x0, x1, [x8]
      a0:	05000026 	orr	z6.s, z6.s, #0x3
      a4:	001fcd00 	.inst	0x001fcd00 ; undefined
      a8:	3f000500 	.inst	0x3f000500 ; undefined
      ac:	0500002a 	orr	z10.s, z10.s, #0x3
      b0:	0007ff00 	.inst	0x0007ff00 ; undefined
      b4:	22000500 	.inst	0x22000500 ; undefined
      b8:	0500001e 	orr	z30.s, z30.s, #0x1
      bc:	0020df00 	.inst	0x0020df00 ; NYI
      c0:	d5000500 	msr	s0_0_c0_c5_0, x0
      c4:	0500000f 	orr	z15.s, z15.s, #0x1
      c8:	0006a200 	.inst	0x0006a200 ; undefined
      cc:	91000500 	add	x0, x8, #0x1
      d0:	0500002d 	orr	z13.s, z13.s, #0x3
      d4:	00332300 	.inst	0x00332300 ; NYI
      d8:	1c000500 	ldr	s0, 178 <__bss_size-0xaa>
      dc:	05000011 	orr	z17.s, z17.s, #0x1
      e0:	0006d100 	.inst	0x0006d100 ; undefined
      e4:	74000500 	.inst	0x74000500 ; undefined
      e8:	05000025 	orr	z5.s, z5.s, #0x3
      ec:	0008d800 	.inst	0x0008d800 ; undefined
      f0:	3d000500 	str	b0, [x8, #1]
      f4:	05000023 	orr	z3.s, z3.s, #0x3
      f8:	002c0500 	.inst	0x002c0500 ; NYI
      fc:	2c000500 	stnp	s0, s1, [x8]
     100:	0500000a 	orr	z10.s, z10.s, #0x1
     104:	002f4e00 	.inst	0x002f4e00 ; NYI
     108:	01000500 	.inst	0x01000500 ; undefined
     10c:	05000017 	orr	z23.s, z23.s, #0x1
     110:	0031d500 	.inst	0x0031d500 ; NYI
     114:	7e000500 	.inst	0x7e000500 ; undefined
     118:	0500001c 	orr	z28.s, z28.s, #0x1
     11c:	00204500 	.inst	0x00204500 ; NYI
     120:	ea000500 	ands	x0, x8, x0, lsl #1
     124:	05000034 	orr	z20.s, z20.s, #0x3
     128:	0024b000 	.inst	0x0024b000 ; NYI
     12c:	6a000500 	ands	w0, w8, w0, lsl #1
     130:	05000006 	orr	z6.s, z6.s, #0x1
     134:	00275e00 	.inst	0x00275e00 ; NYI
     138:	07000500 	.inst	0x07000500 ; undefined
     13c:	05000037 	orr	z23.s, z23.s, #0x3
     140:	00283c00 	.inst	0x00283c00 ; NYI
     144:	a1000500 	.inst	0xa1000500 ; undefined
     148:	05000007 	orr	z7.s, z7.s, #0x1
     14c:	00115300 	.inst	0x00115300 ; undefined
     150:	b7000500 	tbnz	x0, #32, 1f0 <__bss_size-0x32>
     154:	0500002e 	orr	z14.s, z14.s, #0x3
     158:	002a9400 	.inst	0x002a9400 ; NYI
     15c:	3f000500 	.inst	0x3f000500 ; undefined
     160:	05000014 	orr	z20.s, z20.s, #0x1
     164:	0028ca00 	.inst	0x0028ca00 ; NYI
     168:	25000500 	cmpge	p0.b, p1/z, z8.b, #0
     16c:	05000008 	orr	z8.s, z8.s, #0x1
     170:	00086e00 	.inst	0x00086e00 ; undefined
     174:	83000500 	.inst	0x83000500 ; undefined
     178:	0500001a 	orr	z26.s, z26.s, #0x1
     17c:	00301400 	.inst	0x00301400 ; NYI
     180:	92000500 	and	x0, x8, #0x300000003
     184:	05000009 	orr	z9.s, z9.s, #0x1
     188:	000b0300 	.inst	0x000b0300 ; undefined
     18c:	18000500 	ldr	w0, 22c <__bss_size+0xa>
     190:	05000015 	orr	z21.s, z21.s, #0x1
     194:	00088e00 	.inst	0x00088e00 ; undefined
     198:	2d000500 	stp	s0, s1, [x8]
     19c:	05000030 	orr	z16.s, z16.s, #0x3
     1a0:	000a6300 	.inst	0x000a6300 ; undefined
     1a4:	ef000500 	.inst	0xef000500 ; undefined
     1a8:	05000031 	orr	z17.s, z17.s, #0x3
     1ac:	0020c200 	.inst	0x0020c200 ; NYI
     1b0:	cc000500 	.inst	0xcc000500 ; undefined
     1b4:	05000019 	orr	z25.s, z25.s, #0x1
     1b8:	0027f200 	.inst	0x0027f200 ; NYI
     1bc:	d7000500 	.inst	0xd7000500 ; undefined
     1c0:	0500002c 	orr	z12.s, z12.s, #0x3
     1c4:	0008b100 	.inst	0x0008b100 ; undefined
     1c8:	2b000500 	adds	w0, w8, w0, lsl #1
     1cc:	05000036 	orr	z22.s, z22.s, #0x3
     1d0:	00106900 	.inst	0x00106900 ; undefined
     1d4:	d4000500 	.inst	0xd4000500 ; undefined
     1d8:	0500001d 	orr	z29.s, z29.s, #0x1
     1dc:	00183e00 	.inst	0x00183e00 ; undefined
     1e0:	d8000500 	prfm	pldl1keep, 280 <__bss_size+0x5e>
     1e4:	05000009 	orr	z9.s, z9.s, #0x1
     1e8:	00254d00 	.inst	0x00254d00 ; NYI
     1ec:	58000500 	ldr	x0, 28c <__bss_size+0x6a>
     1f0:	05000013 	orr	z19.s, z19.s, #0x1
     1f4:	00159300 	.inst	0x00159300 ; undefined
     1f8:	da000500 	.inst	0xda000500 ; undefined
     1fc:	05000014 	orr	z20.s, z20.s, #0x1
     200:	0029ea00 	.inst	0x0029ea00 ; NYI
     204:	97000500 	bl	fffffffffc001604 <_end+0xfffffffffbf784f4>
     208:	05000010 	orr	z16.s, z16.s, #0x1
     20c:	00073a00 	.inst	0x00073a00 ; undefined
     210:	83000500 	.inst	0x83000500 ; undefined
     214:	05000021 	orr	z1.s, z1.s, #0x3
     218:	001a5f00 	.inst	0x001a5f00 ; undefined
     21c:	81000500 	.inst	0x81000500 ; undefined
     220:	05000030 	orr	z16.s, z16.s, #0x3
     224:	00209b00 	.inst	0x00209b00 ; NYI
     228:	b1000500 	adds	x0, x8, #0x1
     22c:	0500002a 	orr	z10.s, z10.s, #0x3
     230:	002c7800 	.inst	0x002c7800 ; NYI
     234:	34000500 	cbz	w0, 2d4 <__bss_size+0xb2>
     238:	0500002e 	orr	z14.s, z14.s, #0x3
     23c:	0005f000 	.inst	0x0005f000 ; undefined
     240:	9c000500 	ldr	q0, 2e0 <__bss_size+0xbe>
     244:	05000014 	orr	z20.s, z20.s, #0x1
     248:	00260100 	.inst	0x00260100 ; NYI
     24c:	f7000500 	.inst	0xf7000500 ; undefined
     250:	05000035 	orr	z21.s, z21.s, #0x3
     254:	002db200 	.inst	0x002db200 ; NYI
     258:	bb000500 	.inst	0xbb000500 ; undefined
     25c:	0500000d 	orr	z13.s, z13.s, #0x1
     260:	0018d300 	.inst	0x0018d300 ; undefined
     264:	9b000500 	madd	x0, x8, x0, x1
     268:	0500000b 	orr	z11.s, z11.s, #0x1
     26c:	00274700 	.inst	0x00274700 ; NYI
     270:	34000500 	cbz	w0, 310 <__bss_size+0xee>
     274:	0500001a 	orr	z26.s, z26.s, #0x1
     278:	00008000 	udf	#32768
     27c:	9e000500 	.inst	0x9e000500 ; undefined
     280:	05000022 	orr	z2.s, z2.s, #0x3
     284:	00251000 	.inst	0x00251000 ; NYI
     288:	db000500 	.inst	0xdb000500 ; undefined
     28c:	0500000e 	orr	z14.s, z14.s, #0x1
     290:	00208600 	.inst	0x00208600 ; NYI
     294:	fa000500 	.inst	0xfa000500 ; undefined
     298:	05000023 	orr	z3.s, z3.s, #0x3
     29c:	00245100 	.inst	0x00245100 ; NYI
     2a0:	64000500 	.inst	0x64000500 ; undefined
     2a4:	05000019 	orr	z25.s, z25.s, #0x1
     2a8:	00197f00 	.inst	0x00197f00 ; undefined
     2ac:	07000500 	.inst	0x07000500 ; undefined
     2b0:	05000018 	orr	z24.s, z24.s, #0x1
     2b4:	00053d00 	.inst	0x00053d00 ; undefined
     2b8:	46000500 	.inst	0x46000500 ; undefined
     2bc:	0500002e 	orr	z14.s, z14.s, #0x3
     2c0:	000b3b00 	.inst	0x000b3b00 ; undefined
     2c4:	4d000500 	st1	{v0.b}[9], [x8]
     2c8:	05000019 	orr	z25.s, z25.s, #0x1
     2cc:	0009bd00 	.inst	0x0009bd00 ; undefined
     2d0:	f7000500 	.inst	0xf7000500 ; undefined
     2d4:	0500001d 	orr	z29.s, z29.s, #0x1
     2d8:	000bd700 	.inst	0x000bd700 ; undefined
     2dc:	0c000500 	st4	{v0.4h-v3.4h}, [x8]
     2e0:	05000036 	orr	z22.s, z22.s, #0x3
     2e4:	00281400 	.inst	0x00281400 ; NYI
     2e8:	35000500 	cbnz	w0, 388 <__bss_size+0x166>
     2ec:	0500002f 	orr	z15.s, z15.s, #0x3
     2f0:	00192500 	.inst	0x00192500 ; undefined
     2f4:	a9000500 	stp	x0, x1, [x8]
     2f8:	05000031 	orr	z17.s, z17.s, #0x3
     2fc:	0010ea00 	.inst	0x0010ea00 ; undefined
     300:	98000500 	ldrsw	x0, 3a0 <__bss_size+0x17e>
     304:	0500000e 	orr	z14.s, z14.s, #0x1
     308:	00210900 	.inst	0x00210900 ; NYI
     30c:	24000500 	cmphs	p0.b, p1/z, z8.b, z0.b
     310:	0500000e 	orr	z14.s, z14.s, #0x1
     314:	00244100 	.inst	0x00244100 ; NYI
     318:	af000500 	.inst	0xaf000500 ; undefined
     31c:	05000034 	orr	z20.s, z20.s, #0x3
     320:	0020ad00 	.inst	0x0020ad00 ; NYI
     324:	2d000500 	stp	s0, s1, [x8]
     328:	0500001d 	orr	z29.s, z29.s, #0x1
     32c:	0006eb00 	.inst	0x0006eb00 ; undefined
     330:	52000500 	eor	w0, w8, #0x3
     334:	05000026 	orr	z6.s, z6.s, #0x3
     338:	00132600 	.inst	0x00132600 ; undefined
     33c:	f6000500 	.inst	0xf6000500 ; undefined
     340:	05000030 	orr	z16.s, z16.s, #0x3
     344:	000d4c00 	.inst	0x000d4c00 ; undefined
     348:	47000500 	.inst	0x47000500 ; undefined
     34c:	05000008 	orr	z8.s, z8.s, #0x1
     350:	002b8c00 	.inst	0x002b8c00 ; NYI
     354:	b8000500 	str	w0, [x8], #0
     358:	05000026 	orr	z6.s, z6.s, #0x3
     35c:	0037b800 	.inst	0x0037b800 ; NYI
     360:	3a000500 	.inst	0x3a000500 ; undefined
     364:	05000010 	orr	z16.s, z16.s, #0x1
     368:	0023d100 	.inst	0x0023d100 ; NYI
     36c:	3e000500 	.inst	0x3e000500 ; undefined
     370:	0500001c 	orr	z28.s, z28.s, #0x1
     374:	000e4000 	.inst	0x000e4000 ; undefined
     378:	a8000500 	stnp	x0, x1, [x8]
     37c:	05000002 	orr	z2.s, z2.s, #0x1
     380:	0027de00 	.inst	0x0027de00 ; NYI
     384:	96000500 	bl	fffffffff8001784 <_end+0xfffffffff7f78674>
     388:	0500000d 	orr	z13.s, z13.s, #0x1
     38c:	000dde00 	.inst	0x000dde00 ; undefined
     390:	86000500 	.inst	0x86000500 ; undefined
     394:	05000022 	orr	z2.s, z2.s, #0x3
     398:	00189000 	.inst	0x00189000 ; undefined
     39c:	71000500 	subs	w0, w8, #0x1
     3a0:	05000031 	orr	z17.s, z17.s, #0x3
     3a4:	00176500 	.inst	0x00176500 ; undefined
     3a8:	80000500 	.inst	0x80000500 ; undefined
     3ac:	0500000f 	orr	z15.s, z15.s, #0x1
     3b0:	00168f00 	.inst	0x00168f00 ; undefined
     3b4:	3e000500 	.inst	0x3e000500 ; undefined
     3b8:	0500000d 	orr	z13.s, z13.s, #0x1
     3bc:	00339b00 	.inst	0x00339b00 ; NYI
     3c0:	02000500 	.inst	0x02000500 ; undefined
     3c4:	05000001 	orr	z1.s, z1.s, #0x1
     3c8:	002e8b00 	.inst	0x002e8b00 ; NYI
     3cc:	41000500 	.inst	0x41000500 ; undefined
     3d0:	05000015 	orr	z21.s, z21.s, #0x1
     3d4:	00259800 	.inst	0x00259800 ; NYI
     3d8:	7b000500 	.inst	0x7b000500 ; undefined
     3dc:	05000017 	orr	z23.s, z23.s, #0x1
     3e0:	0021cc00 	.inst	0x0021cc00 ; NYI
     3e4:	cf000500 	.inst	0xcf000500 ; undefined
     3e8:	0500002e 	orr	z14.s, z14.s, #0x3
     3ec:	00311d00 	.inst	0x00311d00 ; NYI
     3f0:	2c000500 	stnp	s0, s1, [x8]
     3f4:	05000006 	orr	z6.s, z6.s, #0x1
     3f8:	0037a300 	.inst	0x0037a300 ; NYI
     3fc:	8f000500 	.inst	0x8f000500 ; undefined
     400:	0500001e 	orr	z30.s, z30.s, #0x1
     404:	0031bd00 	.inst	0x0031bd00 ; NYI
     408:	59000500 	.inst	0x59000500 ; undefined
     40c:	0500002c 	orr	z12.s, z12.s, #0x3
     410:	00076600 	.inst	0x00076600 ; undefined
     414:	01000500 	.inst	0x01000500 ; undefined
     418:	05000007 	orr	z7.s, z7.s, #0x1
     41c:	001ac800 	.inst	0x001ac800 ; undefined
     420:	87000500 	.inst	0x87000500 ; undefined
     424:	05000003 	orr	z3.s, z3.s, #0x1
     428:	0017b200 	.inst	0x0017b200 ; undefined
     42c:	b8000500 	str	w0, [x8], #0
     430:	0500001f 	orr	z31.s, z31.s, #0x1
     434:	0032d100 	.inst	0x0032d100 ; NYI
     438:	d0000500 	adrp	x0, a2000 <_end+0x18ef0>
     43c:	05000037 	orr	z23.s, z23.s, #0x3
     440:	00136f00 	.inst	0x00136f00 ; undefined
     444:	0c000500 	st4	{v0.4h-v3.4h}, [x8]
     448:	05000032 	orr	z18.s, z18.s, #0x3
     44c:	001bb800 	.inst	0x001bb800 ; undefined
     450:	a6000500 	.inst	0xa6000500 ; undefined
     454:	05000036 	orr	z22.s, z22.s, #0x3
     458:	00021d00 	.inst	0x00021d00 ; undefined
     45c:	69000500 	stgp	x0, x1, [x8]
     460:	05000009 	orr	z9.s, z9.s, #0x1
     464:	00319200 	.inst	0x00319200 ; NYI
     468:	ef000500 	.inst	0xef000500 ; undefined
     46c:	0500000f 	orr	z15.s, z15.s, #0x1
     470:	0032a600 	.inst	0x0032a600 ; NYI
     474:	48000500 	stxrh	w0, w0, [x8]
     478:	0500001a 	orr	z26.s, z26.s, #0x1
     47c:	00033400 	.inst	0x00033400 ; undefined
     480:	88000500 	stxr	w0, w0, [x8]
     484:	0500000e 	orr	z14.s, z14.s, #0x1
     488:	0025e700 	.inst	0x0025e700 ; NYI
     48c:	22000500 	.inst	0x22000500 ; undefined
     490:	05000018 	orr	z24.s, z24.s, #0x1
     494:	00105200 	.inst	0x00105200 ; undefined
     498:	52000500 	eor	w0, w8, #0x3
     49c:	05000036 	orr	z22.s, z22.s, #0x3
     4a0:	002cc400 	.inst	0x002cc400 ; NYI
     4a4:	06000500 	.inst	0x06000500 ; undefined
     4a8:	0500002f 	orr	z15.s, z15.s, #0x3
     4ac:	00146200 	.inst	0x00146200 ; undefined
     4b0:	cb000500 	sub	x0, x8, x0, lsl #1
     4b4:	05000022 	orr	z2.s, z2.s, #0x3
     4b8:	0008ff00 	.inst	0x0008ff00 ; undefined
     4bc:	57000500 	.inst	0x57000500 ; undefined
     4c0:	05000015 	orr	z21.s, z21.s, #0x1
     4c4:	0009eb00 	.inst	0x0009eb00 ; undefined
     4c8:	77000500 	.inst	0x77000500 ; undefined
     4cc:	05000037 	orr	z23.s, z23.s, #0x3
     4d0:	00226e00 	.inst	0x00226e00 ; NYI
     4d4:	23000500 	.inst	0x23000500 ; undefined
     4d8:	05000028 	orr	z8.s, z8.s, #0x3
     4dc:	000aac00 	.inst	0x000aac00 ; undefined
     4e0:	64000500 	.inst	0x64000500 ; undefined
     4e4:	0500000d 	orr	z13.s, z13.s, #0x1
     4e8:	00077d00 	.inst	0x00077d00 ; undefined
     4ec:	fd000500 	str	d0, [x8, #8]
     4f0:	05000013 	orr	z19.s, z19.s, #0x1
     4f4:	0000b800 	udf	#47104
     4f8:	f5000500 	.inst	0xf5000500 ; undefined
     4fc:	05000015 	orr	z21.s, z21.s, #0x1
     500:	00350300 	.inst	0x00350300 ; NYI
     504:	2d000500 	stp	s0, s1, [x8]
     508:	05000021 	orr	z1.s, z1.s, #0x3
     50c:	00342500 	.inst	0x00342500 ; NYI
     510:	00000500 	udf	#1280
     514:	05000000 	orr	z0.s, z0.s, #0x1
     518:	0019e900 	.inst	0x0019e900 ; undefined
     51c:	56000500 	.inst	0x56000500 ; undefined
     520:	0500002a 	orr	z10.s, z10.s, #0x3
     524:	00120600 	.inst	0x00120600 ; undefined
     528:	d3000500 	.inst	0xd3000500 ; undefined
     52c:	05000024 	orr	z4.s, z4.s, #0x3
     530:	001ea600 	.inst	0x001ea600 ; undefined
     534:	1a000500 	.inst	0x1a000500 ; undefined
     538:	0500002e 	orr	z14.s, z14.s, #0x3
     53c:	0007ba00 	.inst	0x0007ba00 ; undefined
     540:	cb000500 	sub	x0, x8, x0, lsl #1
     544:	05000002 	orr	z2.s, z2.s, #0x1
     548:	00185500 	.inst	0x00185500 ; undefined
     54c:	e8000500 	.inst	0xe8000500 ; undefined
     550:	05000016 	orr	z22.s, z22.s, #0x1
     554:	00094e00 	.inst	0x00094e00 ; undefined
     558:	a2000500 	.inst	0xa2000500 ; undefined
     55c:	0500001a 	orr	z26.s, z26.s, #0x1
     560:	0035bb00 	.inst	0x0035bb00 ; NYI
     564:	15000500 	b	4001964 <_end+0x3f78854>
     568:	05000014 	orr	z20.s, z20.s, #0x1
     56c:	00366b00 	.inst	0x00366b00 ; NYI
     570:	ad000500 	stp	q0, q1, [x8]
     574:	05000004 	orr	z4.s, z4.s, #0x1
     578:	001ff200 	.inst	0x001ff200 ; undefined
     57c:	7a000500 	.inst	0x7a000500 ; undefined
     580:	05000026 	orr	z6.s, z6.s, #0x3
     584:	00238f00 	.inst	0x00238f00 ; NYI
     588:	b8000500 	str	w0, [x8], #0
     58c:	0500000c 	orr	z12.s, z12.s, #0x1
     590:	0000d200 	udf	#53760
     594:	0a000500 	and	w0, w8, w0, lsl #1
     598:	0500000e 	orr	z14.s, z14.s, #0x1
     59c:	000b4900 	.inst	0x000b4900 ; undefined
     5a0:	1a000500 	.inst	0x1a000500 ; undefined
     5a4:	05000022 	orr	z2.s, z2.s, #0x3
     5a8:	00378d00 	.inst	0x00378d00 ; NYI
     5ac:	52000500 	eor	w0, w8, #0x3
     5b0:	0500000a 	orr	z10.s, z10.s, #0x1
     5b4:	00315700 	.inst	0x00315700 ; NYI
     5b8:	3c000500 	str	b0, [x8], #0
     5bc:	05000013 	orr	z19.s, z19.s, #0x1
     5c0:	0000eb00 	udf	#60160
     5c4:	03000500 	.inst	0x03000500 ; undefined
     5c8:	05000011 	orr	z17.s, z17.s, #0x1
     5cc:	0016ba00 	.inst	0x0016ba00 ; undefined
     5d0:	9a000500 	.inst	0x9a000500 ; undefined
     5d4:	0500001c 	orr	z28.s, z28.s, #0x1
     5d8:	002b1000 	.inst	0x002b1000 ; NYI
     5dc:	b4000500 	cbz	x0, 67c <__bss_size+0x45a>
     5e0:	05000005 	orr	z5.s, z5.s, #0x1
     5e4:	002c1a00 	.inst	0x002c1a00 ; NYI
     5e8:	64000500 	.inst	0x64000500 ; undefined
     5ec:	05000035 	orr	z21.s, z21.s, #0x3
     5f0:	00187900 	.inst	0x00187900 ; undefined
     5f4:	21000500 	.inst	0x21000500 ; undefined
     5f8:	05000010 	orr	z16.s, z16.s, #0x1
     5fc:	00009e00 	udf	#40448
     600:	56000500 	.inst	0x56000500 ; undefined
     604:	05000028 	orr	z8.s, z8.s, #0x3
     608:	000c9f00 	.inst	0x000c9f00 ; undefined
     60c:	e1000500 	.inst	0xe1000500 ; undefined
     610:	05000002 	orr	z2.s, z2.s, #0x1
     614:	00142d00 	.inst	0x00142d00 ; undefined
     618:	ee000500 	.inst	0xee000500 ; undefined
     61c:	0500000d 	orr	z13.s, z13.s, #0x1
     620:	00231f00 	.inst	0x00231f00 ; NYI
     624:	67000500 	.inst	0x67000500 ; undefined
     628:	0500000f 	orr	z15.s, z15.s, #0x1
     62c:	0012cc00 	.inst	0x0012cc00 ; undefined
     630:	89000500 	.inst	0x89000500 ; undefined
     634:	0500002c 	orr	z12.s, z12.s, #0x3
     638:	000b5c00 	.inst	0x000b5c00 ; undefined
     63c:	d7000500 	.inst	0xd7000500 ; undefined
     640:	05000033 	orr	z19.s, z19.s, #0x3
     644:	0012e700 	.inst	0x0012e700 ; undefined
     648:	3f000500 	.inst	0x3f000500 ; undefined
     64c:	05000000 	orr	z0.s, z0.s, #0x1
     650:	00333c00 	.inst	0x00333c00 ; NYI
     654:	1f000500 	fmadd	s0, s8, s0, s1
     658:	05000037 	orr	z23.s, z23.s, #0x3
     65c:	000ade00 	.inst	0x000ade00 ; undefined
     660:	df000500 	.inst	0xdf000500 ; undefined
     664:	05000026 	orr	z6.s, z6.s, #0x3
     668:	00375d00 	.inst	0x00375d00 ; NYI
     66c:	40000500 	.inst	0x40000500 ; undefined
     670:	0500001b 	orr	z27.s, z27.s, #0x1
     674:	001b2e00 	.inst	0x001b2e00 ; undefined
     678:	c3000500 	.inst	0xc3000500 ; undefined
     67c:	05000027 	orr	z7.s, z7.s, #0x3
     680:	0026fa00 	.inst	0x0026fa00 ; NYI
     684:	a0000500 	.inst	0xa0000500 ; undefined
     688:	05000001 	orr	z1.s, z1.s, #0x1
     68c:	0034d000 	.inst	0x0034d000 ; NYI
     690:	6d000500 	stp	d0, d1, [x8]
     694:	05000003 	orr	z3.s, z3.s, #0x1
     698:	00041100 	.inst	0x00041100 ; undefined
     69c:	1a000500 	.inst	0x1a000500 ; undefined
     6a0:	05000035 	orr	z21.s, z21.s, #0x3
     6a4:	001d9600 	.inst	0x001d9600 ; undefined
     6a8:	b4000500 	cbz	x0, 748 <__bss_size+0x526>
     6ac:	05000015 	orr	z21.s, z21.s, #0x1
     6b0:	000f9000 	.inst	0x000f9000 ; undefined
     6b4:	bb000500 	.inst	0xbb000500 ; undefined
     6b8:	05000018 	orr	z24.s, z24.s, #0x1
     6bc:	000ac400 	.inst	0x000ac400 ; undefined
     6c0:	b6000500 	tbz	x0, #32, 760 <__bss_size+0x53e>
     6c4:	05000032 	orr	z18.s, z18.s, #0x3
     6c8:	0013cf00 	.inst	0x0013cf00 ; undefined
     6cc:	fa000500 	.inst	0xfa000500 ; undefined
     6d0:	0500001b 	orr	z27.s, z27.s, #0x1
     6d4:	00202d00 	.inst	0x00202d00 ; NYI
     6d8:	66000500 	.inst	0x66000500 ; undefined
     6dc:	05000011 	orr	z17.s, z17.s, #0x1
     6e0:	000d0c00 	.inst	0x000d0c00 ; undefined
     6e4:	47000500 	.inst	0x47000500 ; undefined
     6e8:	05000012 	orr	z18.s, z18.s, #0x1
     6ec:	0007d300 	.inst	0x0007d300 ; undefined
     6f0:	9d000500 	.inst	0x9d000500 ; undefined
     6f4:	0500001b 	orr	z27.s, z27.s, #0x1
     6f8:	00247300 	.inst	0x00247300 ; NYI
     6fc:	57000500 	.inst	0x57000500 ; undefined
     700:	0500001d 	orr	z29.s, z29.s, #0x1
     704:	00172100 	.inst	0x00172100 ; undefined
     708:	13000500 	sbfx	w0, w8, #0, #2
     70c:	05000026 	orr	z6.s, z6.s, #0x3
     710:	0001dc00 	.inst	0x0001dc00 ; undefined
     714:	1b000500 	madd	w0, w8, w0, w1
     718:	05000001 	orr	z1.s, z1.s, #0x1
     71c:	00117800 	.inst	0x00117800 ; undefined
     720:	a9000500 	stp	x0, x1, [x8]
     724:	05000027 	orr	z7.s, z7.s, #0x3
     728:	001e7400 	.inst	0x001e7400 ; undefined
     72c:	07000500 	.inst	0x07000500 ; undefined
     730:	05000010 	orr	z16.s, z16.s, #0x1
     734:	0016d300 	.inst	0x0016d300 ; undefined
     738:	a3000500 	.inst	0xa3000500 ; undefined
     73c:	05000016 	orr	z22.s, z22.s, #0x1
     740:	0014af00 	.inst	0x0014af00 ; undefined
     744:	7f000500 	.inst	0x7f000500 ; undefined
     748:	05000016 	orr	z22.s, z22.s, #0x1
     74c:	00078d00 	.inst	0x00078d00 ; undefined
     750:	e7000500 	.inst	0xe7000500 ; undefined
     754:	0500000c 	orr	z12.s, z12.s, #0x1
     758:	00236a00 	.inst	0x00236a00 ; NYI
     75c:	ed000500 	.inst	0xed000500 ; undefined
     760:	0500000e 	orr	z14.s, z14.s, #0x1
     764:	00060700 	.inst	0x00060700 ; undefined
     768:	60000500 	.inst	0x60000500 ; undefined
     76c:	05000020 	orr	z0.s, z0.s, #0x3
     770:	001c2000 	.inst	0x001c2000 ; undefined
     774:	05000500 	orr	z0.h, z0.h, #0x1ff
     778:	05000033 	orr	z19.s, z19.s, #0x3
     77c:	0003d800 	.inst	0x0003d800 ; undefined
     780:	54000500 	b.eq	820 <__bss_size+0x5fe>  // b.none
     784:	0500002d 	orr	z13.s, z13.s, #0x3
     788:	0018f200 	.inst	0x0018f200 ; undefined
     78c:	c0000500 	mov	za0h.b[w12, 0], p1/m, z8.b
     790:	05000030 	orr	z16.s, z16.s, #0x3
     794:	0032e800 	.inst	0x0032e800 ; NYI
     798:	fb000500 	.inst	0xfb000500 ; undefined
     79c:	05000028 	orr	z8.s, z8.s, #0x3
     7a0:	002e6c00 	.inst	0x002e6c00 ; NYI
     7a4:	b8000500 	str	w0, [x8], #0
     7a8:	05000001 	orr	z1.s, z1.s, #0x1
     7ac:	002ca300 	.inst	0x002ca300 ; NYI
     7b0:	9c000500 	ldr	q0, 850 <__bss_size+0x62e>
     7b4:	05000012 	orr	z18.s, z18.s, #0x1
     7b8:	001e0600 	.inst	0x001e0600 ; undefined
     7bc:	eb000500 	subs	x0, x8, x0, lsl #1
     7c0:	05000036 	orr	z22.s, z22.s, #0x3
     7c4:	000b2600 	.inst	0x000b2600 ; undefined
     7c8:	0a000500 	and	w0, w8, w0, lsl #1
     7cc:	05000023 	orr	z3.s, z3.s, #0x3
     7d0:	00046500 	.inst	0x00046500 ; undefined
     7d4:	c0000500 	mov	za0h.b[w12, 0], p1/m, z8.b
     7d8:	0500000b 	orr	z11.s, z11.s, #0x1
     7dc:	002c6a00 	.inst	0x002c6a00 ; NYI
     7e0:	90000500 	adrp	x0, a0000 <_end+0x16ef0>
     7e4:	05000011 	orr	z17.s, z17.s, #0x1
     7e8:	00211800 	.inst	0x00211800 ; NYI
     7ec:	01000500 	.inst	0x01000500 ; undefined
     7f0:	05000015 	orr	z21.s, z21.s, #0x1
     7f4:	0030a300 	.inst	0x0030a300 ; NYI
     7f8:	bc000500 	str	s0, [x8], #0
     7fc:	05000012 	orr	z18.s, z18.s, #0x1
     800:	000d2800 	.inst	0x000d2800 ; undefined
     804:	c6000500 	.inst	0xc6000500 ; undefined
     808:	05000014 	orr	z20.s, z20.s, #0x1
     80c:	00108200 	.inst	0x00108200 ; undefined
     810:	39000500 	strb	w0, [x8, #1]
     814:	05000011 	orr	z17.s, z17.s, #0x1
     818:	00349b00 	.inst	0x00349b00 ; NYI
     81c:	fa000500 	.inst	0xfa000500 ; undefined
     820:	05000003 	orr	z3.s, z3.s, #0x1
     824:	001d1200 	.inst	0x001d1200 ; undefined
     828:	ea000600 	ands	x0, x16, x0, lsl #1
     82c:	05000024 	orr	z4.s, z4.s, #0x3
     830:	0009b000 	.inst	0x0009b000 ; undefined
     834:	7a000500 	.inst	0x7a000500 ; undefined
     838:	0600000d 	.inst	0x0600000d ; undefined
     83c:	002e5e00 	.inst	0x002e5e00 ; NYI
     840:	23000600 	.inst	0x23000600 ; undefined
     844:	0500001a 	orr	z26.s, z26.s, #0x1
     848:	00047900 	.inst	0x00047900 ; undefined
     84c:	49000500 	.inst	0x49000500 ; undefined
     850:	05000037 	orr	z23.s, z23.s, #0x3
     854:	001c1400 	.inst	0x001c1400 ; undefined
     858:	95000500 	bl	4001c58 <_end+0x3f78b48>
     85c:	05000029 	orr	z9.s, z9.s, #0x3
     860:	00191300 	.inst	0x00191300 ; undefined
     864:	d7000600 	.inst	0xd7000600 ; undefined
     868:	0600001a 	.inst	0x0600001a ; undefined
     86c:	00071500 	.inst	0x00071500 ; undefined
     870:	62000500 	.inst	0x62000500 ; undefined
     874:	05000030 	orr	z16.s, z16.s, #0x3
     878:	002fca00 	.inst	0x002fca00 ; NYI
     87c:	a7000600 	.inst	0xa7000600 ; undefined
     880:	06000035 	.inst	0x06000035 ; undefined
     884:	000c3b00 	.inst	0x000c3b00 ; undefined
     888:	4f000600 	movi	v0.4s, #0x10
     88c:	06000004 	.inst	0x06000004 ; undefined
     890:	00081200 	.inst	0x00081200 ; undefined
     894:	cf000600 	.inst	0xcf000600 ; undefined
     898:	0600000c 	.inst	0x0600000c ; undefined
     89c:	00286900 	.inst	0x00286900 ; NYI
     8a0:	82000600 	.inst	0x82000600 ; undefined
     8a4:	05000033 	orr	z19.s, z19.s, #0x3
     8a8:	0006b600 	.inst	0x0006b600 ; undefined
     8ac:	5d000600 	.inst	0x5d000600 ; undefined
     8b0:	06000035 	.inst	0x06000035 ; undefined
     8b4:	00258e00 	.inst	0x00258e00 ; NYI
     8b8:	9f000600 	.inst	0x9f000600 ; undefined
     8bc:	06000005 	.inst	0x06000005 ; undefined
     8c0:	00097e00 	.inst	0x00097e00 ; undefined
     8c4:	37000600 	tbnz	w0, #0, 984 <__bss_size+0x762>
     8c8:	06000037 	.inst	0x06000037 ; undefined
     8cc:	00249900 	.inst	0x00249900 ; NYI
     8d0:	4a000600 	eor	w0, w16, w0, lsl #1
     8d4:	06000003 	.inst	0x06000003 ; undefined
     8d8:	000eb100 	.inst	0x000eb100 ; undefined
     8dc:	e3000600 	.inst	0xe3000600 ; undefined
     8e0:	0600002f 	.inst	0x0600002f ; undefined
     8e4:	0013b100 	.inst	0x0013b100 ; undefined
     8e8:	61000600 	.inst	0x61000600 ; undefined
     8ec:	06000025 	.inst	0x06000025 ; undefined
     8f0:	002f1e00 	.inst	0x002f1e00 ; NYI
     8f4:	13000600 	sbfx	w0, w16, #0, #2
     8f8:	06000024 	.inst	0x06000024 ; undefined
     8fc:	00325300 	.inst	0x00325300 ; NYI
     900:	df000600 	.inst	0xdf000600 ; undefined
     904:	06000030 	.inst	0x06000030 ; undefined
     908:	001afc00 	.inst	0x001afc00 ; undefined
     90c:	fe000600 	.inst	0xfe000600 ; undefined
     910:	0600002a 	.inst	0x0600002a ; undefined
     914:	000e7500 	.inst	0x000e7500 ; undefined
     918:	01000600 	.inst	0x01000600 ; undefined
     91c:	06000030 	.inst	0x06000030 ; undefined
     920:	00068d00 	.inst	0x00068d00 ; undefined
     924:	e2000600 	.inst	0xe2000600 ; undefined
     928:	06000011 	.inst	0x06000011 ; undefined
     92c:	0011f400 	.inst	0x0011f400 ; undefined
     930:	95000600 	bl	4002130 <_end+0x3f79020>
     934:	0600000a 	.inst	0x0600000a ; undefined
     938:	00186500 	.inst	0x00186500 ; undefined
     93c:	76000600 	.inst	0x76000600 ; undefined
     940:	0600002d 	.inst	0x0600002d ; undefined
     944:	00049b00 	.inst	0x00049b00 ; undefined
     948:	2a000600 	orr	w0, w16, w0, lsl #1
     94c:	06000027 	.inst	0x06000027 ; undefined
     950:	002dc400 	.inst	0x002dc400 ; NYI
     954:	e3000600 	.inst	0xe3000600 ; undefined
     958:	06000013 	.inst	0x06000013 ; undefined
     95c:	0033bd00 	.inst	0x0033bd00 ; NYI
     960:	28000600 	stnp	w0, w1, [x16]
     964:	06000025 	.inst	0x06000025 ; undefined
     968:	002ba400 	.inst	0x002ba400 ; NYI
     96c:	17000600 	b	fffffffffc00216c <_end+0xfffffffffbf7905c>
     970:	06000027 	.inst	0x06000027 ; undefined
     974:	000c5100 	.inst	0x000c5100 ; undefined
     978:	90000500 	adrp	x0, a0000 <_end+0x16ef0>
     97c:	06000018 	.inst	0x06000018 ; undefined
     980:	0024f800 	.inst	0x0024f800 ; NYI
     984:	12000500 	and	w0, w8, #0x3
     988:	0500000f 	orr	z15.s, z15.s, #0x1
     98c:	001ab800 	.inst	0x001ab800 ; undefined
     990:	82000500 	.inst	0x82000500 ; undefined
     994:	05000028 	orr	z8.s, z8.s, #0x3
     998:	002fd700 	.inst	0x002fd700 ; NYI
     99c:	84000500 	ld1sb	{z0.s}, p1/z, [x8, z0.s, uxtw]
     9a0:	05000028 	orr	z8.s, z8.s, #0x3
     9a4:	002d8800 	.inst	0x002d8800 ; NYI
     9a8:	f8000500 	str	x0, [x8], #0
     9ac:	0500000a 	orr	z10.s, z10.s, #0x1
     9b0:	002d8a00 	.inst	0x002d8a00 ; NYI
     9b4:	1b000500 	madd	w0, w8, w0, w1
     9b8:	00000034 	udf	#52
     9bc:	05000005 	orr	z5.s, z5.s, #0x1
     9c0:	0018a602 	.inst	0x0018a602 ; undefined
     9c4:	a4050500 	ld1rqb	{z0.b}, p1/z, [x8, x5]
     9c8:	05000011 	orr	z17.s, z17.s, #0x1
     9cc:	002cfe06 	.inst	0x002cfe06 ; NYI
     9d0:	8c070500 	.inst	0x8c070500 ; undefined
     9d4:	05000028 	orr	z8.s, z8.s, #0x3
     9d8:	00214508 	.inst	0x00214508 ; NYI
     9dc:	5f090500 	.inst	0x5f090500 ; undefined
     9e0:	0500001b 	orr	z27.s, z27.s, #0x1
     9e4:	000bf00a 	.inst	0x000bf00a ; undefined
     9e8:	570b0500 	.inst	0x570b0500 ; undefined
     9ec:	05000029 	orr	z9.s, z9.s, #0x3
     9f0:	0029190c 	.inst	0x0029190c ; NYI
     9f4:	660d0500 	.inst	0x660d0500 ; undefined
     9f8:	05000002 	orr	z2.s, z2.s, #0x1
     9fc:	0004fe0e 	.inst	0x0004fe0e ; undefined
     a00:	350f0500 	cbnz	w0, 1eaa0 <__bss_size+0x1e87e>
     a04:	0500001e 	orr	z30.s, z30.s, #0x1
     a08:	00016110 	.inst	0x00016110 ; undefined
     a0c:	93140500 	.inst	0x93140500 ; undefined
     a10:	05000027 	orr	z7.s, z7.s, #0x3
     a14:	00126515 	.inst	0x00126515 ; undefined
     a18:	95160500 	bl	4581e18 <_end+0x44f8d08>
     a1c:	05000019 	orr	z25.s, z25.s, #0x1
     a20:	0025ae17 	.inst	0x0025ae17 ; NYI
     a24:	9f180500 	.inst	0x9f180500 ; undefined
     a28:	05000003 	orr	z3.s, z3.s, #0x1
     a2c:	00219319 	.inst	0x00219319 ; NYI
     a30:	0a1a0500 	and	w0, w8, w26, lsl #1
     a34:	05000016 	orr	z22.s, z22.s, #0x1
     a38:	001f7c1d 	.inst	0x001f7c1d ; undefined
     a3c:	5f1e0500 	.inst	0x5f1e0500 ; undefined
     a40:	05000034 	orr	z20.s, z20.s, #0x3
     a44:	0029ae1f 	.inst	0x0029ae1f ; NYI
     a48:	d6200500 	.inst	0xd6200500 ; undefined
     a4c:	0500001c 	orr	z28.s, z28.s, #0x1
     a50:	002dde21 	.inst	0x002dde21 ; NYI
     a54:	c9220500 	.inst	0xc9220500 ; undefined
     a58:	0500002b 	orr	z11.s, z11.s, #0x3
     a5c:	002a0423 	.inst	0x002a0423 ; NYI
     a60:	f9240500 	str	x0, [x8, #18440]
     a64:	05000002 	orr	z2.s, z2.s, #0x1
     a68:	00326b25 	.inst	0x00326b25 ; NYI
     a6c:	cc260500 	.inst	0xcc260500 ; undefined
     a70:	05000017 	orr	z23.s, z23.s, #0x1
     a74:	000f2c27 	.inst	0x000f2c27 ; undefined
     a78:	c3280500 	.inst	0xc3280500 ; undefined
     a7c:	0500002a 	orr	z10.s, z10.s, #0x3
     a80:	00223329 	.inst	0x00223329 ; NYI
     a84:	8f2a0500 	.inst	0x8f2a0500 ; undefined
     a88:	0500002f 	orr	z15.s, z15.s, #0x3
     a8c:	002b512b 	.inst	0x002b512b ; NYI
     a90:	652c0500 	.inst	0x652c0500 ; undefined
     a94:	0500000c 	orr	z12.s, z12.s, #0x1
     a98:	0016412d 	.inst	0x0016412d ; undefined
     a9c:	612e0500 	.inst	0x612e0500 ; undefined
     aa0:	00000005 	udf	#5
     aa4:	b1020005 	adds	x5, x0, #0x80
     aa8:	07000001 	.inst	0x07000001 ; undefined
     aac:	0000002e 	udf	#46
     ab0:	04010003 	sub	z3.b, p0/m, z3.b, z0.b
     ab4:	02000500 	.inst	0x02000500 ; undefined
     ab8:	00000261 	udf	#609
     abc:	00002e07 	udf	#11783
     ac0:	01000300 	.inst	0x01000300 ; undefined
     ac4:	07040103 	.inst	0x07040103 ; undefined
     ac8:	000009bc 	udf	#2492
     acc:	02020304 	.inst	0x02020304 ; undefined
     ad0:	000ad807 	.inst	0x000ad807 ; undefined
     ad4:	00040400 	.inst	0x00040400 ; undefined
     ad8:	05000005 	orr	z5.s, z5.s, #0x1
     adc:	00399c02 	.inst	0x00399c02 ; NYI
     ae0:	b0040500 	adrp	x0, 80a1000 <_end+0x8017ef0>
     ae4:	05000038 	orr	z24.s, z24.s, #0x3
     ae8:	003aa905 	.inst	0x003aa905 ; NYI
     aec:	5e060500 	mov	h0, v8.h[1]
     af0:	05000039 	orr	z25.s, z25.s, #0x3
     af4:	00390308 	.inst	0x00390308 ; NYI
     af8:	bc090500 	str	s0, [x8], #144
     afc:	05000039 	orr	z25.s, z25.s, #0x3
     b00:	003a200a 	.inst	0x003a200a ; NYI
     b04:	410c0500 	.inst	0x410c0500 ; undefined
     b08:	0500003a 	orr	z26.s, z26.s, #0x3
     b0c:	00386d0f 	.inst	0x00386d0f ; NYI
     b10:	87100500 	.inst	0x87100500 ; undefined
     b14:	0500003a 	orr	z26.s, z26.s, #0x3
     b18:	00393611 	.inst	0x00393611 ; NYI
     b1c:	47120500 	.inst	0x47120500 ; undefined
     b20:	05000038 	orr	z24.s, z24.s, #0x3
     b24:	003ae813 	.inst	0x003ae813 ; NYI
     b28:	32140500 	orr	w0, w8, #0x3000
     b2c:	05000039 	orr	z25.s, z25.s, #0x3
     b30:	003a5615 	.inst	0x003a5615 ; NYI
     b34:	00050000 	.inst	0x00050000 ; undefined
     b38:	00052d02 	.inst	0x00052d02 ; undefined
     b3c:	002e0700 	.inst	0x002e0700 ; NYI
     b40:	00030000 	.inst	0x00030000 ; undefined
     b44:	04010301 	sub	z1.b, p0/m, z1.b, z24.b
     b48:	0009bc07 	.inst	0x0009bc07 ; undefined
     b4c:	02030400 	.inst	0x02030400 ; undefined
     b50:	0ad80702 	and	w2, w24, w24, ror #1
     b54:	03040000 	.inst	0x03040000 ; undefined
     b58:	03040503 	.inst	0x03040503 ; undefined
     b5c:	04040304 	.inst	0x04040304 ; undefined
     b60:	02000500 	.inst	0x02000500 ; undefined
     b64:	0000064d 	udf	#1613
     b68:	00002e07 	udf	#11783
     b6c:	01000300 	.inst	0x01000300 ; undefined
     b70:	07020103 	.inst	0x07020103 ; undefined
     b74:	00000ad8 	udf	#2776
     b78:	04020304 	.inst	0x04020304 ; undefined
     b7c:	0009bc07 	.inst	0x0009bc07 ; undefined
     b80:	03030400 	.inst	0x03030400 ; undefined
     b84:	04030405 	subr	z5.b, p1/m, z5.b, z0.b
     b88:	05030406 	orr	z6.d, z6.d, #0xffffffff00000001
     b8c:	07050403 	.inst	0x07050403 ; undefined
     b90:	00003b63 	udf	#15203
     b94:	3c800805 	.inst	0x3c800805 ; undefined
     b98:	09050000 	.inst	0x09050000 ; undefined
     b9c:	00003b3d 	udf	#15165
     ba0:	3b500a05 	.inst	0x3b500a05 ; undefined
     ba4:	0b050000 	add	w0, w0, w5
     ba8:	00003b97 	udf	#15255
     bac:	3bc70c05 	.inst	0x3bc70c05 ; undefined
     bb0:	0d050000 	.inst	0x0d050000 ; undefined
     bb4:	00003c57 	udf	#15447
     bb8:	3c4b0e05 	ldr	b5, [x16, #176]!
     bbc:	10050000 	adr	x0, abbc <__bss_size+0xa99a>
     bc0:	00003bfd 	udf	#15357
     bc4:	3bb31105 	.inst	0x3bb31105 ; undefined
     bc8:	12050000 	and	w0, w0, #0x8000000
     bcc:	00003c1a 	udf	#15386
     bd0:	3bd56305 	.inst	0x3bd56305 ; undefined
     bd4:	64050000 	.inst	0x64050000 ; undefined
     bd8:	00003bed 	udf	#15341
     bdc:	00050004 	.inst	0x00050004 ; undefined
     be0:	00080e02 	.inst	0x00080e02 ; undefined
     be4:	002e0700 	.inst	0x002e0700 ; NYI
     be8:	00030000 	.inst	0x00030000 ; undefined
     bec:	02010301 	.inst	0x02010301 ; undefined
     bf0:	0a030504 	and	w4, w8, w3, lsl #1
     bf4:	0500003d 	orr	z29.s, z29.s, #0x3
     bf8:	003cd104 	.inst	0x003cd104 ; NYI
     bfc:	b1060500 	adds	x0, x8, #0x181
     c00:	0500003c 	orr	z28.s, z28.s, #0x3
     c04:	003c9907 	.inst	0x003c9907 ; NYI
     c08:	05000400 	orr	z0.h, z0.h, #0x1
     c0c:	08ab0200 	.inst	0x08ab0200 ; undefined
     c10:	2e070000 	ext	v0.8b, v0.8b, v7.8b, #0
     c14:	03000000 	.inst	0x03000000 ; undefined
     c18:	02050100 	.inst	0x02050100 ; undefined
     c1c:	00003d75 	udf	#15733
     c20:	3d480305 	ldr	b5, [x24, #512]
     c24:	04050000 	.inst	0x04050000 ; undefined
     c28:	00003d91 	udf	#15761
     c2c:	00050004 	.inst	0x00050004 ; undefined
     c30:	00091802 	.inst	0x00091802 ; undefined
     c34:	002e0700 	.inst	0x002e0700 ; NYI
     c38:	00030000 	.inst	0x00030000 ; undefined
     c3c:	07010301 	.inst	0x07010301 ; undefined
     c40:	07050b03 	.inst	0x07050b03 ; undefined
     c44:	00000c6b 	udf	#3179
     c48:	560d0504 	.inst	0x560d0504 ; undefined
     c4c:	0400003f 	add	z31.b, p0/m, z31.b, z1.b
     c50:	04060203 	.inst	0x04060203 ; undefined
     c54:	04040303 	.inst	0x04040303 ; undefined
     c58:	07020403 	.inst	0x07020403 ; undefined
     c5c:	00000ad8 	udf	#2776
     c60:	03050304 	.inst	0x03050304 ; undefined
     c64:	08060304 	stxrb	w6, w4, [x24]
     c68:	05000404 	orr	z4.h, z4.h, #0x1
     c6c:	1d050000 	.inst	0x1d050000 ; undefined
     c70:	000040ce 	udf	#16590
     c74:	426b6406 	.inst	0x426b6406 ; undefined
     c78:	65050000 	.inst	0x65050000 ; undefined
     c7c:	0000454f 	udf	#17743
     c80:	3f4d6606 	.inst	0x3f4d6606 ; undefined
     c84:	67050000 	.inst	0x67050000 ; undefined
     c88:	00004251 	udf	#16977
     c8c:	426a6a06 	.inst	0x426a6a06 ; undefined
     c90:	6b050000 	subs	w0, w0, w5
     c94:	00003eba 	udf	#16058
     c98:	3e726e06 	.inst	0x3e726e06 ; undefined
     c9c:	6f050000 	.inst	0x6f050000 ; undefined
     ca0:	00004703 	udf	#18179
     ca4:	44367006 	.inst	0x44367006 ; undefined
     ca8:	71050000 	subs	w0, w0, #0x140
     cac:	0000419d 	udf	#16797
     cb0:	3e717406 	.inst	0x3e717406 ; undefined
     cb4:	75050000 	.inst	0x75050000 ; undefined
     cb8:	00004465 	udf	#17509
     cbc:	45147806 	.inst	0x45147806 ; undefined
     cc0:	79050000 	strh	w0, [x0, #640]
     cc4:	0000400b 	udf	#16395
     cc8:	45b67a06 	rsubhnb	z6.h, z16.s, z22.s
     ccc:	7b050000 	.inst	0x7b050000 ; undefined
     cd0:	00004730 	udf	#18224
     cd4:	45137e06 	.inst	0x45137e06 ; undefined
     cd8:	7f050000 	.inst	0x7f050000 ; undefined
     cdc:	000046c2 	udf	#18114
     ce0:	15018206 	b	40614f8 <_end+0x3fd83e8>
     ce4:	05000046 	orr	z6.s, z6.s, #0x7
     ce8:	41c20183 	.inst	0x41c20183 ; undefined
     cec:	84060000 	ld1sb	{z0.s}, p0/z, [x0, z6.s, uxtw]
     cf0:	00454501 	.inst	0x00454501 ; undefined
     cf4:	01850500 	.inst	0x01850500 ; undefined
     cf8:	00004330 	udf	#17200
     cfc:	14018806 	b	62d14 <__bss_size+0x62af2>
     d00:	05000046 	orr	z6.s, z6.s, #0x7
     d04:	3eec0189 	.inst	0x3eec0189 ; undefined
     d08:	8c060000 	.inst	0x8c060000 ; undefined
     d0c:	00458201 	.inst	0x00458201 ; undefined
     d10:	018d0500 	.inst	0x018d0500 ; undefined
     d14:	00004128 	udf	#16680
     d18:	dc018e06 	.inst	0xdc018e06 ; undefined
     d1c:	05000043 	orr	z3.s, z3.s, #0x7
     d20:	4591018f 	saddlb	z15.s, z12.h, z17.h
     d24:	90060000 	adrp	x0, c000000 <_end+0xbf76ef0>
     d28:	00458101 	.inst	0x00458101 ; undefined
     d2c:	01910500 	.inst	0x01910500 ; undefined
     d30:	0000437c 	udf	#17276
     d34:	b7019206 	tbnz	x6, #32, 3f74 <__bss_size+0x3d52>
     d38:	05000042 	orr	z2.s, z2.s, #0x7
     d3c:	3df90193 	ldr	q19, [x12, #58368]
     d40:	94060000 	bl	180d40 <_end+0xf7c30>
     d44:	003dd101 	.inst	0x003dd101 ; NYI
     d48:	01950500 	.inst	0x01950500 ; undefined
     d4c:	0000421c 	udf	#16924
     d50:	b6019606 	tbz	x6, #32, 4010 <__bss_size+0x3dee>
     d54:	05000042 	orr	z2.s, z2.s, #0x7
     d58:	3fc30197 	.inst	0x3fc30197 ; undefined
     d5c:	98060000 	ldrsw	x0, cd5c <__bss_size+0xcb3a>
     d60:	00406101 	.inst	0x00406101 ; undefined
     d64:	01990500 	.inst	0x01990500 ; undefined
     d68:	000043eb 	udf	#17387
     d6c:	06019a06 	.inst	0x06019a06 ; undefined
     d70:	05000043 	orr	z3.s, z3.s, #0x7
     d74:	451e019b 	.inst	0x451e019b ; undefined
     d78:	9c060000 	ldr	q0, cd78 <__bss_size+0xcb56>
     d7c:	00406001 	.inst	0x00406001 ; undefined
     d80:	019d0500 	.inst	0x019d0500 ; undefined
     d84:	00003e7c 	udf	#15996
     d88:	75019e06 	.inst	0x75019e06 ; undefined
     d8c:	0500003f 	orr	z31.s, z31.s, #0x3
     d90:	4637019f 	.inst	0x4637019f ; undefined
     d94:	a0060000 	.inst	0xa0060000 ; undefined
     d98:	0044c601 	.inst	0x0044c601 ; undefined
     d9c:	01a10500 	.inst	0x01a10500 ; undefined
     da0:	0000440f 	udf	#17423
     da4:	7401a206 	.inst	0x7401a206 ; undefined
     da8:	0500003f 	orr	z31.s, z31.s, #0x3
     dac:	429001a3 	.inst	0x429001a3 ; undefined
     db0:	a5060000 	ld1rqw	{z0.s}, p0/z, [x0, x6, lsl #2]
     db4:	00474c01 	.inst	0x00474c01 ; undefined
     db8:	01a60500 	.inst	0x01a60500 ; undefined
     dbc:	00003f94 	udf	#16276
     dc0:	4301a706 	.inst	0x4301a706 ; undefined
     dc4:	05000042 	orr	z2.s, z2.s, #0x7
     dc8:	414a01a8 	.inst	0x414a01a8 ; undefined
     dcc:	a9060000 	stp	x0, x0, [x0, #96]
     dd0:	00474b01 	.inst	0x00474b01 ; undefined
     dd4:	01aa0500 	.inst	0x01aa0500 ; undefined
     dd8:	000045c0 	udf	#17856
     ddc:	8601ab06 	.inst	0x8601ab06 ; undefined
     de0:	05000046 	orr	z6.s, z6.s, #0x7
     de4:	3e4f01ac 	.inst	0x3e4f01ac ; undefined
     de8:	ad060000 	stp	q0, q0, [x0, #192]
     dec:	0040ee01 	.inst	0x0040ee01 ; undefined
     df0:	01ae0500 	.inst	0x01ae0500 ; undefined
     df4:	000041da 	udf	#16858
     df8:	8501af06 	ldnt1w	{z6.s}, p3/z, [z24.s, x1]
     dfc:	05000046 	orr	z6.s, z6.s, #0x7
     e00:	469e01b0 	.inst	0x469e01b0 ; undefined
     e04:	b1060000 	adds	x0, x0, #0x180
     e08:	0042d701 	.inst	0x0042d701 ; undefined
     e0c:	01b20500 	.inst	0x01b20500 ; undefined
     e10:	00004106 	udf	#16646
     e14:	c701b306 	.inst	0xc701b306 ; undefined
     e18:	05000042 	orr	z2.s, z2.s, #0x7
     e1c:	403b01b4 	.inst	0x403b01b4 ; undefined
     e20:	b5060000 	cbnz	x0, ce20 <__bss_size+0xcbfe>
     e24:	0042d601 	.inst	0x0042d601 ; undefined
     e28:	01b60500 	.inst	0x01b60500 ; undefined
     e2c:	00004179 	udf	#16761
     e30:	b701b706 	tbnz	x6, #32, 4510 <__bss_size+0x42ee>
     e34:	05000044 	orr	z4.s, z4.s, #0x7
     e38:	3fe901b8 	.inst	0x3fe901b8 ; undefined
     e3c:	b9060000 	str	w0, [x0, #1536]
     e40:	00407101 	.inst	0x00407101 ; undefined
     e44:	01ba0500 	.inst	0x01ba0500 ; undefined
     e48:	00004440 	udf	#17472
     e4c:	b601bb06 	tbz	x6, #32, 45ac <__bss_size+0x438a>
     e50:	05000044 	orr	z4.s, z4.s, #0x7
     e54:	409f01bc 	.inst	0x409f01bc ; undefined
     e58:	bf060000 	.inst	0xbf060000 ; undefined
     e5c:	00472501 	.inst	0x00472501 ; undefined
     e60:	01c00500 	.inst	0x01c00500 ; undefined
     e64:	00003f23 	udf	#16163
     e68:	4b01c106 	.inst	0x4b01c106 ; undefined
     e6c:	05000043 	orr	z3.s, z3.s, #0x7
     e70:	41ff01c2 	.inst	0x41ff01c2 ; undefined
     e74:	c5060000 	ld1sw	{z0.d}, p0/z, [x0, z6.d, uxtw]
     e78:	00472401 	.inst	0x00472401 ; undefined
     e7c:	01c60500 	.inst	0x01c60500 ; undefined
     e80:	00004274 	udf	#17012
     e84:	f301c906 	.inst	0xf301c906 ; undefined
     e88:	05000044 	orr	z4.s, z4.s, #0x7
     e8c:	3ed201ca 	.inst	0x3ed201ca ; undefined
     e90:	cb060000 	sub	x0, x0, x6
     e94:	0040c301 	.inst	0x0040c301 ; undefined
     e98:	01cc0500 	.inst	0x01cc0500 ; undefined
     e9c:	00003f06 	udf	#16134
     ea0:	f201cd06 	ands	x6, x8, #0x8787878787878787
     ea4:	05000044 	orr	z4.s, z4.s, #0x7
     ea8:	45f801ce 	.inst	0x45f801ce ; undefined
     eac:	d2060000 	eor	x0, x0, #0x400000004000000
     eb0:	00416d01 	.inst	0x00416d01 ; undefined
     eb4:	01d30500 	.inst	0x01d30500 ; undefined
     eb8:	000044d6 	udf	#17622
     ebc:	fe01d406 	.inst	0xfe01d406 ; undefined
     ec0:	05000044 	orr	z4.s, z4.s, #0x7
     ec4:	408001d5 	.inst	0x408001d5 ; undefined
     ec8:	d7060000 	.inst	0xd7060000 ; undefined
     ecc:	003f8501 	.inst	0x003f8501 ; NYI
     ed0:	01d80500 	.inst	0x01d80500 ; undefined
     ed4:	00004663 	udf	#18019
     ed8:	b401d906 	cbz	x6, 49f8 <__bss_size+0x47d6>
     edc:	0500003f 	orr	z31.s, z31.s, #0x3
     ee0:	43ba01da 	.inst	0x43ba01da ; undefined
     ee4:	dc060000 	.inst	0xdc060000 ; undefined
     ee8:	003f3d01 	.inst	0x003f3d01 ; NYI
     eec:	01dd0500 	.inst	0x01dd0500 ; undefined
     ef0:	0000435f 	udf	#17247
     ef4:	e301df06 	.inst	0xe301df06 ; undefined
     ef8:	05000046 	orr	z6.s, z6.s, #0x7
     efc:	3de101e0 	ldr	q0, [x15, #33792]
     f00:	e1060000 	.inst	0xe1060000 ; undefined
     f04:	0041b801 	.inst	0x0041b801 ; undefined
     f08:	01e20500 	.inst	0x01e20500 ; undefined
     f0c:	0000461f 	udf	#17951
     f10:	fd01e406 	str	d6, [x0, #968]
     f14:	05000040 	orr	z0.s, z0.s, #0x7
     f18:	45e201e5 	.inst	0x45e201e5 ; undefined
     f1c:	e6060000 	.inst	0xe6060000 ; undefined
     f20:	00469501 	.inst	0x00469501 ; undefined
     f24:	01e70500 	.inst	0x01e70500 ; undefined
     f28:	000046ed 	udf	#18157
     f2c:	5c01ef06 	ldr	d6, 4d0c <__bss_size+0x4aea>
     f30:	05000046 	orr	z6.s, z6.s, #0x7
     f34:	447f01f0 	.inst	0x447f01f0 ; undefined
     f38:	f1060000 	subs	x0, x0, #0x180
     f3c:	00471c01 	.inst	0x00471c01 ; undefined
     f40:	01f20500 	.inst	0x01f20500 ; undefined
     f44:	00003e1d 	udf	#15901
     f48:	5701f306 	.inst	0x5701f306 ; undefined
     f4c:	05000043 	orr	z3.s, z3.s, #0x7
     f50:	402301f4 	.inst	0x402301f4 ; undefined
     f54:	f5060000 	.inst	0xf5060000 ; undefined
     f58:	0044ae01 	.inst	0x0044ae01 ; undefined
     f5c:	01f60500 	.inst	0x01f60500 ; undefined
     f60:	00004495 	udf	#17557
     f64:	5b01f706 	.inst	0x5b01f706 ; undefined
     f68:	05000046 	orr	z6.s, z6.s, #0x7
     f6c:	3ea201f8 	.inst	0x3ea201f8 ; undefined
     f70:	f9060000 	str	x0, [x0, #3072]
     f74:	00471b01 	.inst	0x00471b01 ; undefined
     f78:	01fa0500 	.inst	0x01fa0500 ; undefined
     f7c:	00003e35 	udf	#15925
     f80:	5601fb06 	.inst	0x5601fb06 ; undefined
     f84:	05000043 	orr	z3.s, z3.s, #0x7
     f88:	42ec01fc 	.inst	0x42ec01fc ; undefined
     f8c:	fd060000 	str	d0, [x0, #3072]
     f90:	0044ad01 	.inst	0x0044ad01 ; undefined
     f94:	01fe0500 	.inst	0x01fe0500 ; undefined
     f98:	000043a0 	udf	#17312
     f9c:	6b01ff06 	.inst	0x6b01ff06 ; undefined
     fa0:	0500003f 	orr	z31.s, z31.s, #0x3
     fa4:	43160280 	.inst	0x43160280 ; undefined
     fa8:	81060000 	.inst	0x81060000 ; undefined
     fac:	003f6a02 	.inst	0x003f6a02 ; NYI
     fb0:	02820500 	.inst	0x02820500 ; undefined
     fb4:	00004565 	udf	#17765
     fb8:	02000500 	.inst	0x02000500 ; undefined
     fbc:	00000a5b 	udf	#2651
     fc0:	00002e07 	udf	#11783
     fc4:	01000300 	.inst	0x01000300 ; undefined
     fc8:	03050103 	.inst	0x03050103 ; undefined
     fcc:	6b07060b 	subs	w11, w16, w7, lsl #1
     fd0:	0400000c 	add	z12.b, p0/m, z12.b, z0.b
     fd4:	3f560d05 	.inst	0x3f560d05 ; undefined
     fd8:	03040000 	.inst	0x03040000 ; undefined
     fdc:	0c070702 	.inst	0x0c070702 ; undefined
     fe0:	04000010 	add	z16.b, p0/m, z16.b, z0.b
     fe4:	07080303 	.inst	0x07080303 ; undefined
     fe8:	000009bc 	udf	#2492
     fec:	09040304 	.inst	0x09040304 ; undefined
     ff0:	04050304 	.inst	0x04050304 ; undefined
     ff4:	0a060304 	and	w4, w24, w6
     ff8:	000ad807 	.inst	0x000ad807 ; undefined
     ffc:	07030400 	.inst	0x07030400 ; undefined
    1000:	08030403 	stxrb	w3, w3, [x0]
    1004:	0903040b 	.inst	0x0903040b ; undefined
    1008:	00040402 	.inst	0x00040402 ; undefined
    100c:	05000005 	orr	z5.s, z5.s, #0x1
    1010:	00478a1f 	.inst	0x00478a1f ; undefined
    1014:	3a200500 	.inst	0x3a200500 ; undefined
    1018:	06000048 	.inst	0x06000048 ; undefined
    101c:	0047e122 	.inst	0x0047e122 ; undefined
    1020:	4b270500 	sub	w0, w8, w7, uxtb #1
    1024:	05000048 	orr	z8.s, z8.s, #0x7
    1028:	0047952f 	.inst	0x0047952f ; undefined
    102c:	6c300500 	stnp	d0, d1, [x8, #-256]
    1030:	05000047 	orr	z7.s, z7.s, #0x7
    1034:	00481831 	.inst	0x00481831 ; undefined
    1038:	f4340500 	.inst	0xf4340500 ; undefined
    103c:	05000047 	orr	z7.s, z7.s, #0x7
    1040:	0047f236 	.inst	0x0047f236 ; undefined
    1044:	d6690500 	.inst	0xd6690500 ; undefined
    1048:	05000047 	orr	z7.s, z7.s, #0x7
    104c:	0048516c 	.inst	0x0048516c ; undefined
    1050:	5a6f0500 	.inst	0x5a6f0500 ; undefined
    1054:	05000047 	orr	z7.s, z7.s, #0x7
    1058:	0047c872 	.inst	0x0047c872 ; undefined
    105c:	bb750500 	.inst	0xbb750500 ; undefined
    1060:	00000047 	udf	#71

Disassembly of section .debug_line:

0000000000000000 <.debug_line>:
   0:	000000af 	udf	#175
   4:	00080005 	.inst	0x00080005 ; undefined
   8:	00000039 	udf	#57
   c:	fb010104 	.inst	0xfb010104 ; undefined
  10:	01000d0e 	.inst	0x01000d0e ; undefined
  14:	00010101 	.inst	0x00010101 ; undefined
  18:	00010000 	.inst	0x00010000 ; undefined
  1c:	01010100 	.inst	0x01010100 ; undefined
  20:	000d011f 	.inst	0x000d011f ; undefined
  24:	01020000 	.inst	0x01020000 ; undefined
  28:	050f021f 	.inst	0x050f021f ; undefined
	...
  34:	00320000 	.inst	0x00320000 ; NYI
  38:	3a000000 	adcs	w0, w0, w0
  3c:	00000000 	udf	#0
  40:	00000041 	udf	#65
  44:	00100500 	.inst	0x00100500 ; undefined
  48:	01080209 	.inst	0x01080209 ; undefined
  4c:	00000008 	udf	#8
  50:	05190000 	mov	z0.b, p9/z, #0
  54:	16051305 	b	fffffffff8144c68 <_end+0xfffffffff80bbb58>
  58:	2f01052e 	mvni	v14.2s, #0x29
  5c:	2f020531 	mvni	v17.2s, #0x49
  60:	3f3d0105 	.inst	0x3f3d0105 ; undefined
  64:	055a0c05 	mov	z5.h, p10/z, #96
  68:	0b052006 	add	w6, w0, w5, lsl #8
  6c:	2e05052f 	.inst	0x2e05052f ; undefined
  70:	05220405 	ext	z5.b, z5.b, z0.b, #17
  74:	01053d03 	.inst	0x01053d03 ; undefined
  78:	053c0d03 	ext	z3.b, z3.b, z8.b, #227
  7c:	2074030a 	.inst	0x2074030a ; undefined
  80:	4b3d0305 	sub	w5, w24, w29, uxtb
  84:	01054b4b 	.inst	0x01054b4b ; undefined
  88:	030a0552 	.inst	0x030a0552 ; undefined
  8c:	09052079 	.inst	0x09052079 ; undefined
  90:	2103053e 	.inst	0x2103053e ; undefined
  94:	3f240105 	.inst	0x3f240105 ; undefined
  98:	3f2f0205 	.inst	0x3f2f0205 ; undefined
  9c:	21010521 	.inst	0x21010521 ; undefined
  a0:	2f02053f 	mvni	v31.2s, #0x49
  a4:	3f3d0105 	.inst	0x3f3d0105 ; undefined
  a8:	052f0205 	ext	z5.b, z5.b, z16.b, #120
  ac:	03023d01 	.inst	0x03023d01 ; undefined
  b0:	7b010100 	.inst	0x7b010100 ; undefined
  b4:	05000000 	orr	z0.s, z0.s, #0x1
  b8:	2a000800 	orr	w0, w0, w0, lsl #2
  bc:	04000000 	add	z0.b, p0/m, z0.b, z0.b
  c0:	0efb0101 	.inst	0x0efb0101 ; undefined
  c4:	0101000d 	.inst	0x0101000d ; undefined
  c8:	00000101 	udf	#257
  cc:	00000100 	udf	#256
  d0:	1f010101 	fmadd	s1, s8, s1, s0
  d4:	00000d01 	udf	#3329
  d8:	1f010200 	fmadd	s0, s16, s1, s0
  dc:	47020f02 	.inst	0x47020f02 ; undefined
  e0:	00000000 	udf	#0
  e4:	00000047 	udf	#71
  e8:	02090000 	.inst	0x02090000 ; undefined
  ec:	00080800 	.inst	0x00080800 ; undefined
  f0:	00000000 	udf	#0
  f4:	21012703 	.inst	0x21012703 ; undefined
  f8:	2121f323 	.inst	0x2121f323 ; undefined
  fc:	23f32121 	.inst	0x23f32121 ; undefined
 100:	23f321f3 	.inst	0x23f321f3 ; undefined
 104:	f323f3f3 	.inst	0xf323f3f3 ; undefined
 108:	020a03f3 	.inst	0x020a03f3 ; undefined
 10c:	080102f6 	stxrb	w1, w22, [x23]
 110:	08e608e6 	.inst	0x08e608e6 ; undefined
 114:	08e808e6 	.inst	0x08e808e6 ; undefined
 118:	08e608e6 	.inst	0x08e608e6 ; undefined
 11c:	08e808e6 	.inst	0x08e808e6 ; undefined
 120:	08e608e6 	.inst	0x08e608e6 ; undefined
 124:	08e808e6 	.inst	0x08e808e6 ; undefined
 128:	08e608e6 	.inst	0x08e608e6 ; undefined
 12c:	000102e6 	.inst	0x000102e6 ; undefined
 130:	007b0101 	.inst	0x007b0101 ; undefined
 134:	00050000 	.inst	0x00050000 ; undefined
 138:	002a0008 	.inst	0x002a0008 ; NYI
 13c:	01040000 	.inst	0x01040000 ; undefined
 140:	0d0efb01 	.inst	0x0d0efb01 ; undefined
 144:	01010100 	.inst	0x01010100 ; undefined
 148:	00000001 	udf	#1
 14c:	01000001 	.inst	0x01000001 ; undefined
 150:	011f0101 	.inst	0x011f0101 ; undefined
 154:	0000000d 	udf	#13
 158:	021f0102 	.inst	0x021f0102 ; undefined
 15c:	0050020f 	.inst	0x0050020f ; undefined
 160:	50000000 	adr	x0, 162 <__bss_size-0xc0>
 164:	00000000 	udf	#0
 168:	00020900 	.inst	0x00020900 ; undefined
 16c:	00000800 	udf	#2048
 170:	18000000 	ldr	w0, 170 <__bss_size-0xb2>
 174:	21232121 	.inst	0x21232121 ; undefined
 178:	26212321 	.inst	0x26212321 ; undefined
 17c:	28212321 	stnp	w1, w8, [x25, #-248]
 180:	23212121 	.inst	0x23212121 ; undefined
 184:	23212121 	.inst	0x23212121 ; undefined
 188:	21232121 	.inst	0x21232121 ; undefined
 18c:	21212321 	.inst	0x21212321 ; undefined
 190:	21232121 	.inst	0x21232121 ; undefined
 194:	22212622 	.inst	0x22212622 ; undefined
 198:	23212123 	.inst	0x23212123 ; undefined
 19c:	23212321 	.inst	0x23212321 ; undefined
 1a0:	21262121 	.inst	0x21262121 ; undefined
 1a4:	21212321 	.inst	0x21212321 ; undefined
 1a8:	21232521 	.inst	0x21232521 ; undefined
 1ac:	01000a02 	.inst	0x01000a02 ; undefined
 1b0:	0000ac01 	udf	#44033
 1b4:	08000500 	stxrb	w0, w0, [x8]
 1b8:	00002a00 	udf	#10752
 1bc:	01010400 	.inst	0x01010400 ; undefined
 1c0:	000d0efb 	.inst	0x000d0efb ; undefined
 1c4:	01010101 	.inst	0x01010101 ; undefined
 1c8:	01000000 	.inst	0x01000000 ; undefined
 1cc:	01010000 	.inst	0x01010000 ; undefined
 1d0:	0d011f01 	.inst	0x0d011f01 ; undefined
 1d4:	02000000 	.inst	0x02000000 ; undefined
 1d8:	0f021f01 	.inst	0x0f021f01 ; undefined
 1dc:	00005802 	udf	#22530
 1e0:	00580000 	.inst	0x00580000 ; undefined
 1e4:	05000000 	orr	z0.s, z0.s, #0x1
 1e8:	02090001 	.inst	0x02090001 ; undefined
 1ec:	00081784 	.inst	0x00081784 ; undefined
 1f0:	00000000 	udf	#0
 1f4:	4b070514 	sub	w20, w8, w7, lsl #1
 1f8:	05210805 	ext	z5.b, z5.b, z0.b, #10
 1fc:	0b053d06 	add	w6, w8, w5, lsl #15
 200:	3c08053a 	str	b26, [x9], #128
 204:	4d320105 	.inst	0x4d320105 ; undefined
 208:	053d0a05 	ext	z5.b, z5.b, z16.b, #234
 20c:	1305220c 	sbfx	w12, w16, #5, #4
 210:	2e0b052e 	.inst	0x2e0b052e ; undefined
 214:	052f0f05 	ext	z5.b, z5.b, z24.b, #123
 218:	12053c15 	and	w21, w0, #0xf80007ff
 21c:	2e19054b 	.inst	0x2e19054b ; undefined
 220:	052e1105 	ext	z5.b, z5.b, z8.b, #116
 224:	18052f14 	ldr	w20, a804 <__bss_size+0xa5e2>
 228:	2e17053c 	.inst	0x2e17053c ; undefined
 22c:	05290b05 	ext	z5.b, z5.b, z24.b, #74
 230:	12052e0f 	and	w15, w16, #0xf800007f
 234:	01040200 	.inst	0x01040200 ; undefined
 238:	000f052e 	.inst	0x000f052e ; undefined
 23c:	2e010402 	.inst	0x2e010402 ; undefined
 240:	0a030c05 	and	w5, w0, w3, lsl #3
 244:	2101052e 	.inst	0x2101052e ; undefined
 248:	2f090531 	ushr	v17.8b, v9.8b, #7
 24c:	21210a05 	.inst	0x21210a05 ; undefined
 250:	053b0c05 	ext	z5.b, z5.b, z0.b, #219
 254:	0d054a0b 	.inst	0x0d054a0b ; undefined
 258:	2f010532 	mvni	v18.2s, #0x29
 25c:	01000202 	.inst	0x01000202 ; undefined
 260:	0002c801 	.inst	0x0002c801 ; undefined
 264:	08000500 	stxrb	w0, w0, [x8]
 268:	00003900 	udf	#14592
 26c:	01010400 	.inst	0x01010400 ; undefined
 270:	000d0efb 	.inst	0x000d0efb ; undefined
 274:	01010101 	.inst	0x01010101 ; undefined
 278:	01000000 	.inst	0x01000000 ; undefined
 27c:	01010000 	.inst	0x01010000 ; undefined
 280:	0d011f01 	.inst	0x0d011f01 ; undefined
 284:	02000000 	.inst	0x02000000 ; undefined
 288:	0f021f01 	.inst	0x0f021f01 ; undefined
 28c:	00005f05 	udf	#24325
 290:	005f0000 	.inst	0x005f0000 ; undefined
 294:	66000000 	.inst	0x66000000 ; undefined
 298:	00000000 	udf	#0
 29c:	00000070 	udf	#112
 2a0:	00004100 	udf	#16640
 2a4:	13050000 	sbfiz	w0, w0, #27, #1
 2a8:	bc020900 	.inst	0xbc020900 ; undefined
 2ac:	00000818 	udf	#2072
 2b0:	17000000 	b	fffffffffc0002b0 <_end+0xfffffffffbf771a0>
 2b4:	05320205 	ext	z5.b, z5.b, z16.b, #144
 2b8:	09052105 	.inst	0x09052105 ; undefined
 2bc:	3c070524 	str	b4, [x9], #112
 2c0:	05053d21 	.inst	0x05053d21 ; undefined
 2c4:	2e0e0559 	.inst	0x2e0e0559 ; undefined
 2c8:	052f0505 	ext	z5.b, z5.b, z8.b, #121
 2cc:	07052e0c 	.inst	0x07052e0c ; undefined
 2d0:	2f0b0521 	ushr	v1.8b, v9.8b, #5
 2d4:	05210905 	ext	z5.b, z5.b, z8.b, #10
 2d8:	0c051f0d 	.inst	0x0c051f0d ; undefined
 2dc:	3105053c 	adds	w28, w9, #0x141
 2e0:	052e1005 	ext	z5.b, z5.b, z0.b, #116
 2e4:	0b052f07 	add	w7, w24, w5, lsl #11
 2e8:	2109052f 	.inst	0x2109052f ; undefined
 2ec:	051f0d05 	mov	z5.b, p15/z, #104
 2f0:	05053c0c 	.inst	0x05053c0c ; undefined
 2f4:	2e100531 	.inst	0x2e100531 ; undefined
 2f8:	05230505 	ext	z5.b, z5.b, z8.b, #25
 2fc:	02052e0f 	.inst	0x02052e0f ; undefined
 300:	2e0e0524 	.inst	0x2e0e0524 ; undefined
 304:	052f0505 	ext	z5.b, z5.b, z8.b, #121
 308:	02052e11 	.inst	0x02052e11 ; undefined
 30c:	2e0e0531 	.inst	0x2e0e0531 ; undefined
 310:	05310505 	ext	z5.b, z5.b, z8.b, #137
 314:	01052e0f 	.inst	0x01052e0f ; undefined
 318:	3e190530 	.inst	0x3e190530 ; undefined
 31c:	052f0b05 	ext	z5.b, z5.b, z24.b, #122
 320:	0402000c 	.inst	0x0402000c ; undefined
 324:	16052001 	b	fffffffff8148328 <_end+0xfffffffff80bf218>
 328:	01040200 	.inst	0x01040200 ; undefined
 32c:	000c053c 	.inst	0x000c053c ; undefined
 330:	20010402 	.inst	0x20010402 ; undefined
 334:	052f0505 	ext	z5.b, z5.b, z8.b, #121
 338:	01052e0f 	.inst	0x01052e0f ; undefined
 33c:	3e22052f 	.inst	0x3e22052f ; undefined
 340:	053d0b05 	ext	z5.b, z5.b, z24.b, #234
 344:	0c05210d 	.inst	0x0c05210d ; undefined
 348:	001b052e 	.inst	0x001b052e ; undefined
 34c:	2e010402 	.inst	0x2e010402 ; undefined
 350:	052f1805 	ext	z5.b, z5.b, z0.b, #126
 354:	0c053c09 	.inst	0x0c053c09 ; undefined
 358:	4e01052c 	dup	v12.16b, v9.b[0]
 35c:	054c1305 	.inst	0x054c1305 ; undefined
 360:	04020009 	.inst	0x04020009 ; undefined
 364:	10052401 	adr	x1, a7e4 <__bss_size+0xa5c2>
 368:	01040200 	.inst	0x01040200 ; undefined
 36c:	001a0521 	.inst	0x001a0521 ; undefined
 370:	3c010402 	str	b2, [x0], #16
 374:	02000e05 	.inst	0x02000e05 ; undefined
 378:	05200104 	ext	z4.b, z4.b, z8.b, #0
 37c:	07053010 	.inst	0x07053010 ; undefined
 380:	221d053c 	.inst	0x221d053c ; undefined
 384:	01040200 	.inst	0x01040200 ; undefined
 388:	02003c06 	.inst	0x02003c06 ; undefined
 38c:	052e0204 	ext	z4.b, z4.b, z16.b, #112
 390:	04020001 	.inst	0x04020001 ; undefined
 394:	05210604 	ext	z4.b, z4.b, z16.b, #9
 398:	05053113 	.inst	0x05053113 ; undefined
 39c:	2e110517 	.inst	0x2e110517 ; undefined
 3a0:	05310505 	ext	z5.b, z5.b, z8.b, #137
 3a4:	05052e12 	.inst	0x05052e12 ; undefined
 3a8:	2e110523 	.inst	0x2e110523 ; undefined
 3ac:	05230505 	ext	z5.b, z5.b, z8.b, #25
 3b0:	05052e11 	.inst	0x05052e11 ; undefined
 3b4:	2e110531 	.inst	0x2e110531 ; undefined
 3b8:	05230505 	ext	z5.b, z5.b, z8.b, #25
 3bc:	05052e12 	.inst	0x05052e12 ; undefined
 3c0:	2e110531 	.inst	0x2e110531 ; undefined
 3c4:	15031205 	b	40c4bd8 <_end+0x403bac8>
 3c8:	7601052e 	.inst	0x7601052e ; undefined
 3cc:	05301905 	ext	z5.b, z5.b, z8.b, #134
 3d0:	04020009 	.inst	0x04020009 ; undefined
 3d4:	10053101 	adr	x1, a9f4 <__bss_size+0xa7d2>
 3d8:	01040200 	.inst	0x01040200 ; undefined
 3dc:	001c0521 	.inst	0x001c0521 ; undefined
 3e0:	3c010402 	str	b2, [x0], #16
 3e4:	02000e05 	.inst	0x02000e05 ; undefined
 3e8:	05200104 	ext	z4.b, z4.b, z8.b, #0
 3ec:	10052f05 	adr	x5, a9cc <__bss_size+0xa7aa>
 3f0:	2f01052e 	mvni	v14.2s, #0x29
 3f4:	053e2205 	mov	z5.h, z16.h[7]
 3f8:	0d053d0b 	.inst	0x0d053d0b ; undefined
 3fc:	2e0c0521 	.inst	0x2e0c0521 ; undefined
 400:	02001b05 	.inst	0x02001b05 ; undefined
 404:	052e0104 	ext	z4.b, z4.b, z8.b, #112
 408:	09052f18 	.inst	0x09052f18 ; undefined
 40c:	2c0c053c 	stnp	s28, s1, [x9, #96]
 410:	054e0105 	.inst	0x054e0105 ; undefined
 414:	09054c13 	.inst	0x09054c13 ; undefined
 418:	01040200 	.inst	0x01040200 ; undefined
 41c:	00100524 	.inst	0x00100524 ; undefined
 420:	21010402 	.inst	0x21010402 ; undefined
 424:	02001c05 	.inst	0x02001c05 ; undefined
 428:	053c0104 	ext	z4.b, z4.b, z8.b, #224
 42c:	0402000e 	.inst	0x0402000e ; undefined
 430:	10052001 	adr	x1, a830 <__bss_size+0xa60e>
 434:	3c070530 	str	b16, [x9], #112
 438:	00221d05 	.inst	0x00221d05 ; NYI
 43c:	06010402 	.inst	0x06010402 ; undefined
 440:	0402003c 	.inst	0x0402003c ; undefined
 444:	01052e02 	.inst	0x01052e02 ; undefined
 448:	04040200 	.inst	0x04040200 ; undefined
 44c:	0f052106 	.inst	0x0f052106 ; undefined
 450:	2e180530 	.inst	0x2e180530 ; undefined
 454:	052e2605 	.inst	0x052e2605 ; undefined
 458:	19052f17 	.inst	0x19052f17 ; undefined
 45c:	2e29053c 	uhadd	v28.8b, v9.8b, v9.8b
 460:	053d1e05 	ext	z5.b, z5.b, z16.b, #239
 464:	30053c20 	adr	x0, abe9 <__bss_size+0xa9c7>
 468:	4111052e 	.inst	0x4111052e ; undefined
 46c:	052e1305 	ext	z5.b, z5.b, z24.b, #116
 470:	19053c27 	.inst	0x19053c27 ; undefined
 474:	3d09053e 	str	b30, [x9, #577]
 478:	05201005 	ext	z5.b, z5.b, z0.b, #4
 47c:	0805210a 	stxrb	w5, w10, [x8]
 480:	3d0d0530 	str	b16, [x9, #833]
 484:	052f0f05 	ext	z5.b, z5.b, z24.b, #123
 488:	19053f0a 	.inst	0x19053f0a ; undefined
 48c:	c81d0521 	stxr	w29, x1, [x9]
 490:	05200e05 	ext	z5.b, z5.b, z16.b, #3
 494:	12053c1d 	and	w29, w0, #0xf80007ff
 498:	3d0f052e 	str	b14, [x9, #961]
 49c:	058e1005 	.inst	0x058e1005 ; undefined
 4a0:	0e054107 	tbl	v7.8b, {v8.16b-v10.16b}, v5.8b
 4a4:	3c12053d 	str	b29, [x9], #-224
 4a8:	054d0a05 	.inst	0x054d0a05 ; undefined
 4ac:	09052116 	.inst	0x09052116 ; undefined
 4b0:	490c053c 	.inst	0x490c053c ; undefined
 4b4:	4d3f0105 	.inst	0x4d3f0105 ; undefined
 4b8:	053d0a05 	ext	z5.b, z5.b, z16.b, #234
 4bc:	0a058309 	.inst	0x0a058309 ; undefined
 4c0:	26053021 	.inst	0x26053021 ; undefined
 4c4:	2e0e0521 	.inst	0x2e0e0521 ; undefined
 4c8:	053c1e05 	ext	z5.b, z5.b, z16.b, #231
 4cc:	0f053c12 	.inst	0x0f053c12 ; undefined
 4d0:	03100543 	.inst	0x03100543 ; undefined
 4d4:	0a053c78 	and	w24, w3, w5, lsl #15
 4d8:	053c0b03 	ext	z3.b, z3.b, z24.b, #226
 4dc:	09052116 	.inst	0x09052116 ; undefined
 4e0:	490c053c 	.inst	0x490c053c ; undefined
 4e4:	053f0105 	ext	z5.b, z5.b, z8.b, #248
 4e8:	05054c26 	.inst	0x05054c26 ; undefined
 4ec:	0b052208 	add	w8, w16, w5, lsl #8
 4f0:	210d05a0 	.inst	0x210d05a0 ; undefined
 4f4:	052e0c05 	ext	z5.b, z5.b, z0.b, #115
 4f8:	15052f10 	b	414c138 <_end+0x40c3028>
 4fc:	2e0d053d 	.inst	0x2e0d053d ; undefined
 500:	05841505 	.inst	0x05841505 ; undefined
 504:	05590811 	mov	z17.h, p9/z, #64
 508:	11052215 	add	w21, w16, #0x148
 50c:	15055908 	b	415692c <_end+0x40cd81c>
 510:	08110522 	stxrb	w17, w2, [x9]
 514:	22100559 	.inst	0x22100559 ; undefined
 518:	054c0d05 	.inst	0x054c0d05 ; undefined
 51c:	0c053d10 	.inst	0x0c053d10 ; undefined
 520:	053c6f03 	uzp2	z3.b, z24.b, z28.b
 524:	4a160301 	eor	w1, w24, w22
 528:	01000402 	.inst	0x01000402 ; undefined
 52c:	00011c01 	.inst	0x00011c01 ; undefined
 530:	08000500 	stxrb	w0, w0, [x8]
 534:	00003e00 	udf	#15872
 538:	01010400 	.inst	0x01010400 ; undefined
 53c:	000d0efb 	.inst	0x000d0efb ; undefined
 540:	01010101 	.inst	0x01010101 ; undefined
 544:	01000000 	.inst	0x01000000 ; undefined
 548:	01010000 	.inst	0x01010000 ; undefined
 54c:	0d011f01 	.inst	0x0d011f01 ; undefined
 550:	02000000 	.inst	0x02000000 ; undefined
 554:	0f021f01 	.inst	0x0f021f01 ; undefined
 558:	00007b06 	udf	#31494
 55c:	007b0000 	.inst	0x007b0000 ; undefined
 560:	66000000 	.inst	0x66000000 ; undefined
 564:	00000000 	udf	#0
 568:	0000003a 	udf	#58
 56c:	00004100 	udf	#16640
 570:	00850000 	.inst	0x00850000 ; undefined
 574:	05000000 	orr	z0.s, z0.s, #0x1
 578:	02090001 	.inst	0x02090001 ; undefined
 57c:	000820a8 	.inst	0x000820a8 ; undefined
 580:	00000000 	udf	#0
 584:	2f4d051a 	.inst	0x2f4d051a ; undefined
 588:	052e1705 	ext	z5.b, z5.b, z24.b, #117
 58c:	0f052e3f 	.inst	0x0f052e3f ; undefined
 590:	00030520 	.inst	0x00030520 ; undefined
 594:	31010402 	adds	w2, w0, #0x41
 598:	02000905 	.inst	0x02000905 ; undefined
 59c:	05210104 	ext	z4.b, z4.b, z8.b, #8
 5a0:	11055902 	add	w2, w8, #0x156
 5a4:	000d052e 	.inst	0x000d052e ; undefined
 5a8:	34010402 	cbz	w2, 2628 <__bss_size+0x2406>
 5ac:	02001205 	.inst	0x02001205 ; undefined
 5b0:	05210104 	ext	z4.b, z4.b, z8.b, #8
 5b4:	04020022 	.inst	0x04020022 ; undefined
 5b8:	12053c01 	and	w1, w0, #0xf80007ff
 5bc:	01040200 	.inst	0x01040200 ; undefined
 5c0:	30140520 	adr	x0, 28665 <__bss_size+0x28443>
 5c4:	053c0c05 	ext	z5.b, z5.b, z0.b, #227
 5c8:	1f053d1b 	fmadd	s27, s8, s5, s15
 5cc:	4c01053c 	.inst	0x4c01053c ; undefined
 5d0:	05321a05 	ext	z5.b, z5.b, z16.b, #150
 5d4:	3e4b320e 	.inst	0x3e4b320e ; undefined
 5d8:	3e3d4b59 	.inst	0x3e3d4b59 ; undefined
 5dc:	053e0305 	ext	z5.b, z5.b, z24.b, #240
 5e0:	0305312e 	.inst	0x0305312e ; undefined
 5e4:	4b01053c 	sub	w28, w9, w1, lsl #1
 5e8:	053e1a05 	ext	z5.b, z5.b, z16.b, #246
 5ec:	3e4b320e 	.inst	0x3e4b320e ; undefined
 5f0:	3d3d4b59 	str	b25, [x26, #3922]
 5f4:	3e03053e 	.inst	0x3e03053e ; undefined
 5f8:	052f2905 	tbl	z5.b, {z8.b, z9.b}, z15.b
 5fc:	24053c03 	cmpeq	p3.b, p7/z, z0.b, z5.d
 600:	3c03054b 	str	b11, [x10], #48
 604:	054b0105 	.inst	0x054b0105 ; undefined
 608:	0e053e1b 	umov	w27, v16.b[2]
 60c:	593e4b32 	.inst	0x593e4b32 ; undefined
 610:	3f4b3d4b 	.inst	0x3f4b3d4b ; undefined
 614:	053e0305 	ext	z5.b, z5.b, z24.b, #240
 618:	03052f24 	.inst	0x03052f24 ; undefined
 61c:	4b27053c 	sub	w28, w9, w7, uxtb #1
 620:	053c0305 	ext	z5.b, z5.b, z24.b, #224
 624:	19054b01 	.inst	0x19054b01 ; undefined
 628:	320e053e 	orr	w30, w9, #0xc0000
 62c:	4b593e4b 	sub	w11, w18, w25, lsr #15
 630:	053f4b3d 	.inst	0x053f4b3d ; undefined
 634:	24053e03 	cmpeq	p3.b, p7/z, z16.b, z5.d
 638:	3c03052f 	str	b15, [x9], #48
 63c:	054b2605 	.inst	0x054b2605 ; undefined
 640:	11053c03 	add	w3, w0, #0x14f
 644:	3d01054c 	str	b12, [x10, #65]
 648:	01000202 	.inst	0x01000202 ; undefined
 64c:	0001bd01 	.inst	0x0001bd01 ; undefined
 650:	08000500 	stxrb	w0, w0, [x8]
 654:	00004300 	udf	#17152
 658:	01010400 	.inst	0x01010400 ; undefined
 65c:	000d0efb 	.inst	0x000d0efb ; undefined
 660:	01010101 	.inst	0x01010101 ; undefined
 664:	01000000 	.inst	0x01000000 ; undefined
 668:	01010000 	.inst	0x01010000 ; undefined
 66c:	0d011f01 	.inst	0x0d011f01 ; undefined
 670:	02000000 	.inst	0x02000000 ; undefined
 674:	0f021f01 	.inst	0x0f021f01 ; undefined
 678:	00008c07 	udf	#35847
 67c:	008c0000 	.inst	0x008c0000 ; undefined
 680:	66000000 	.inst	0x66000000 ; undefined
 684:	00000000 	udf	#0
 688:	0000003a 	udf	#58
 68c:	00004100 	udf	#16640
 690:	00910000 	.inst	0x00910000 ; undefined
 694:	85000000 	.inst	0x85000000 ; undefined
 698:	00000000 	udf	#0
 69c:	09000105 	.inst	0x09000105 ; undefined
 6a0:	08244402 	.inst	0x08244402 ; undefined
 6a4:	00000000 	udf	#0
 6a8:	01170300 	.inst	0x01170300 ; undefined
 6ac:	052f0905 	ext	z5.b, z5.b, z8.b, #122
 6b0:	14053310 	b	14d2f0 <_end+0xc41e0>
 6b4:	4e10053c 	.inst	0x4e10053c ; undefined
 6b8:	053c1405 	ext	z5.b, z5.b, z0.b, #229
 6bc:	14056710 	b	15a2fc <_end+0xd11ec>
 6c0:	5910053c 	.inst	0x5910053c ; undefined
 6c4:	053c1405 	ext	z5.b, z5.b, z0.b, #229
 6c8:	11054b0d 	add	w13, w24, #0x152
 6cc:	6c10053c 	stnp	d28, d1, [x9, #256]
 6d0:	053c1405 	ext	z5.b, z5.b, z0.b, #229
 6d4:	14056710 	b	15a314 <_end+0xd1204>
 6d8:	590d053c 	.inst	0x590d053c ; undefined
 6dc:	053c1105 	ext	z5.b, z5.b, z8.b, #228
 6e0:	14054b10 	b	153320 <_end+0xca210>
 6e4:	5910053c 	.inst	0x5910053c ; undefined
 6e8:	053c1405 	ext	z5.b, z5.b, z0.b, #229
 6ec:	14055b10 	b	15732c <_end+0xce21c>
 6f0:	6710053c 	.inst	0x6710053c ; undefined
 6f4:	053c1405 	ext	z5.b, z5.b, z0.b, #229
 6f8:	1105590d 	add	w13, w8, #0x156
 6fc:	4b10053c 	sub	w28, w9, w16, lsl #1
 700:	053c1405 	ext	z5.b, z5.b, z0.b, #229
 704:	14055910 	b	156b44 <_end+0xcda34>
 708:	5b10053c 	.inst	0x5b10053c ; undefined
 70c:	053c1405 	ext	z5.b, z5.b, z0.b, #229
 710:	14056710 	b	15a350 <_end+0xd1240>
 714:	590d053c 	.inst	0x590d053c ; undefined
 718:	053c1105 	ext	z5.b, z5.b, z8.b, #228
 71c:	14054b10 	b	15335c <_end+0xca24c>
 720:	4b10053c 	sub	w28, w9, w16, lsl #1
 724:	053c1405 	ext	z5.b, z5.b, z0.b, #229
 728:	14054d10 	b	153b68 <_end+0xcaa58>
 72c:	6710053c 	.inst	0x6710053c ; undefined
 730:	053c1405 	ext	z5.b, z5.b, z0.b, #229
 734:	1105590d 	add	w13, w8, #0x156
 738:	4b10053c 	sub	w28, w9, w16, lsl #1
 73c:	053c1405 	ext	z5.b, z5.b, z0.b, #229
 740:	14055b10 	b	157380 <_end+0xce270>
 744:	6710053c 	.inst	0x6710053c ; undefined
 748:	053c1405 	ext	z5.b, z5.b, z0.b, #229
 74c:	1105590d 	add	w13, w8, #0x156
 750:	4b10053c 	sub	w28, w9, w16, lsl #1
 754:	053c1405 	ext	z5.b, z5.b, z0.b, #229
 758:	14055b10 	b	157398 <_end+0xce288>
 75c:	6710053c 	.inst	0x6710053c ; undefined
 760:	053c1405 	ext	z5.b, z5.b, z0.b, #229
 764:	1105590d 	add	w13, w8, #0x156
 768:	4b10053c 	sub	w28, w9, w16, lsl #1
 76c:	053c1405 	ext	z5.b, z5.b, z0.b, #229
 770:	14054c10 	b	1537b0 <_end+0xca6a0>
 774:	4b16053c 	sub	w28, w9, w22, lsl #1
 778:	053c1005 	ext	z5.b, z5.b, z0.b, #228
 77c:	052f3f05 	.inst	0x052f3f05 ; undefined
 780:	05054b2a 	.inst	0x05054b2a ; undefined
 784:	4c2e053c 	.inst	0x4c2e053c ; undefined
 788:	053c1805 	ext	z5.b, z5.b, z0.b, #230
 78c:	0d05200f 	.inst	0x0d05200f ; undefined
 790:	3d050520 	str	b0, [x9, #321]
 794:	05761605 	ext	z5.b, {z16.b, z17.b}, #181
 798:	05054a0d 	.inst	0x05054a0d ; undefined
 79c:	7617053d 	.inst	0x7617053d ; undefined
 7a0:	054a0e05 	.inst	0x054a0e05 ; undefined
 7a4:	01053d05 	.inst	0x01053d05 ; undefined
 7a8:	09054175 	.inst	0x09054175 ; undefined
 7ac:	201d0522 	.inst	0x201d0522 ; undefined
 7b0:	052f0905 	ext	z5.b, z5.b, z8.b, #122
 7b4:	0505300a 	.inst	0x0505300a ; undefined
 7b8:	22090520 	.inst	0x22090520 ; undefined
 7bc:	05c80505 	.inst	0x05c80505 ; undefined
 7c0:	0c052f0e 	.inst	0x0c052f0e ; undefined
 7c4:	220e054a 	.inst	0x220e054a ; undefined
 7c8:	05200905 	ext	z5.b, z5.b, z8.b, #2
 7cc:	0605220a 	.inst	0x0605220a ; undefined
 7d0:	2f0f05c8 	ushr	v8.8b, v14.8b, #1
 7d4:	054a0d05 	.inst	0x054a0d05 ; undefined
 7d8:	0d052306 	.inst	0x0d052306 ; undefined
 7dc:	7410053d 	.inst	0x7410053d ; undefined
 7e0:	053e0d05 	ext	z5.b, z5.b, z8.b, #243
 7e4:	21057410 	.inst	0x21057410 ; undefined
 7e8:	02040200 	.inst	0x02040200 ; undefined
 7ec:	052e7703 	trn2	z3.b, z24.b, z14.b
 7f0:	04020012 	.inst	0x04020012 ; undefined
 7f4:	1e053c01 	.inst	0x1e053c01 ; undefined
 7f8:	02040200 	.inst	0x02040200 ; undefined
 7fc:	000e0537 	.inst	0x000e0537 ; undefined
 800:	3c010402 	str	b2, [x0], #16
 804:	11030105 	add	w5, w8, #0xc0
 808:	0004023c 	.inst	0x0004023c ; undefined
 80c:	00990101 	.inst	0x00990101 ; undefined
 810:	00050000 	.inst	0x00050000 ; undefined
 814:	002f0008 	.inst	0x002f0008 ; NYI
 818:	01040000 	.inst	0x01040000 ; undefined
 81c:	0d0efb01 	.inst	0x0d0efb01 ; undefined
 820:	01010100 	.inst	0x01010100 ; undefined
 824:	00000001 	udf	#1
 828:	01000001 	.inst	0x01000001 ; undefined
 82c:	011f0101 	.inst	0x011f0101 ; undefined
 830:	0000000d 	udf	#13
 834:	021f0102 	.inst	0x021f0102 ; undefined
 838:	0096030f 	.inst	0x0096030f ; undefined
 83c:	96000000 	bl	fffffffff800083c <_end+0xfffffffff7f7772c>
 840:	00000000 	udf	#0
 844:	0000003a 	udf	#58
 848:	001a0500 	.inst	0x001a0500 ; undefined
 84c:	2ac80209 	orr	w9, w16, w8, ror #0
 850:	00000008 	udf	#8
 854:	0a030000 	and	w0, w0, w3
 858:	14050501 	b	141c5c <_end+0xb8b4c>
 85c:	0a030105 	and	w5, w8, w3
 860:	301a0582 	adr	x2, 34911 <__bss_size+0x346ef>
 864:	3e300505 	.inst	0x3e300505 ; undefined
 868:	05212121 	mov	z1.b, b9
 86c:	01052102 	.inst	0x01052102 ; undefined
 870:	30180521 	adr	x1, 30915 <__bss_size+0x306f3>
 874:	2f211005 	.inst	0x2f211005 ; undefined
 878:	053d0305 	ext	z5.b, z5.b, z24.b, #232
 87c:	18052e1f 	ldr	wzr, ae3c <__bss_size+0xac1a>
 880:	2203053c 	.inst	0x2203053c ; undefined
 884:	05210105 	ext	z5.b, z5.b, z8.b, #8
 888:	07053e1b 	.inst	0x07053e1b ; undefined
 88c:	3e03052f 	.inst	0x3e03052f ; undefined
 890:	052e1805 	ext	z5.b, z5.b, z0.b, #118
 894:	053e2f03 	tbx	z3.b, z24.b, z30.b
 898:	07052108 	.inst	0x07052108 ; undefined
 89c:	1f0a0521 	fmadd	s1, s9, s10, s1
 8a0:	053c0905 	ext	z5.b, z5.b, z8.b, #226
 8a4:	06023101 	.inst	0x06023101 ; undefined
 8a8:	69010100 	stgp	x0, x0, [x8, #32]
 8ac:	05000000 	orr	z0.s, z0.s, #0x1
 8b0:	2a000800 	orr	w0, w0, w0, lsl #2
 8b4:	04000000 	add	z0.b, p0/m, z0.b, z0.b
 8b8:	0efb0101 	.inst	0x0efb0101 ; undefined
 8bc:	0101000d 	.inst	0x0101000d ; undefined
 8c0:	00000101 	udf	#257
 8c4:	00000100 	udf	#256
 8c8:	1f010101 	fmadd	s1, s8, s1, s0
 8cc:	00000d01 	udf	#3329
 8d0:	1f010200 	fmadd	s0, s16, s1, s0
 8d4:	9e020f02 	scvtf	s2, x24, #61
 8d8:	00000000 	udf	#0
 8dc:	0000009e 	udf	#158
 8e0:	00150500 	.inst	0x00150500 ; undefined
 8e4:	2bc80209 	.inst	0x2bc80209 ; undefined
 8e8:	00000008 	udf	#8
 8ec:	05170000 	mov	z0.b, p7/z, #0
 8f0:	0c053203 	.inst	0x0c053203 ; undefined
 8f4:	3d1b052e 	str	b14, [x9, #1729]
 8f8:	053c0305 	ext	z5.b, z5.b, z24.b, #224
 8fc:	01052e0c 	.inst	0x01052e0c ; undefined
 900:	3e150521 	.inst	0x3e150521 ; undefined
 904:	05160305 	mov	z5.b, p6/z, #24
 908:	03052e0c 	.inst	0x03052e0c ; undefined
 90c:	2e0c052f 	.inst	0x2e0c052f ; undefined
 910:	022f0105 	.inst	0x022f0105 ; undefined
 914:	01010002 	.inst	0x01010002 ; undefined
 918:	0000013f 	udf	#319
 91c:	00080005 	.inst	0x00080005 ; undefined
 920:	00000051 	udf	#81
 924:	fb010104 	.inst	0xfb010104 ; undefined
 928:	01000d0e 	.inst	0x01000d0e ; undefined
 92c:	00010101 	.inst	0x00010101 ; undefined
 930:	00010000 	.inst	0x00010000 ; undefined
 934:	01010100 	.inst	0x01010100 ; undefined
 938:	000d021f 	.inst	0x000d021f ; undefined
 93c:	00ae0000 	.inst	0x00ae0000 ; undefined
 940:	01020000 	.inst	0x01020000 ; undefined
 944:	090f021f 	.inst	0x090f021f ; undefined
 948:	000000a6 	udf	#166
 94c:	0000a600 	udf	#42496
 950:	00660000 	.inst	0x00660000 ; undefined
 954:	de000000 	.inst	0xde000000 ; undefined
 958:	00000000 	udf	#0
 95c:	0000003a 	udf	#58
 960:	0000e600 	udf	#58880
 964:	00850100 	.inst	0x00850100 ; undefined
 968:	f3000000 	.inst	0xf3000000 ; undefined
 96c:	01000000 	.inst	0x01000000 ; undefined
 970:	00000032 	udf	#50
 974:	001a0500 	.inst	0x001a0500 ; undefined
 978:	2c300209 	stnp	s9, s0, [x16, #-128]
 97c:	00000008 	udf	#8
 980:	05190000 	mov	z0.b, p9/z, #0
 984:	09053e0c 	.inst	0x09053e0c ; undefined
 988:	210b052f 	.inst	0x210b052f ; undefined
 98c:	05210c05 	ext	z5.b, z5.b, z0.b, #11
 990:	0402000d 	.inst	0x0402000d ; undefined
 994:	13053d01 	sbfx	w1, w8, #5, #11
 998:	3d150521 	str	b1, [x9, #1345]
 99c:	053d1005 	ext	z5.b, z5.b, z0.b, #236
 9a0:	19053d11 	.inst	0x19053d11 ; undefined
 9a4:	4d10053d 	.inst	0x4d10053d ; undefined
 9a8:	053c1a05 	ext	z5.b, z5.b, z16.b, #230
 9ac:	10052f0d 	adr	x13, af8c <__bss_size+0xad6a>
 9b0:	03130530 	.inst	0x03130530 ; undefined
 9b4:	1d053c73 	.inst	0x1d053c73 ; undefined
 9b8:	0305052e 	.inst	0x0305052e ; undefined
 9bc:	08053c0f 	stxrb	w5, w15, [x0]
 9c0:	3c12053d 	str	b29, [x9], #-224
 9c4:	3f210105 	.inst	0x3f210105 ; undefined
 9c8:	052f0705 	ext	z5.b, z5.b, z24.b, #121
 9cc:	053dad02 	.inst	0x053dad02 ; undefined
 9d0:	0405300a 	.inst	0x0405300a ; undefined
 9d4:	2f030558 	mvni	v24.2s, #0x6a
 9d8:	20030105 	.inst	0x20030105 ; undefined
 9dc:	0310053c 	.inst	0x0310053c ; undefined
 9e0:	0a052068 	and	w8, w3, w5, lsl #8
 9e4:	2f030558 	mvni	v24.2s, #0x6a
 9e8:	17030105 	b	fffffffffc0c0dfc <_end+0xfffffffffc037cec>
 9ec:	0310053c 	.inst	0x0310053c ; undefined
 9f0:	0a05206a 	and	w10, w3, w5, lsl #8
 9f4:	2f030558 	mvni	v24.2s, #0x6a
 9f8:	03010521 	.inst	0x03010521 ; undefined
 9fc:	10052014 	adr	x20, adfc <__bss_size+0xabda>
 a00:	05206d03 	uzp2	z3.b, z8.b, z0.b
 a04:	0905580a 	.inst	0x0905580a ; undefined
 a08:	10052f30 	adr	x16, afec <__bss_size+0xadca>
 a0c:	4b09052f 	sub	w15, w9, w9, lsl #1
 a10:	0e030105 	tbl	v5.8b, {v8.16b}, v3.8b
 a14:	0310054a 	.inst	0x0310054a ; undefined
 a18:	0a052073 	and	w19, w3, w5, lsl #8
 a1c:	30030558 	adr	x24, 6ac5 <__bss_size+0x68a3>
 a20:	0b030105 	add	w5, w8, w3
 a24:	03100520 	.inst	0x03100520 ; undefined
 a28:	0a052076 	and	w22, w3, w5, lsl #8
 a2c:	2f030558 	mvni	v24.2s, #0x6a
 a30:	053d0905 	ext	z5.b, z5.b, z8.b, #234
 a34:	10052801 	adr	x1, af34 <__bss_size+0xad12>
 a38:	05207903 	.inst	0x05207903 ; undefined
 a3c:	0305580a 	.inst	0x0305580a ; undefined
 a40:	3401052f 	cbz	w15, 2ae4 <__bss_size+0x28c2>
 a44:	051b1005 	mov	z5.b, p11/z, #-128
 a48:	0305580a 	.inst	0x0305580a ; undefined
 a4c:	4001052f 	.inst	0x4001052f ; undefined
 a50:	051e0305 	mov	z5.b, p14/z, #24
 a54:	03023e01 	.inst	0x03023e01 ; undefined
 a58:	8b010100 	add	x0, x8, x1
 a5c:	05000000 	orr	z0.s, z0.s, #0x1
 a60:	60000800 	.inst	0x60000800 ; undefined
 a64:	04000000 	add	z0.b, p0/m, z0.b, z0.b
 a68:	0efb0101 	.inst	0x0efb0101 ; undefined
 a6c:	0101000d 	.inst	0x0101000d ; undefined
 a70:	00000101 	udf	#257
 a74:	00000100 	udf	#256
 a78:	1f010101 	fmadd	s1, s8, s1, s0
 a7c:	00000d02 	udf	#3330
 a80:	0000ae00 	udf	#44544
 a84:	1f010200 	fmadd	s0, s16, s1, s0
 a88:	fc0c0f02 	str	d2, [x24, #192]!
 a8c:	00000000 	udf	#0
 a90:	000000fc 	udf	#252
 a94:	00010300 	.inst	0x00010300 ; undefined
 a98:	00910000 	.inst	0x00910000 ; undefined
 a9c:	3a000000 	adcs	w0, w0, w0
 aa0:	00000000 	udf	#0
 aa4:	000000f3 	udf	#243
 aa8:	0000e601 	udf	#58881
 aac:	010b0100 	.inst	0x010b0100 ; undefined
 ab0:	41010000 	.inst	0x41010000 ; undefined
 ab4:	00000000 	udf	#0
 ab8:	00000085 	udf	#133
 abc:	00006600 	udf	#26112
 ac0:	00de0000 	.inst	0x00de0000 ; undefined
 ac4:	05000000 	orr	z0.s, z0.s, #0x1
 ac8:	02090001 	.inst	0x02090001 ; undefined
 acc:	00082ed8 	.inst	0x00082ed8 ; undefined
 ad0:	00000000 	udf	#0
 ad4:	05010b03 	orr	z3.s, z3.s, #0x80ffffff
 ad8:	21232f05 	.inst	0x21232f05 ; undefined
 adc:	03053d22 	.inst	0x03053d22 ; undefined
 ae0:	01040200 	.inst	0x01040200 ; undefined
 ae4:	0002023f 	.inst	0x0002023f ; undefined
 ae8:	Address 0x0000000000000ae8 is out of bounds.


Disassembly of section .debug_str:

0000000000000000 <.debug_str>:
       0:	4c465f5f 	.inst	0x4c465f5f ; undefined
       4:	5f363154 	.inst	0x5f363154 ; undefined
       8:	4d524f4e 	.inst	0x4d524f4e ; undefined
       c:	58414d5f 	ldr	xzr, 829b4 <fb_loadSplashImage+0x4c>
      10:	36205f5f 	tbz	wzr, #4, bf8 <__bss_size+0x9d6>
      14:	3035352e 	adr	x14, 6a6b9 <__bss_size+0x6a497>
      18:	30303034 	adr	x20, 6061d <__bss_size+0x603fb>
      1c:	30303030 	adr	x16, 60621 <__bss_size+0x603ff>
      20:	30303030 	adr	x16, 60625 <__bss_size+0x60403>
      24:	30303030 	adr	x16, 60629 <__bss_size+0x60407>
      28:	30303030 	adr	x16, 6062d <__bss_size+0x6040b>
      2c:	30303030 	adr	x16, 60631 <__bss_size+0x6040f>
      30:	30303030 	adr	x16, 60635 <__bss_size+0x60413>
      34:	30303030 	adr	x16, 60639 <__bss_size+0x60417>
      38:	46342b65 	.inst	0x46342b65 ; undefined
      3c:	5f003631 	.inst	0x5f003631 ; undefined
      40:	544c465f 	bc.nv	98908 <_end+0xf7f8>
      44:	5f383231 	.inst	0x5f383231 ; undefined
      48:	49535045 	.inst	0x49535045 ; undefined
      4c:	5f4e4f4c 	.inst	0x5f4e4f4c ; undefined
      50:	2e31205f 	usubl	v31.8h, v2.8b, v17.8b
      54:	39353239 	strb	w25, [x17, #3404]
      58:	34393932 	cbz	w18, 7277c <__bss_size+0x7255a>
      5c:	37383334 	tbnz	w20, #7, 6c0 <__bss_size+0x49e>
      60:	38353332 	ldsetb	w21, w18, [x25]
      64:	35303335 	cbnz	w21, 606c8 <__bss_size+0x604a6>
      68:	37373935 	tbnz	w21, #6, ffffffffffffe78c <_end+0xfffffffffff7567c>
      6c:	35323439 	cbnz	w25, 646f0 <__bss_size+0x644ce>
      70:	32393438 	orr	w24, w1, #0x1fff80
      74:	65323337 	.inst	0x65323337 ; undefined
      78:	4634332d 	.inst	0x4634332d ; undefined
      7c:	00383231 	.inst	0x00383231 ; NYI
      80:	49535f5f 	.inst	0x49535f5f ; undefined
      84:	54415f47 	b.vc	82c6c <read_cmd+0x3c>
      88:	43494d4f 	.inst	0x43494d4f ; undefined
      8c:	58414d5f 	ldr	xzr, 82a34 <fb_loadSplashImage+0xcc>
      90:	30205f5f 	adr	xzr, 40c79 <__bss_size+0x40a57>
      94:	66663778 	.inst	0x66663778 ; undefined
      98:	66666666 	.inst	0x66666666 ; undefined
      9c:	5f5f0066 	.inst	0x5f5f0066 ; undefined
      a0:	36544c46 	tbz	w6, #10, ffffffffffff8a28 <_end+0xfffffffffff6f918>
      a4:	41485f34 	.inst	0x41485f34 ; undefined
      a8:	55515f53 	.inst	0x55515f53 ; undefined
      ac:	5f544549 	.inst	0x5f544549 ; undefined
      b0:	5f4e414e 	.inst	0x5f4e414e ; undefined
      b4:	0031205f 	.inst	0x0031205f ; NYI
      b8:	4c465f5f 	.inst	0x4c465f5f ; undefined
      bc:	5f363154 	.inst	0x5f363154 ; undefined
      c0:	5f4e494d 	.inst	0x5f4e494d ; undefined
      c4:	455f3031 	sabdlb	z17.h, z1.b, z31.b
      c8:	5f5f5058 	.inst	0x5f5f5058 ; undefined
      cc:	342d2820 	cbz	w0, 5a5d0 <__bss_size+0x5a3ae>
      d0:	5f5f0029 	.inst	0x5f5f0029 ; undefined
      d4:	33544c46 	.inst	0x33544c46 ; undefined
      d8:	41485f32 	.inst	0x41485f32 ; undefined
      dc:	4e495f53 	.inst	0x4e495f53 ; undefined
      e0:	494e4946 	.inst	0x494e4946 ; undefined
      e4:	5f5f5954 	.inst	0x5f5f5954 ; undefined
      e8:	5f003120 	.inst	0x5f003120 ; undefined
      ec:	544c465f 	bc.nv	989b4 <_end+0xf8a4>
      f0:	4d5f3436 	.inst	0x4d5f3436 ; undefined
      f4:	455f5841 	usubwb	z1.h, z2.h, z31.b
      f8:	5f5f5058 	.inst	0x5f5f5058 ; undefined
      fc:	32303120 	orr	w0, w9, #0x1fff0000
     100:	5f5f0034 	.inst	0x5f5f0034 ; undefined
     104:	5f544c46 	.inst	0x5f544c46 ; undefined
     108:	5f4e494d 	.inst	0x5f4e494d ; undefined
     10c:	455f3031 	sabdlb	z17.h, z1.b, z31.b
     110:	5f5f5058 	.inst	0x5f5f5058 ; undefined
     114:	332d2820 	.inst	0x332d2820 ; undefined
     118:	5f002937 	.inst	0x5f002937 ; undefined
     11c:	544c465f 	bc.nv	989e4 <_end+0xf8d4>
     120:	5f583436 	srsra	d22, d1, #40
     124:	4f4e4544 	.inst	0x4f4e4544 ; undefined
     128:	4d5f4d52 	.inst	0x4d5f4d52 ; undefined
     12c:	5f5f4e49 	.inst	0x5f5f4e49 ; undefined
     130:	342e3620 	cbz	w0, 5c7f4 <__bss_size+0x5c5d2>
     134:	37313537 	tbnz	w23, #6, 27d8 <__bss_size+0x25b6>
     138:	39313135 	strb	w21, [x9, #3148]
     13c:	30383334 	adr	x20, 707a1 <__bss_size+0x7057f>
     140:	31313532 	adds	w18, w9, #0xc4d
     144:	34323930 	cbz	w16, 64868 <__bss_size+0x64646>
     148:	39383334 	strb	w20, [x25, #3596]
     14c:	32323835 	orr	w21, w1, #0x1fffc000
     150:	36343637 	tbz	w23, #6, ffffffffffff8814 <_end+0xfffffffffff6f704>
     154:	2d653535 	ldp	s21, s13, [x9, #-216]
     158:	36363934 	tbz	w20, #6, ffffffffffffc87c <_end+0xfffffffffff7376c>
     15c:	78343646 	.inst	0x78343646 ; undefined
     160:	58554100 	ldr	x0, aa980 <_end+0x21870>
     164:	5f554d5f 	.inst	0x5f554d5f ; undefined
     168:	44554142 	smlalb	z2.h, z10.b, z21.b
     16c:	76282820 	.inst	0x76282820 ; undefined
     170:	74616c6f 	.inst	0x74616c6f ; undefined
     174:	20656c69 	.inst	0x20656c69 ; undefined
     178:	69736e75 	ldpsw	x21, x27, [x19, #-104]
     17c:	64656e67 	.inst	0x64656e67 ; undefined
     180:	746e6920 	.inst	0x746e6920 ; undefined
     184:	4d28292a 	.inst	0x4d28292a ; undefined
     188:	5f4f494d 	.inst	0x5f4f494d ; undefined
     18c:	45534142 	saddwb	z2.h, z10.h, z19.b
     190:	30202b20 	adr	x0, 406f5 <__bss_size+0x404d3>
     194:	32303078 	orr	w24, w3, #0x1fff0000
     198:	36303531 	tbz	w17, #6, 83c <__bss_size+0x61a>
     19c:	00292938 	.inst	0x00292938 ; NYI
     1a0:	4c465f5f 	.inst	0x4c465f5f ; undefined
     1a4:	58323354 	ldr	x20, 6480c <__bss_size+0x645ea>
     1a8:	58414d5f 	ldr	xzr, 82b50 <local_timer_init+0x30>
     1ac:	5058455f 	adr	xzr, b0a56 <_end+0x27946>
     1b0:	31205f5f 	cmn	w26, #0x817
     1b4:	00343230 	.inst	0x00343230 ; NYI
     1b8:	43475f5f 	.inst	0x43475f5f ; undefined
     1bc:	54415f43 	b.cc	82da4 <shell+0xa4>  // b.lo, b.ul, b.last
     1c0:	43494d4f 	.inst	0x43494d4f ; undefined
     1c4:	5345545f 	.inst	0x5345545f ; undefined
     1c8:	4e415f54 	.inst	0x4e415f54 ; undefined
     1cc:	45535f44 	usubwt	z4.h, z26.h, z19.b
     1d0:	52545f54 	.inst	0x52545f54 ; undefined
     1d4:	41564555 	.inst	0x41564555 ; undefined
     1d8:	0031204c 	.inst	0x0031204c ; NYI
     1dc:	4c465f5f 	.inst	0x4c465f5f ; undefined
     1e0:	58343654 	ldr	x20, 688a8 <__bss_size+0x68686>
     1e4:	5350455f 	.inst	0x5350455f ; undefined
     1e8:	4e4f4c49 	.inst	0x4e4f4c49 ; undefined
     1ec:	31205f5f 	cmn	w26, #0x817
     1f0:	3532392e 	cbnz	w14, 64914 <__bss_size+0x646f2>
     1f4:	39393239 	strb	w25, [x17, #3660]
     1f8:	38333434 	.inst	0x38333434 ; undefined
     1fc:	35333237 	cbnz	w23, 66840 <__bss_size+0x6661e>
     200:	30333538 	adr	x24, 668a5 <__bss_size+0x66683>
     204:	37393535 	tbnz	w21, #7, 28a8 <__bss_size+0x2686>
     208:	32343937 	orr	w23, w9, #0x7fff000
     20c:	39343835 	strb	w21, [x1, #3342]
     210:	32333732 	orr	w18, w25, #0x7ffe000
     214:	34332d65 	cbz	w5, 667c0 <__bss_size+0x6659e>
     218:	78343646 	.inst	0x78343646 ; undefined
     21c:	445f5f00 	umlslt	z0.h, z24.b, z31.b
     220:	445f4c42 	umlalt	z2.h, z2.b, z31.b
     224:	524f4e45 	.inst	0x524f4e45 ; undefined
     228:	494d5f4d 	.inst	0x494d5f4d ; undefined
     22c:	205f5f4e 	.inst	0x205f5f4e ; undefined
     230:	6f642828 	umlal2	v8.4s, v1.8h, v4.h[6]
     234:	656c6275 	fnmls	z21.h, p0/m, z19.h, z12.h
     238:	392e3429 	strb	w9, [x1, #2957]
     23c:	35363034 	cbnz	w20, 6c840 <__bss_size+0x6c61e>
     240:	38353436 	.inst	0x38353436 ; undefined
     244:	34323134 	cbz	w20, 64868 <__bss_size+0x64646>
     248:	34343536 	cbz	w22, 688ec <__bss_size+0x686ca>
     24c:	35363731 	cbnz	w17, 6c930 <__bss_size+0x6c70e>
     250:	39373836 	strb	w22, [x1, #3534]
     254:	38363832 	.inst	0x38363832 ; undefined
     258:	33313232 	.inst	0x33313232 ; undefined
     25c:	2d653237 	ldp	s23, s12, [x17, #-216]
     260:	4c343233 	.inst	0x4c343233 ; undefined
     264:	55410029 	.inst	0x55410029 ; undefined
     268:	554d5f58 	.inst	0x554d5f58 ; undefined
     26c:	5243535f 	.inst	0x5243535f ; undefined
     270:	48435441 	ldxrh	w1, [x2]
     274:	76282820 	.inst	0x76282820 ; undefined
     278:	74616c6f 	.inst	0x74616c6f ; undefined
     27c:	20656c69 	.inst	0x20656c69 ; undefined
     280:	69736e75 	ldpsw	x21, x27, [x19, #-104]
     284:	64656e67 	.inst	0x64656e67 ; undefined
     288:	746e6920 	.inst	0x746e6920 ; undefined
     28c:	4d28292a 	.inst	0x4d28292a ; undefined
     290:	5f4f494d 	.inst	0x5f4f494d ; undefined
     294:	45534142 	saddwb	z2.h, z10.h, z19.b
     298:	30202b20 	adr	x0, 407fd <__bss_size+0x405db>
     29c:	32303078 	orr	w24, w3, #0x1fff0000
     2a0:	35303531 	cbnz	w17, 60944 <__bss_size+0x60722>
     2a4:	00292943 	.inst	0x00292943 ; NYI
     2a8:	4e495f5f 	.inst	0x4e495f5f ; undefined
     2ac:	52545054 	.inst	0x52545054 ; undefined
     2b0:	58414d5f 	ldr	xzr, 82c58 <read_cmd+0x28>
     2b4:	30205f5f 	adr	xzr, 40e9d <__bss_size+0x40c7b>
     2b8:	66663778 	.inst	0x66663778 ; undefined
     2bc:	66666666 	.inst	0x66666666 ; undefined
     2c0:	66666666 	.inst	0x66666666 ; undefined
     2c4:	66666666 	.inst	0x66666666 ; undefined
     2c8:	5f004c66 	.inst	0x5f004c66 ; undefined
     2cc:	544c465f 	bc.nv	98b94 <_end+0xfa84>
     2d0:	4d5f3233 	.inst	0x4d5f3233 ; undefined
     2d4:	5f544e41 	.inst	0x5f544e41 ; undefined
     2d8:	5f474944 	.inst	0x5f474944 ; undefined
     2dc:	3432205f 	cbz	wzr, 646e4 <__bss_size+0x644c2>
     2e0:	465f5f00 	.inst	0x465f5f00 ; undefined
     2e4:	3231544c 	orr	w12, w2, #0xffff801f
     2e8:	414d5f38 	.inst	0x414d5f38 ; undefined
     2ec:	445f544e 	smlslt	z14.h, z2.b, z31.b
     2f0:	5f5f4749 	.inst	0x5f5f4749 ; undefined
     2f4:	33313120 	.inst	0x33313120 ; undefined
     2f8:	53504700 	.inst	0x53504700 ; undefined
     2fc:	20315445 	.inst	0x20315445 ; undefined
     300:	6f762828 	umlal2	v8.4s, v1.8h, v6.h[7]
     304:	6974616c 	ldpsw	x12, x24, [x11, #-96]
     308:	7520656c 	.inst	0x7520656c ; undefined
     30c:	6769736e 	.inst	0x6769736e ; undefined
     310:	2064656e 	.inst	0x2064656e ; undefined
     314:	20746e69 	.inst	0x20746e69 ; undefined
     318:	4d28292a 	.inst	0x4d28292a ; undefined
     31c:	5f4f494d 	.inst	0x5f4f494d ; undefined
     320:	45534142 	saddwb	z2.h, z10.h, z19.b
     324:	30202b20 	adr	x0, 40889 <__bss_size+0x40667>
     328:	32303078 	orr	w24, w3, #0x1fff0000
     32c:	32303030 	orr	w16, w1, #0x1fff0000
     330:	00292930 	.inst	0x00292930 ; NYI
     334:	444c5f5f 	umlslt	z31.h, z26.b, z12.b
     338:	4d5f4c42 	.inst	0x4d5f4c42 ; undefined
     33c:	5f544e41 	.inst	0x5f544e41 ; undefined
     340:	5f474944 	.inst	0x5f474944 ; undefined
     344:	3131205f 	cmn	w2, #0xc48
     348:	5f5f0033 	.inst	0x5f5f0033 ; undefined
     34c:	5f4d5241 	.inst	0x5f4d5241 ; undefined
     350:	54414546 	b.vs	82bf8 <reset+0x30>
     354:	5f455255 	.inst	0x5f455255 ; undefined
     358:	5f455653 	shl	d19, d18, #5
     35c:	54434556 	bc.vs	86c04 <__bss_end+0x1af4>
     360:	4f5f524f 	.inst	0x4f5f524f ; undefined
     364:	41524550 	.inst	0x41524550 ; undefined
     368:	53524f54 	.inst	0x53524f54 ; undefined
     36c:	465f5f00 	.inst	0x465f5f00 ; undefined
     370:	3233544c 	orr	w12, w2, #0xffffe007
     374:	45445f58 	usubwt	z24.h, z26.h, z4.b
     378:	414d4943 	.inst	0x414d4943 ; undefined
     37c:	49445f4c 	.inst	0x49445f4c ; undefined
     380:	205f5f47 	.inst	0x205f5f47 ; undefined
     384:	5f003731 	.inst	0x5f003731 ; undefined
     388:	4c42445f 	.inst	0x4c42445f ; undefined
     38c:	4e494d5f 	.inst	0x4e494d5f ; undefined
     390:	5058455f 	adr	xzr, b0c3a <_end+0x27b2a>
     394:	28205f5f 	stnp	wzr, w23, [x26, #-256]
     398:	3230312d 	orr	w13, w9, #0x1fff0000
     39c:	55002931 	.inst	0x55002931 ; undefined
     3a0:	30545241 	adr	x1, a8de9 <_end+0x1fcd9>
     3a4:	5242465f 	.inst	0x5242465f ; undefined
     3a8:	28282044 	stnp	w4, w8, [x2, #-192]
     3ac:	616c6f76 	.inst	0x616c6f76 ; undefined
     3b0:	656c6974 	fnmls	z20.h, p2/m, z11.h, z12.h
     3b4:	736e7520 	.inst	0x736e7520 ; undefined
     3b8:	656e6769 	fnmls	z9.h, p1/m, z27.h, z14.h
     3bc:	6e692064 	usubl2	v4.4s, v3.8h, v9.8h
     3c0:	28292a74 	stnp	w20, w10, [x19, #-184]
     3c4:	54524155 	bc.pl	a4bec <_end+0x1badc>  // bc.nfrst
     3c8:	41425f30 	.inst	0x41425f30 ; undefined
     3cc:	2b204553 	adds	w19, w10, w0, uxtw #1
     3d0:	32783020 	.inst	0x32783020 ; undefined
     3d4:	00292938 	.inst	0x00292938 ; NYI
     3d8:	43475f5f 	.inst	0x43475f5f ; undefined
     3dc:	54415f43 	b.cc	82fc4 <main+0xec>  // b.lo, b.ul, b.last
     3e0:	43494d4f 	.inst	0x43494d4f ; undefined
     3e4:	4148435f 	.inst	0x4148435f ; undefined
     3e8:	5f363152 	.inst	0x5f363152 ; undefined
     3ec:	4f4c5f54 	.inst	0x4f4c5f54 ; undefined
     3f0:	465f4b43 	.inst	0x465f4b43 ; undefined
     3f4:	20454552 	.inst	0x20454552 ; undefined
     3f8:	5f5f0032 	.inst	0x5f5f0032 ; undefined
     3fc:	5f4d5241 	.inst	0x5f4d5241 ; undefined
     400:	455a4953 	uaddwb	z19.h, z10.h, z26.b
     404:	575f464f 	.inst	0x575f464f ; undefined
     408:	52414843 	.inst	0x52414843 ; undefined
     40c:	3420545f 	cbz	wzr, 40e94 <__bss_size+0x40c72>
     410:	465f5f00 	.inst	0x465f5f00 ; undefined
     414:	3233544c 	orr	w12, w2, #0xffffe007
     418:	414d5f58 	.inst	0x414d5f58 ; undefined
     41c:	205f5f58 	.inst	0x205f5f58 ; undefined
     420:	39372e31 	strb	w17, [x17, #3531]
     424:	33393637 	.inst	0x33393637 ; undefined
     428:	38343331 	ldsetb	w20, w17, [x25]
     42c:	31333236 	adds	w22, w17, #0xccc
     430:	38303735 	.inst	0x38303735 ; undefined
     434:	32353431 	orr	w17, w1, #0x1fff800
     438:	33323437 	.inst	0x33323437 ; undefined
     43c:	37313337 	tbnz	w23, #6, 2aa0 <__bss_size+0x287e>
     440:	35333430 	cbnz	w16, 66ac4 <__bss_size+0x668a2>
     444:	332b6537 	.inst	0x332b6537 ; undefined
     448:	33463830 	.inst	0x33463830 ; undefined
     44c:	5f007832 	.inst	0x5f007832 ; undefined
     450:	4d52415f 	.inst	0x4d52415f ; undefined
     454:	4145465f 	.inst	0x4145465f ; undefined
     458:	45525554 	ssubwt	z20.h, z10.h, z18.b
     45c:	4d4f435f 	.inst	0x4d4f435f ; undefined
     460:	58454c50 	ldr	x16, 8ade8 <_end+0x1cd8>
     464:	535f5f00 	.inst	0x535f5f00 ; undefined
     468:	4f455a49 	.inst	0x4f455a49 ; undefined
     46c:	49575f46 	.inst	0x49575f46 ; undefined
     470:	545f544e 	b.al	beef8 <_end+0x35de8>
     474:	34205f5f 	cbz	wzr, 4105c <__bss_size+0x40e3a>
     478:	415f5f00 	.inst	0x415f5f00 ; undefined
     47c:	48435241 	ldxrh	w1, [x18]
     480:	4c453436 	.inst	0x4c453436 ; undefined
     484:	31205f5f 	cmn	w26, #0x817
     488:	726f6300 	.inst	0x726f6300 ; undefined
     48c:	69745f65 	ldpsw	x5, x23, [x27, #-96]
     490:	5f72656d 	.inst	0x5f72656d ; undefined
     494:	62616e65 	.inst	0x62616e65 ; undefined
     498:	5f00656c 	.inst	0x5f00656c ; undefined
     49c:	4d52415f 	.inst	0x4d52415f ; undefined
     4a0:	4145465f 	.inst	0x4145465f ; undefined
     4a4:	45525554 	ssubwt	z20.h, z10.h, z18.b
     4a8:	474e525f 	.inst	0x474e525f ; undefined
     4ac:	465f5f00 	.inst	0x465f5f00 ; undefined
     4b0:	3233544c 	orr	w12, w2, #0xffffe007
     4b4:	524f4e5f 	.inst	0x524f4e5f ; undefined
     4b8:	414d5f4d 	.inst	0x414d5f4d ; undefined
     4bc:	205f5f58 	.inst	0x205f5f58 ; undefined
     4c0:	30342e33 	adr	x19, 68a85 <__bss_size+0x68863>
     4c4:	33323832 	.inst	0x33323832 ; undefined
     4c8:	33363634 	.inst	0x33363634 ; undefined
     4cc:	38323538 	.inst	0x38323538 ; undefined
     4d0:	38393538 	.inst	0x38393538 ; undefined
     4d4:	30373131 	adr	x17, 6eaf9 <__bss_size+0x6e8d7>
     4d8:	33383134 	.inst	0x33383134 ; undefined
     4dc:	35343834 	cbnz	w20, 68be0 <__bss_size+0x689be>
     4e0:	32393631 	orr	w17, w17, #0x1fff80
     4e4:	332b6535 	.inst	0x332b6535 ; undefined
     4e8:	32334638 	orr	w24, w17, #0x7fffe000
     4ec:	475f5f00 	.inst	0x475f5f00 ; undefined
     4f0:	5f43554e 	shl	d14, d10, #3
     4f4:	4f4e494d 	.inst	0x4f4e494d ; undefined
     4f8:	205f5f52 	.inst	0x205f5f52 ; undefined
     4fc:	55410034 	.inst	0x55410034 ; undefined
     500:	554d5f58 	.inst	0x554d5f58 ; undefined
     504:	544e435f 	bc.nv	9cd6c <_end+0x13c5c>
     508:	2828204c 	stnp	w12, w8, [x2, #-192]
     50c:	616c6f76 	.inst	0x616c6f76 ; undefined
     510:	656c6974 	fnmls	z20.h, p2/m, z11.h, z12.h
     514:	736e7520 	.inst	0x736e7520 ; undefined
     518:	656e6769 	fnmls	z9.h, p1/m, z27.h, z14.h
     51c:	6e692064 	usubl2	v4.4s, v3.8h, v9.8h
     520:	28292a74 	stnp	w20, w10, [x19, #-184]
     524:	4f494d4d 	.inst	0x4f494d4d ; undefined
     528:	5341425f 	.inst	0x5341425f ; undefined
     52c:	202b2045 	.inst	0x202b2045 ; undefined
     530:	30307830 	adr	x16, 61435 <__bss_size+0x61213>
     534:	30353132 	adr	x18, 6ab59 <__bss_size+0x6a937>
     538:	29293036 	stp	w22, w12, [x1, #-184]
     53c:	555f5f00 	.inst	0x555f5f00 ; undefined
     540:	36544e49 	tbz	w9, #10, ffffffffffff8f08 <_end+0xfffffffffff6fdf8>
     544:	414d5f34 	.inst	0x414d5f34 ; undefined
     548:	205f5f58 	.inst	0x205f5f58 ; undefined
     54c:	66667830 	.inst	0x66667830 ; undefined
     550:	66666666 	.inst	0x66666666 ; undefined
     554:	66666666 	.inst	0x66666666 ; undefined
     558:	66666666 	.inst	0x66666666 ; undefined
     55c:	4c556666 	.inst	0x4c556666 ; undefined
     560:	50504700 	adr	x0, a0e42 <_end+0x17d32>
     564:	4c434455 	.inst	0x4c434455 ; undefined
     568:	2820314b 	stnp	w11, w12, [x10, #-256]
     56c:	6c6f7628 	ldnp	d8, d29, [x17, #-272]
     570:	6c697461 	ldnp	d1, d29, [x3, #-368]
     574:	6e752065 	usubl2	v5.4s, v3.8h, v21.8h
     578:	6e676973 	.inst	0x6e676973 ; undefined
     57c:	69206465 	stgp	x5, x25, [x3, #-1024]
     580:	2a20746e 	orn	w14, w3, w0, lsl #29
     584:	4d4d2829 	.inst	0x4d4d2829 ; undefined
     588:	425f4f49 	.inst	0x425f4f49 ; undefined
     58c:	20455341 	.inst	0x20455341 ; undefined
     590:	7830202b 	ldeorh	w16, w11, [x1]
     594:	30323030 	adr	x16, 64b99 <__bss_size+0x64977>
     598:	43393030 	.inst	0x43393030 ; undefined
     59c:	5f002929 	.inst	0x5f002929 ; undefined
     5a0:	4d52415f 	.inst	0x4d52415f ; undefined
     5a4:	4145465f 	.inst	0x4145465f ; undefined
     5a8:	45525554 	ssubwt	z20.h, z10.h, z18.b
     5ac:	5952435f 	ldapurh	wzr, [x26, #-220]
     5b0:	004f5450 	.inst	0x004f5450 ; undefined
     5b4:	4c465f5f 	.inst	0x4c465f5f ; undefined
     5b8:	5f343654 	.inst	0x5f343654 ; undefined
     5bc:	5f4e494d 	.inst	0x5f4e494d ; undefined
     5c0:	2e32205f 	usubl	v31.8h, v2.8b, v18.8b
     5c4:	30353232 	adr	x18, 6ac09 <__bss_size+0x6a9e7>
     5c8:	35383337 	cbnz	w23, 70c2c <__bss_size+0x70a0a>
     5cc:	37303538 	tbnz	w24, #6, c70 <__bss_size+0xa4e>
     5d0:	33313032 	.inst	0x33313032 ; undefined
     5d4:	39303338 	strb	w24, [x25, #3084]
     5d8:	32333230 	orr	w16, w17, #0x3ffe000
     5dc:	33373137 	.inst	0x33373137 ; undefined
     5e0:	30343233 	adr	x19, 68c25 <__bss_size+0x68a03>
     5e4:	65363034 	.inst	0x65363034 ; undefined
     5e8:	3830332d 	ldsetb	w16, w13, [x25]
     5ec:	00343646 	.inst	0x00343646 ; NYI
     5f0:	4f4c5f5f 	.inst	0x4f4c5f5f ; undefined
     5f4:	4c5f474e 	.inst	0x4c5f474e ; undefined
     5f8:	5f474e4f 	.inst	0x5f474e4f ; undefined
     5fc:	54444957 	bc.vc	88f24 <__bss_end+0x3e14>
     600:	205f5f48 	.inst	0x205f5f48 ; undefined
     604:	5f003436 	.inst	0x5f003436 ; undefined
     608:	4343475f 	.inst	0x4343475f ; undefined
     60c:	5641485f 	.inst	0x5641485f ; undefined
     610:	59535f45 	.inst	0x59535f45 ; undefined
     614:	435f434e 	.inst	0x435f434e ; undefined
     618:	41504d4f 	.inst	0x41504d4f ; undefined
     61c:	415f4552 	.inst	0x415f4552 ; undefined
     620:	535f444e 	.inst	0x535f444e ; undefined
     624:	5f504157 	.inst	0x5f504157 ; undefined
     628:	00312038 	.inst	0x00312038 ; NYI
     62c:	4c465f5f 	.inst	0x4c465f5f ; undefined
     630:	45445f54 	usubwt	z20.h, z26.h, z4.b
     634:	4d524f4e 	.inst	0x4d524f4e ; undefined
     638:	4e494d5f 	.inst	0x4e494d5f ; undefined
     63c:	31205f5f 	cmn	w26, #0x817
     640:	3130342e 	adds	w14, w1, #0xc0d
     644:	34383932 	cbz	w18, 70d68 <__bss_size+0x70b46>
     648:	32333436 	orr	w22, w1, #0x7ffe000
     64c:	37313834 	tbnz	w20, #6, 2d50 <__bss_size+0x2b2e>
     650:	39303730 	strb	w16, [x25, #3085]
     654:	32373332 	orr	w18, w25, #0x3ffe00
     658:	33383539 	.inst	0x33383539 ; undefined
     65c:	39393832 	strb	w18, [x1, #3662]
     660:	33313631 	.inst	0x33313631 ; undefined
     664:	35342d65 	cbnz	w5, 68c10 <__bss_size+0x689ee>
     668:	5f5f0046 	.inst	0x5f5f0046 ; undefined
     66c:	52414843 	.inst	0x52414843 ; undefined
     670:	545f3631 	bc.ne	bed34 <_end+0x35c24>  // bc.any
     674:	5f455059 	.inst	0x5f455059 ; undefined
     678:	6873205f 	.inst	0x6873205f ; undefined
     67c:	2074726f 	.inst	0x2074726f ; undefined
     680:	69736e75 	ldpsw	x21, x27, [x19, #-104]
     684:	64656e67 	.inst	0x64656e67 ; undefined
     688:	746e6920 	.inst	0x746e6920 ; undefined
     68c:	415f5f00 	.inst	0x415f5f00 ; undefined
     690:	465f4d52 	.inst	0x465f4d52 ; undefined
     694:	55544145 	.inst	0x55544145 ; undefined
     698:	535f4552 	.inst	0x535f4552 ; undefined
     69c:	31354148 	adds	w8, w10, #0xd50
     6a0:	5f5f0032 	.inst	0x5f5f0032 ; undefined
     6a4:	455a4953 	uaddwb	z19.h, z10.h, z26.b
     6a8:	535f464f 	.inst	0x535f464f ; undefined
     6ac:	5f455a49 	.inst	0x5f455a49 ; undefined
     6b0:	205f5f54 	.inst	0x205f5f54 ; undefined
     6b4:	5f5f0038 	.inst	0x5f5f0038 ; undefined
     6b8:	43524141 	.inst	0x43524141 ; undefined
     6bc:	5f343648 	.inst	0x5f343648 ; undefined
     6c0:	444f4d43 	umlalt	z3.h, z10.b, z15.b
     6c4:	535f4c45 	.inst	0x535f4c45 ; undefined
     6c8:	4c4c414d 	.inst	0x4c4c414d ; undefined
     6cc:	31205f5f 	cmn	w26, #0x817
     6d0:	4f5f5f00 	.inst	0x4f5f5f00 ; undefined
     6d4:	52454452 	.inst	0x52454452 ; undefined
     6d8:	4749425f 	.inst	0x4749425f ; undefined
     6dc:	444e455f 	smlalt	z31.h, z10.b, z14.b
     6e0:	5f4e4149 	.inst	0x5f4e4149 ; undefined
     6e4:	3334205f 	.inst	0x3334205f ; undefined
     6e8:	5f003132 	.inst	0x5f003132 ; undefined
     6ec:	4e49555f 	.inst	0x4e49555f ; undefined
     6f0:	5f343654 	.inst	0x5f343654 ; undefined
     6f4:	29632843 	ldp	w3, w10, [x2, #-232]
     6f8:	23206320 	.inst	0x23206320 ; undefined
     6fc:	4c552023 	.inst	0x4c552023 ; undefined
     700:	445f5f00 	umlslt	z0.h, z24.b, z31.b
     704:	4d5f4c42 	.inst	0x4d5f4c42 ; undefined
     708:	5f544e41 	.inst	0x5f544e41 ; undefined
     70c:	5f474944 	.inst	0x5f474944 ; undefined
     710:	3335205f 	.inst	0x3335205f ; undefined
     714:	415f5f00 	.inst	0x415f5f00 ; undefined
     718:	465f4d52 	.inst	0x465f4d52 ; undefined
     71c:	55544145 	.inst	0x55544145 ; undefined
     720:	465f4552 	.inst	0x465f4552 ; undefined
     724:	5f363150 	.inst	0x5f363150 ; undefined
     728:	54434556 	bc.vs	86fd0 <__bss_end+0x1ec0>
     72c:	415f524f 	.inst	0x415f524f ; undefined
     730:	48544952 	ldxrh	w18, [x10]
     734:	4954454d 	.inst	0x4954454d ; undefined
     738:	5f5f0043 	.inst	0x5f5f0043 ; undefined
     73c:	544e4957 	bc.vc	9d064 <_end+0x13f54>
     740:	58414d5f 	ldr	xzr, 830e8 <main+0x210>
     744:	30205f5f 	adr	xzr, 4132d <__bss_size+0x4110b>
     748:	66666678 	.inst	0x66666678 ; undefined
     74c:	66666666 	.inst	0x66666666 ; undefined
     750:	5f005566 	.inst	0x5f005566 ; undefined
     754:	4f54415f 	.inst	0x4f54415f ; undefined
     758:	5f43494d 	.inst	0x5f43494d ; undefined
     75c:	454c4552 	saddwt	z18.h, z10.h, z12.b
     760:	20455341 	.inst	0x20455341 ; undefined
     764:	5f5f0033 	.inst	0x5f5f0033 ; undefined
     768:	5f544c46 	.inst	0x5f544c46 ; undefined
     76c:	495f5349 	.inst	0x495f5349 ; undefined
     770:	365f4345 	tbz	w5, #11, ffffffffffffefd8 <_end+0xfffffffffff75ec8>
     774:	39353530 	strb	w16, [x9, #3405]
     778:	32205f5f 	orr	wsp, w26, #0xffffff
     77c:	465f5f00 	.inst	0x465f5f00 ; undefined
     780:	3631544c 	tbz	w12, #6, 3208 <__bss_size+0x2fe6>
     784:	4749445f 	.inst	0x4749445f ; undefined
     788:	33205f5f 	.inst	0x33205f5f ; undefined
     78c:	435f5f00 	.inst	0x435f5f00 ; undefined
     790:	5f524148 	.inst	0x5f524148 ; undefined
     794:	49534e55 	.inst	0x49534e55 ; undefined
     798:	44454e47 	umlalt	z7.h, z18.b, z5.b
     79c:	31205f5f 	cmn	w26, #0x817
     7a0:	495f5f00 	.inst	0x495f5f00 ; undefined
     7a4:	3631544e 	tbz	w14, #6, 322c <__bss_size+0x300a>
     7a8:	5059545f 	adr	xzr, b3232 <_end+0x2a122>
     7ac:	205f5f45 	.inst	0x205f5f45 ; undefined
     7b0:	726f6873 	.inst	0x726f6873 ; undefined
     7b4:	6e692074 	usubl2	v20.4s, v3.8h, v9.8h
     7b8:	5f5f0074 	.inst	0x5f5f0074 ; undefined
     7bc:	31544c46 	adds	w6, w2, #0x513, lsl #12
     7c0:	53495f36 	.inst	0x53495f36 ; undefined
     7c4:	4345495f 	.inst	0x4345495f ; undefined
     7c8:	3530365f 	cbnz	wzr, 60e90 <__bss_size+0x60c6e>
     7cc:	5f5f3935 	sqdmlal	s21, h9, v15.h[5]
     7d0:	5f003220 	.inst	0x5f003220 ; undefined
     7d4:	544c465f 	bc.nv	9909c <_end+0xff8c>
     7d8:	5f583436 	srsra	d22, d1, #40
     7dc:	5f58414d 	.inst	0x5f58414d ; undefined
     7e0:	5f505845 	.inst	0x5f505845 ; undefined
     7e4:	3631205f 	tbz	wzr, #6, 2bec <__bss_size+0x29ca>
     7e8:	00343833 	.inst	0x00343833 ; NYI
     7ec:	54415f5f 	bc.nv	833d4 <main+0x4fc>
     7f0:	43494d4f 	.inst	0x43494d4f ; undefined
     7f4:	5145535f 	sub	wsp, w26, #0x154, lsl #12
     7f8:	5453435f 	bc.nv	a7060 <_end+0x1df50>
     7fc:	5f003520 	.inst	0x5f003520 ; undefined
     800:	5a49535f 	.inst	0x5a49535f ; undefined
     804:	5f464f45 	.inst	0x5f464f45 ; undefined
     808:	524f4853 	.inst	0x524f4853 ; undefined
     80c:	205f5f54 	.inst	0x205f5f54 ; undefined
     810:	5f5f0032 	.inst	0x5f5f0032 ; undefined
     814:	5f4d5241 	.inst	0x5f4d5241 ; undefined
     818:	54414546 	b.vs	830c0 <main+0x1e8>
     81c:	5f455255 	.inst	0x5f455255 ; undefined
     820:	5456434a 	b.ge	ad088 <_end+0x23f78>  // b.tcont
     824:	555f5f00 	.inst	0x555f5f00 ; undefined
     828:	36544e49 	tbz	w9, #10, ffffffffffff91f0 <_end+0xfffffffffff700e0>
     82c:	59545f34 	.inst	0x59545f34 ; undefined
     830:	5f5f4550 	.inst	0x5f5f4550 ; undefined
     834:	6e6f6c20 	umin	v0.8h, v1.8h, v15.8h
     838:	6e752067 	usubl2	v7.4s, v3.8h, v21.8h
     83c:	6e676973 	.inst	0x6e676973 ; undefined
     840:	69206465 	stgp	x5, x25, [x3, #-1024]
     844:	5f00746e 	.inst	0x5f00746e ; undefined
     848:	544e495f 	bc.nv	9d170 <_end+0x14060>
     84c:	5341465f 	.inst	0x5341465f ; undefined
     850:	5f323354 	.inst	0x5f323354 ; undefined
     854:	5f58414d 	.inst	0x5f58414d ; undefined
     858:	7830205f 	steorh	w16, [x2]
     85c:	66666637 	.inst	0x66666637 ; undefined
     860:	66666666 	.inst	0x66666666 ; undefined
     864:	66666666 	.inst	0x66666666 ; undefined
     868:	66666666 	.inst	0x66666666 ; undefined
     86c:	5f5f004c 	.inst	0x5f5f004c ; undefined
     870:	5f544e49 	.inst	0x5f544e49 ; undefined
     874:	5341454c 	.inst	0x5341454c ; undefined
     878:	545f3854 	bc.mi	bef80 <_end+0x35e70>  // bc.first
     87c:	5f455059 	.inst	0x5f455059 ; undefined
     880:	6973205f 	ldpsw	xzr, x8, [x2, #-104]
     884:	64656e67 	.inst	0x64656e67 ; undefined
     888:	61686320 	.inst	0x61686320 ; undefined
     88c:	5f5f0072 	.inst	0x5f5f0072 ; undefined
     890:	544e4955 	bc.pl	9d1b8 <_end+0x140a8>  // bc.nfrst
     894:	41454c5f 	.inst	0x41454c5f ; undefined
     898:	32335453 	orr	w19, w2, #0xffffe007
     89c:	5059545f 	adr	xzr, b3326 <_end+0x2a216>
     8a0:	205f5f45 	.inst	0x205f5f45 ; undefined
     8a4:	69736e75 	ldpsw	x21, x27, [x19, #-104]
     8a8:	64656e67 	.inst	0x64656e67 ; undefined
     8ac:	746e6920 	.inst	0x746e6920 ; undefined
     8b0:	555f5f00 	.inst	0x555f5f00 ; undefined
     8b4:	5f544e49 	.inst	0x5f544e49 ; undefined
     8b8:	54534146 	b.vs	a70e0 <_end+0x1dfd0>
     8bc:	545f3233 	bc.cc	bef00 <_end+0x35df0>  // bc.lo, bc.ul, bc.last
     8c0:	5f455059 	.inst	0x5f455059 ; undefined
     8c4:	6f6c205f 	umlal2	v31.4s, v2.8h, v12.h[2]
     8c8:	7520676e 	.inst	0x7520676e ; undefined
     8cc:	6769736e 	.inst	0x6769736e ; undefined
     8d0:	2064656e 	.inst	0x2064656e ; undefined
     8d4:	00746e69 	.inst	0x00746e69 ; undefined
     8d8:	59425f5f 	.inst	0x59425f5f ; undefined
     8dc:	4f5f4554 	.inst	0x4f5f4554 ; undefined
     8e0:	52454452 	.inst	0x52454452 ; undefined
     8e4:	5f205f5f 	.inst	0x5f205f5f ; undefined
     8e8:	44524f5f 	umlalt	z31.h, z26.b, z18.b
     8ec:	4c5f5245 	.inst	0x4c5f5245 ; undefined
     8f0:	4c545449 	.inst	0x4c545449 ; undefined
     8f4:	4e455f45 	.inst	0x4e455f45 ; undefined
     8f8:	4e414944 	.inst	0x4e414944 ; undefined
     8fc:	5f005f5f 	.inst	0x5f005f5f ; undefined
     900:	42444c5f 	.inst	0x42444c5f ; undefined
     904:	494d5f4c 	.inst	0x494d5f4c ; undefined
     908:	205f5f4e 	.inst	0x205f5f4e ; undefined
     90c:	36332e33 	tbz	w19, #6, 6ed0 <__bss_size+0x6cae>
     910:	33303132 	.inst	0x33303132 ; undefined
     914:	31333431 	adds	w17, w1, #0xccd
     918:	39303231 	strb	w17, [x17, #3084]
     91c:	36303533 	tbz	w19, #6, fc0 <__bss_size+0xd9e>
     920:	36323632 	tbz	w18, #6, 4fe4 <__bss_size+0x4dc2>
     924:	31383737 	adds	w23, w25, #0xe0d
     928:	31323337 	adds	w23, w25, #0xc8c
     92c:	36323537 	tbz	w23, #6, 4fd0 <__bss_size+0x4dae>
     930:	342d6530 	cbz	w16, 5b5d4 <__bss_size+0x5b3b2>
     934:	4c323339 	.inst	0x4c323339 ; undefined
     938:	565f5f00 	.inst	0x565f5f00 ; undefined
     93c:	49535245 	.inst	0x49535245 ; undefined
     940:	5f5f4e4f 	.inst	0x5f5f4e4f ; undefined
     944:	31312220 	adds	w0, w17, #0xc48
     948:	302e342e 	adr	x14, 5cfcd <__bss_size+0x5cdab>
     94c:	5f5f0022 	.inst	0x5f5f0022 ; undefined
     950:	33544c46 	.inst	0x33544c46 ; undefined
     954:	494d5f32 	.inst	0x494d5f32 ; undefined
     958:	30315f4e 	adr	x14, 63541 <__bss_size+0x6331f>
     95c:	5058455f 	adr	xzr, b1206 <_end+0x280f6>
     960:	28205f5f 	stnp	wzr, w23, [x26, #-256]
     964:	2937332d 	stp	w13, w12, [x25, #-72]
     968:	445f5f00 	umlslt	z0.h, z24.b, z31.b
     96c:	485f4c42 	ldxrh	w2, [x2]
     970:	445f5341 	smlslb	z1.h, z26.b, z31.b
     974:	524f4e45 	.inst	0x524f4e45 ; undefined
     978:	205f5f4d 	.inst	0x205f5f4d ; undefined
     97c:	5f5f0031 	.inst	0x5f5f0031 ; undefined
     980:	5f4d5241 	.inst	0x5f4d5241 ; undefined
     984:	54414546 	b.vs	8322c <main+0x354>
     988:	5f455255 	.inst	0x5f455255 ; undefined
     98c:	4d445251 	.inst	0x4d445251 ; undefined
     990:	5f5f0058 	.inst	0x5f5f0058 ; undefined
     994:	5f544e49 	.inst	0x5f544e49 ; undefined
     998:	5341454c 	.inst	0x5341454c ; undefined
     99c:	5f343654 	.inst	0x5f343654 ; undefined
     9a0:	45505954 	usubwb	z20.h, z10.h, z16.b
     9a4:	6c205f5f 	stnp	d31, d23, [x26, #-512]
     9a8:	20676e6f 	.inst	0x20676e6f ; undefined
     9ac:	00746e69 	.inst	0x00746e69 ; undefined
     9b0:	52415f5f 	.inst	0x52415f5f ; undefined
     9b4:	52415f4d 	.inst	0x52415f4d ; undefined
     9b8:	38204843 	strb	w3, [x2, w0, uxtw]
     9bc:	495f5f00 	.inst	0x495f5f00 ; undefined
     9c0:	4c5f544e 	.inst	0x4c5f544e ; undefined
     9c4:	54534145 	b.pl	a71ec <_end+0x1e0dc>  // b.nfrst
     9c8:	4d5f3631 	.inst	0x4d5f3631 ; undefined
     9cc:	5f5f5841 	.inst	0x5f5f5841 ; undefined
     9d0:	37783020 	tbnz	w0, #15, fd4 <__bss_size+0xdb2>
     9d4:	00666666 	.inst	0x00666666 ; undefined
     9d8:	43535f5f 	.inst	0x43535f5f ; undefined
     9dc:	5f524148 	.inst	0x5f524148 ; undefined
     9e0:	5f58414d 	.inst	0x5f58414d ; undefined
     9e4:	7830205f 	steorh	w16, [x2]
     9e8:	5f006637 	.inst	0x5f006637 ; undefined
     9ec:	42444c5f 	.inst	0x42444c5f ; undefined
     9f0:	45445f4c 	usubwt	z12.h, z26.h, z4.b
     9f4:	4d524f4e 	.inst	0x4d524f4e ; undefined
     9f8:	4e494d5f 	.inst	0x4e494d5f ; undefined
     9fc:	36205f5f 	tbz	wzr, #4, 15e4 <__bss_size+0x13c2>
     a00:	3537342e 	cbnz	w14, 6f084 <__bss_size+0x6ee62>
     a04:	31353731 	adds	w17, w25, #0xd4d
     a08:	33343931 	.inst	0x33343931 ; undefined
     a0c:	35323038 	cbnz	w24, 65010 <__bss_size+0x64dee>
     a10:	39303131 	strb	w17, [x9, #3084]
     a14:	33343432 	.inst	0x33343432 ; undefined
     a18:	38353938 	.inst	0x38353938 ; undefined
     a1c:	36373232 	tbz	w18, #6, fffffffffffff060 <_end+0xfffffffffff75f50>
     a20:	35353634 	cbnz	w20, 6b0e4 <__bss_size+0x6aec2>
     a24:	39342d65 	strb	w5, [x11, #3339]
     a28:	004c3636 	.inst	0x004c3636 ; undefined
     a2c:	4e475f5f 	.inst	0x4e475f5f ; undefined
     a30:	455f4355 	saddwb	z21.h, z26.h, z31.b
     a34:	55434558 	.inst	0x55434558 ; undefined
     a38:	4e4f4954 	.inst	0x4e4f4954 ; undefined
     a3c:	4148435f 	.inst	0x4148435f ; undefined
     a40:	54455352 	bc.cs	8b4a8 <_end+0x2398>  // bc.hs, bc.nlast
     a44:	4d414e5f 	.inst	0x4d414e5f ; undefined
     a48:	55222045 	.inst	0x55222045 ; undefined
     a4c:	382d4654 	.inst	0x382d4654 ; undefined
     a50:	5f5f0022 	.inst	0x5f5f0022 ; undefined
     a54:	36544c46 	tbz	w6, #10, ffffffffffff93dc <_end+0xfffffffffff702cc>
     a58:	49445f34 	.inst	0x49445f34 ; undefined
     a5c:	205f5f47 	.inst	0x205f5f47 ; undefined
     a60:	5f003531 	.inst	0x5f003531 ; undefined
     a64:	544e495f 	bc.nv	9d38c <_end+0x1427c>
     a68:	5341465f 	.inst	0x5341465f ; undefined
     a6c:	545f3854 	bc.mi	bf174 <_end+0x36064>  // bc.first
     a70:	5f455059 	.inst	0x5f455059 ; undefined
     a74:	6973205f 	ldpsw	xzr, x8, [x2, #-104]
     a78:	64656e67 	.inst	0x64656e67 ; undefined
     a7c:	61686320 	.inst	0x61686320 ; undefined
     a80:	5f5f0072 	.inst	0x5f5f0072 ; undefined
     a84:	4d4f5441 	.inst	0x4d4f5441 ; undefined
     a88:	525f4349 	.inst	0x525f4349 ; undefined
     a8c:	58414c45 	ldr	x5, 83414 <main+0x53c>
     a90:	30204445 	adr	x5, 41319 <__bss_size+0x410f7>
     a94:	415f5f00 	.inst	0x415f5f00 ; undefined
     a98:	465f4d52 	.inst	0x465f4d52 ; undefined
     a9c:	55544145 	.inst	0x55544145 ; undefined
     aa0:	465f4552 	.inst	0x465f4552 ; undefined
     aa4:	5f363150 	.inst	0x5f363150 ; undefined
     aa8:	004c4d46 	.inst	0x004c4d46 ; undefined
     aac:	444c5f5f 	umlslt	z31.h, z26.b, z12.b
     ab0:	495f4c42 	.inst	0x495f4c42 ; undefined
     ab4:	45495f53 	usubwt	z19.h, z26.h, z9.b
     ab8:	30365f43 	adr	x3, 6d6a1 <__bss_size+0x6d47f>
     abc:	5f393535 	.inst	0x5f393535 ; undefined
     ac0:	0032205f 	.inst	0x0032205f ; NYI
     ac4:	4c465f5f 	.inst	0x4c465f5f ; undefined
     ac8:	58323354 	ldr	x20, 65130 <__bss_size+0x64f0e>
     acc:	5341485f 	.inst	0x5341485f ; undefined
     ad0:	464e495f 	.inst	0x464e495f ; undefined
     ad4:	54494e49 	b.ls	9349c <_end+0xa38c>  // b.plast
     ad8:	205f5f59 	.inst	0x205f5f59 ; undefined
     adc:	5f5f0031 	.inst	0x5f5f0031 ; undefined
     ae0:	31544c46 	adds	w6, w2, #0x513, lsl #12
     ae4:	485f3832 	ldxrh	w18, [x1]
     ae8:	495f5341 	.inst	0x495f5341 ; undefined
     aec:	4e49464e 	.inst	0x4e49464e ; undefined
     af0:	5f595449 	shl	d9, d2, #25
     af4:	0031205f 	.inst	0x0031205f ; NYI
     af8:	6e755f5f 	uqrshl	v31.8h, v26.8h, v21.8h
     afc:	5f5f7869 	sqdmlsl	s9, h3, v15.h[5]
     b00:	5f003120 	.inst	0x5f003120 ; undefined
     b04:	4e49555f 	.inst	0x4e49555f ; undefined
     b08:	454c5f54 	usubwt	z20.h, z26.h, z12.b
     b0c:	38545341 	ldurb	w1, [x26, #-187]
     b10:	5059545f 	adr	xzr, b359a <_end+0x2a48a>
     b14:	205f5f45 	.inst	0x205f5f45 ; undefined
     b18:	69736e75 	ldpsw	x21, x27, [x19, #-104]
     b1c:	64656e67 	.inst	0x64656e67 ; undefined
     b20:	61686320 	.inst	0x61686320 ; undefined
     b24:	5f5f0072 	.inst	0x5f5f0072 ; undefined
     b28:	455a4953 	uaddwb	z19.h, z10.h, z26.b
     b2c:	495f464f 	.inst	0x495f464f ; undefined
     b30:	3231544e 	orr	w14, w2, #0xffff801f
     b34:	205f5f38 	.inst	0x205f5f38 ; undefined
     b38:	5f003631 	.inst	0x5f003631 ; undefined
     b3c:	544e495f 	bc.nv	9d464 <_end+0x14354>
     b40:	28435f38 	ldnp	w24, w23, [x25, #24]
     b44:	63202963 	.inst	0x63202963 ; undefined
     b48:	465f5f00 	.inst	0x465f5f00 ; undefined
     b4c:	41465f50 	.inst	0x41465f50 ; undefined
     b50:	465f5453 	.inst	0x465f5453 ; undefined
     b54:	3346414d 	.inst	0x3346414d ; undefined
     b58:	00312032 	.inst	0x00312032 ; NYI
     b5c:	4c465f5f 	.inst	0x4c465f5f ; undefined
     b60:	38323154 	ldsetb	w18, w20, [x10]
     b64:	58414d5f 	ldr	xzr, 8350c <main+0x634>
     b68:	31205f5f 	cmn	w26, #0x817
     b6c:	3938312e 	strb	w14, [x9, #3596]
     b70:	34313337 	cbz	w23, 631d4 <__bss_size+0x62fb2>
     b74:	35333539 	cbnz	w25, 67218 <__bss_size+0x66ff6>
     b78:	31333237 	adds	w23, w17, #0xccc
     b7c:	30353637 	adr	x23, 6b241 <__bss_size+0x6b01f>
     b80:	35373538 	cbnz	w24, 6f224 <__bss_size+0x6f002>
     b84:	36323339 	tbz	w25, #6, 51e8 <__bss_size+0x4fc6>
     b88:	30383236 	adr	x22, 711cd <__bss_size+0x70fab>
     b8c:	32303730 	orr	w16, w25, #0x3fff0000
     b90:	39342b65 	strb	w5, [x27, #3338]
     b94:	31463233 	adds	w19, w17, #0x18c, lsl #12
     b98:	5f003832 	.inst	0x5f003832 ; undefined
     b9c:	4e49555f 	.inst	0x4e49555f ; undefined
     ba0:	58414d54 	ldr	x20, 83548 <main+0x670>
     ba4:	58414d5f 	ldr	xzr, 8354c <main+0x674>
     ba8:	30205f5f 	adr	xzr, 41791 <__bss_size+0x4156f>
     bac:	66666678 	.inst	0x66666678 ; undefined
     bb0:	66666666 	.inst	0x66666666 ; undefined
     bb4:	66666666 	.inst	0x66666666 ; undefined
     bb8:	66666666 	.inst	0x66666666 ; undefined
     bbc:	004c5566 	.inst	0x004c5566 ; undefined
     bc0:	49535f5f 	.inst	0x49535f5f ; undefined
     bc4:	464f455a 	.inst	0x464f455a ; undefined
     bc8:	5254505f 	.inst	0x5254505f ; undefined
     bcc:	46464944 	.inst	0x46464944 ; undefined
     bd0:	5f5f545f 	shl	d31, d2, #31
     bd4:	5f003820 	.inst	0x5f003820 ; undefined
     bd8:	544e495f 	bc.nv	9d500 <_end+0x143f0>
     bdc:	41454c5f 	.inst	0x41454c5f ; undefined
     be0:	36315453 	tbz	w19, #6, 3668 <__bss_size+0x3446>
     be4:	4449575f 	smlslt	z31.h, z26.b, z9.b
     be8:	5f5f4854 	.inst	0x5f5f4854 ; undefined
     bec:	00363120 	.inst	0x00363120 ; NYI
     bf0:	5f585541 	shl	d1, d10, #24
     bf4:	4d5f554d 	.inst	0x4d5f554d ; undefined
     bf8:	28205243 	stnp	w3, w20, [x18, #-256]
     bfc:	6c6f7628 	ldnp	d8, d29, [x17, #-272]
     c00:	6c697461 	ldnp	d1, d29, [x3, #-368]
     c04:	6e752065 	usubl2	v5.4s, v3.8h, v21.8h
     c08:	6e676973 	.inst	0x6e676973 ; undefined
     c0c:	69206465 	stgp	x5, x25, [x3, #-1024]
     c10:	292a746e 	stp	w14, w29, [x3, #-176]
     c14:	494d4d28 	.inst	0x494d4d28 ; undefined
     c18:	41425f4f 	.inst	0x41425f4f ; undefined
     c1c:	2b204553 	adds	w19, w10, w0, uxtw #1
     c20:	30783020 	adr	x0, f1225 <_end+0x68115>
     c24:	35313230 	cbnz	w16, 63268 <__bss_size+0x63046>
     c28:	29303530 	stp	w16, w13, [x9, #-128]
     c2c:	79730029 	ldrh	w9, [x1, #6528]
     c30:	685f636e 	.inst	0x685f636e ; undefined
     c34:	6c646e61 	ldnp	d1, d27, [x19, #-448]
     c38:	5f007265 	.inst	0x5f007265 ; undefined
     c3c:	4d52415f 	.inst	0x4d52415f ; undefined
     c40:	4145465f 	.inst	0x4145465f ; undefined
     c44:	45525554 	ssubwt	z20.h, z10.h, z18.b
     c48:	544f445f 	bc.nv	9f4d0 <_end+0x163c0>
     c4c:	444f5250 	smlslb	z16.h, z18.b, z15.b
     c50:	465f5f00 	.inst	0x465f5f00 ; undefined
     c54:	455f544c 	ssubwt	z12.h, z2.h, z31.b
     c58:	5f4c4156 	.inst	0x5f4c4156 ; undefined
     c5c:	4854454d 	ldxrh	w13, [x10]
     c60:	5f5f444f 	.inst	0x5f5f444f ; undefined
     c64:	50504700 	adr	x0, a1546 <_end+0x18436>
     c68:	28204455 	stnp	w21, w17, [x2, #-256]
     c6c:	6c6f7628 	ldnp	d8, d29, [x17, #-272]
     c70:	6c697461 	ldnp	d1, d29, [x3, #-368]
     c74:	6e752065 	usubl2	v5.4s, v3.8h, v21.8h
     c78:	6e676973 	.inst	0x6e676973 ; undefined
     c7c:	69206465 	stgp	x5, x25, [x3, #-1024]
     c80:	2a20746e 	orn	w14, w3, w0, lsl #29
     c84:	4d4d2829 	.inst	0x4d4d2829 ; undefined
     c88:	425f4f49 	.inst	0x425f4f49 ; undefined
     c8c:	20455341 	.inst	0x20455341 ; undefined
     c90:	7830202b 	ldeorh	w16, w11, [x1]
     c94:	30323030 	adr	x16, 65299 <__bss_size+0x65077>
     c98:	34393030 	cbz	w16, 7329c <__bss_size+0x7307a>
     c9c:	5f002929 	.inst	0x5f002929 ; undefined
     ca0:	544c465f 	bc.nv	99568 <_end+0x10458>
     ca4:	495f3436 	.inst	0x495f3436 ; undefined
     ca8:	45495f53 	usubwt	z19.h, z26.h, z9.b
     cac:	30365f43 	adr	x3, 6d895 <__bss_size+0x6d673>
     cb0:	5f393535 	.inst	0x5f393535 ; undefined
     cb4:	0032205f 	.inst	0x0032205f ; NYI
     cb8:	4c465f5f 	.inst	0x4c465f5f ; undefined
     cbc:	5f323354 	.inst	0x5f323354 ; undefined
     cc0:	5f534148 	.inst	0x5f534148 ; undefined
     cc4:	4f4e4544 	.inst	0x4f4e4544 ; undefined
     cc8:	5f5f4d52 	.inst	0x5f5f4d52 ; undefined
     ccc:	5f003120 	.inst	0x5f003120 ; undefined
     cd0:	5241415f 	.inst	0x5241415f ; undefined
     cd4:	34364843 	cbz	w3, 6d5dc <__bss_size+0x6d3ba>
     cd8:	4f4d435f 	.inst	0x4f4d435f ; undefined
     cdc:	5f4c4544 	.inst	0x5f4c4544 ; undefined
     ce0:	594e4954 	.inst	0x594e4954 ; undefined
     ce4:	5f005f5f 	.inst	0x5f005f5f ; undefined
     ce8:	4343475f 	.inst	0x4343475f ; undefined
     cec:	5641485f 	.inst	0x5641485f ; undefined
     cf0:	59535f45 	.inst	0x59535f45 ; undefined
     cf4:	435f434e 	.inst	0x435f434e ; undefined
     cf8:	41504d4f 	.inst	0x41504d4f ; undefined
     cfc:	415f4552 	.inst	0x415f4552 ; undefined
     d00:	535f444e 	.inst	0x535f444e ; undefined
     d04:	5f504157 	.inst	0x5f504157 ; undefined
     d08:	00312031 	.inst	0x00312031 ; NYI
     d0c:	4c465f5f 	.inst	0x4c465f5f ; undefined
     d10:	58343654 	ldr	x20, 693d8 <__bss_size+0x691b6>
     d14:	4e494d5f 	.inst	0x4e494d5f ; undefined
     d18:	5058455f 	adr	xzr, b15c2 <_end+0x284b2>
     d1c:	28205f5f 	stnp	wzr, w23, [x26, #-256]
     d20:	3336312d 	.inst	0x3336312d ; undefined
     d24:	00293138 	.inst	0x00293138 ; NYI
     d28:	52415f5f 	.inst	0x52415f5f ; undefined
     d2c:	52415f4d 	.inst	0x52415f4d ; undefined
     d30:	505f4843 	adr	x3, bf63a <_end+0x3652a>
     d34:	49464f52 	.inst	0x49464f52 ; undefined
     d38:	3620454c 	tbz	w12, #4, 15e0 <__bss_size+0x13be>
     d3c:	5f5f0035 	.inst	0x5f5f0035 ; undefined
     d40:	5f544c46 	.inst	0x5f544c46 ; undefined
     d44:	5f474944 	.inst	0x5f474944 ; undefined
     d48:	0036205f 	.inst	0x0036205f ; NYI
     d4c:	4e495f5f 	.inst	0x4e495f5f ; undefined
     d50:	41465f54 	.inst	0x41465f54 ; undefined
     d54:	36315453 	tbz	w19, #6, 37dc <__bss_size+0x35ba>
     d58:	4449575f 	smlslt	z31.h, z26.b, z9.b
     d5c:	5f5f4854 	.inst	0x5f5f4854 ; undefined
     d60:	00343620 	.inst	0x00343620 ; NYI
     d64:	4c465f5f 	.inst	0x4c465f5f ; undefined
     d68:	5f363154 	.inst	0x5f363154 ; undefined
     d6c:	544e414d 	b.le	9d594 <_end+0x14484>
     d70:	4749445f 	.inst	0x4749445f ; undefined
     d74:	31205f5f 	cmn	w26, #0x817
     d78:	5f5f0031 	.inst	0x5f5f0031 ; undefined
     d7c:	5f4d5241 	.inst	0x5f4d5241 ; undefined
     d80:	455a4953 	uaddwb	z19.h, z10.h, z26.b
     d84:	4d5f464f 	.inst	0x4d5f464f ; undefined
     d88:	4d494e49 	.inst	0x4d494e49 ; undefined
     d8c:	455f4c41 	uaddwt	z1.h, z2.h, z31.b
     d90:	204d554e 	.inst	0x204d554e ; undefined
     d94:	5f5f0034 	.inst	0x5f5f0034 ; undefined
     d98:	544e4955 	bc.pl	9d6c0 <_end+0x145b0>  // bc.nfrst
     d9c:	5f525450 	shl	d16, d2, #18
     da0:	5f58414d 	.inst	0x5f58414d ; undefined
     da4:	7830205f 	steorh	w16, [x2]
     da8:	66666666 	.inst	0x66666666 ; undefined
     dac:	66666666 	.inst	0x66666666 ; undefined
     db0:	66666666 	.inst	0x66666666 ; undefined
     db4:	66666666 	.inst	0x66666666 ; undefined
     db8:	5f004c55 	.inst	0x5f004c55 ; undefined
     dbc:	544e495f 	bc.nv	9d6e4 <_end+0x145d4>
     dc0:	5f58414d 	.inst	0x5f58414d ; undefined
     dc4:	5f58414d 	.inst	0x5f58414d ; undefined
     dc8:	7830205f 	steorh	w16, [x2]
     dcc:	66666637 	.inst	0x66666637 ; undefined
     dd0:	66666666 	.inst	0x66666666 ; undefined
     dd4:	66666666 	.inst	0x66666666 ; undefined
     dd8:	66666666 	.inst	0x66666666 ; undefined
     ddc:	5f5f004c 	.inst	0x5f5f004c ; undefined
     de0:	5f434347 	.inst	0x5f434347 ; undefined
     de4:	5f434549 	.inst	0x5f434549 ; undefined
     de8:	20393535 	.inst	0x20393535 ; undefined
     dec:	5f5f0032 	.inst	0x5f5f0032 ; undefined
     df0:	31544c46 	adds	w6, w2, #0x513, lsl #12
     df4:	4d5f3832 	.inst	0x4d5f3832 ; undefined
     df8:	455f4e49 	uaddwt	z9.h, z18.h, z31.b
     dfc:	5f5f5058 	.inst	0x5f5f5058 ; undefined
     e00:	312d2820 	adds	w0, w1, #0xb4a
     e04:	31383336 	adds	w22, w25, #0xe0c
     e08:	5f5f0029 	.inst	0x5f5f0029 ; undefined
     e0c:	33544c46 	.inst	0x33544c46 ; undefined
     e10:	41485f32 	.inst	0x41485f32 ; undefined
     e14:	55515f53 	.inst	0x55515f53 ; undefined
     e18:	5f544549 	.inst	0x5f544549 ; undefined
     e1c:	5f4e414e 	.inst	0x5f4e414e ; undefined
     e20:	0031205f 	.inst	0x0031205f ; NYI
     e24:	49555f5f 	.inst	0x49555f5f ; undefined
     e28:	4c5f544e 	.inst	0x4c5f544e ; undefined
     e2c:	54534145 	b.pl	a7654 <_end+0x1e544>  // b.nfrst
     e30:	4d5f3631 	.inst	0x4d5f3631 ; undefined
     e34:	5f5f5841 	.inst	0x5f5f5841 ; undefined
     e38:	66783020 	.inst	0x66783020 ; undefined
     e3c:	00666666 	.inst	0x00666666 ; undefined
     e40:	49555f5f 	.inst	0x49555f5f ; undefined
     e44:	465f544e 	.inst	0x465f544e ; undefined
     e48:	36545341 	tbz	w1, #10, ffffffffffff98b0 <_end+0xfffffffffff707a0>
     e4c:	414d5f34 	.inst	0x414d5f34 ; undefined
     e50:	205f5f58 	.inst	0x205f5f58 ; undefined
     e54:	66667830 	.inst	0x66667830 ; undefined
     e58:	66666666 	.inst	0x66666666 ; undefined
     e5c:	66666666 	.inst	0x66666666 ; undefined
     e60:	66666666 	.inst	0x66666666 ; undefined
     e64:	4c556666 	.inst	0x4c556666 ; undefined
     e68:	475f5f00 	.inst	0x475f5f00 ; undefined
     e6c:	5f43554e 	shl	d14, d10, #3
     e70:	3131205f 	cmn	w2, #0xc48
     e74:	415f5f00 	.inst	0x415f5f00 ; undefined
     e78:	465f4d52 	.inst	0x465f4d52 ; undefined
     e7c:	55544145 	.inst	0x55544145 ; undefined
     e80:	535f4552 	.inst	0x535f4552 ; undefined
     e84:	00324148 	.inst	0x00324148 ; NYI
     e88:	444c5f5f 	umlslt	z31.h, z26.b, z12.b
     e8c:	445f4c42 	umlalt	z2.h, z2.b, z31.b
     e90:	5f5f4749 	.inst	0x5f5f4749 ; undefined
     e94:	00333320 	.inst	0x00333320 ; NYI
     e98:	49555f5f 	.inst	0x49555f5f ; undefined
     e9c:	4c5f544e 	.inst	0x4c5f544e ; undefined
     ea0:	54534145 	b.pl	a76c8 <_end+0x1e5b8>  // b.nfrst
     ea4:	414d5f38 	.inst	0x414d5f38 ; undefined
     ea8:	205f5f58 	.inst	0x205f5f58 ; undefined
     eac:	66667830 	.inst	0x66667830 ; undefined
     eb0:	415f5f00 	.inst	0x415f5f00 ; undefined
     eb4:	465f4d52 	.inst	0x465f4d52 ; undefined
     eb8:	55544145 	.inst	0x55544145 ; undefined
     ebc:	535f4552 	.inst	0x535f4552 ; undefined
     ec0:	4d5f4556 	.inst	0x4d5f4556 ; undefined
     ec4:	554d5441 	.inst	0x554d5441 ; undefined
     ec8:	4e495f4c 	.inst	0x4e495f4c ; undefined
     ecc:	69003854 	stgp	x20, x14, [x2]
     ed0:	685f7172 	.inst	0x685f7172 ; undefined
     ed4:	6c646e61 	ldnp	d1, d27, [x19, #-448]
     ed8:	5f007265 	.inst	0x5f007265 ; undefined
     edc:	544e495f 	bc.nv	9d804 <_end+0x146f4>
     ee0:	414d5f38 	.inst	0x414d5f38 ; undefined
     ee4:	205f5f58 	.inst	0x205f5f58 ; undefined
     ee8:	66377830 	.inst	0x66377830 ; undefined
     eec:	475f5f00 	.inst	0x475f5f00 ; undefined
     ef0:	485f4343 	ldxrh	w3, [x26]
     ef4:	5f455641 	shl	d1, d18, #5
     ef8:	434e5953 	.inst	0x434e5953 ; undefined
     efc:	4d4f435f 	.inst	0x4d4f435f ; undefined
     f00:	45524150 	saddwb	z16.h, z10.h, z18.b
     f04:	444e415f 	smlalb	z31.h, z10.b, z14.b
     f08:	4157535f 	.inst	0x4157535f ; undefined
     f0c:	20345f50 	.inst	0x20345f50 ; undefined
     f10:	5f5f0031 	.inst	0x5f5f0031 ; undefined
     f14:	5f544c46 	.inst	0x5f544c46 ; undefined
     f18:	4c415645 	.inst	0x4c415645 ; undefined
     f1c:	54454d5f 	bc.nv	8b8c4 <_end+0x27b4>
     f20:	5f444f48 	.inst	0x5f444f48 ; undefined
     f24:	5f393943 	.inst	0x5f393943 ; undefined
     f28:	0030205f 	.inst	0x0030205f ; NYI
     f2c:	454c5047 	ssubwb	z7.h, z2.h, z12.b
     f30:	28203156 	stnp	w22, w12, [x10, #-256]
     f34:	6c6f7628 	ldnp	d8, d29, [x17, #-272]
     f38:	6c697461 	ldnp	d1, d29, [x3, #-368]
     f3c:	6e752065 	usubl2	v5.4s, v3.8h, v21.8h
     f40:	6e676973 	.inst	0x6e676973 ; undefined
     f44:	69206465 	stgp	x5, x25, [x3, #-1024]
     f48:	2a20746e 	orn	w14, w3, w0, lsl #29
     f4c:	4d4d2829 	.inst	0x4d4d2829 ; undefined
     f50:	425f4f49 	.inst	0x425f4f49 ; undefined
     f54:	20455341 	.inst	0x20455341 ; undefined
     f58:	7830202b 	ldeorh	w16, w11, [x1]
     f5c:	30323030 	adr	x16, 65561 <__bss_size+0x6533f>
     f60:	38333030 	ldsetb	w19, w16, [x1]
     f64:	5f002929 	.inst	0x5f002929 ; undefined
     f68:	544c465f 	bc.nv	99830 <_end+0x10720>
     f6c:	5f383231 	.inst	0x5f383231 ; undefined
     f70:	5f58414d 	.inst	0x5f58414d ; undefined
     f74:	5f505845 	.inst	0x5f505845 ; undefined
     f78:	3631205f 	tbz	wzr, #6, 3380 <__bss_size+0x315e>
     f7c:	00343833 	.inst	0x00343833 ; NYI
     f80:	4c465f5f 	.inst	0x4c465f5f ; undefined
     f84:	41525f54 	.inst	0x41525f54 ; undefined
     f88:	5f584944 	.inst	0x5f584944 ; undefined
     f8c:	0032205f 	.inst	0x0032205f ; NYI
     f90:	4c465f5f 	.inst	0x4c465f5f ; undefined
     f94:	58323354 	ldr	x20, 655fc <__bss_size+0x653da>
     f98:	4e45445f 	.inst	0x4e45445f ; undefined
     f9c:	5f4d524f 	.inst	0x5f4d524f ; undefined
     fa0:	5f4e494d 	.inst	0x5f4e494d ; undefined
     fa4:	2e34205f 	usubl	v31.8h, v2.8b, v20.8b
     fa8:	36303439 	tbz	w25, #6, 162c <__bss_size+0x140a>
     fac:	35343635 	cbnz	w21, 69670 <__bss_size+0x6944e>
     fb0:	32313438 	orr	w24, w1, #0x1fff8000
     fb4:	34353634 	cbz	w20, 6b678 <__bss_size+0x6b456>
     fb8:	36373134 	tbz	w20, #6, fffffffffffff5dc <_end+0xfffffffffff764cc>
     fbc:	37383635 	tbnz	w21, #7, 1680 <__bss_size+0x145e>
     fc0:	36383239 	tbz	w25, #7, 1604 <__bss_size+0x13e2>
     fc4:	31323238 	adds	w24, w17, #0xc8c
     fc8:	65323733 	.inst	0x65323733 ; undefined
     fcc:	3432332d 	cbz	w13, 65630 <__bss_size+0x6540e>
     fd0:	78323346 	ldseth	w18, w6, [x26]
     fd4:	535f5f00 	.inst	0x535f5f00 ; undefined
     fd8:	4f455a49 	.inst	0x4f455a49 ; undefined
     fdc:	4f4c5f46 	.inst	0x4f4c5f46 ; undefined
     fe0:	445f474e 	smlalt	z14.h, z26.b, z31.b
     fe4:	4c42554f 	.inst	0x4c42554f ; undefined
     fe8:	205f5f45 	.inst	0x205f5f45 ; undefined
     fec:	5f003631 	.inst	0x5f003631 ; undefined
     ff0:	4c42445f 	.inst	0x4c42445f ; undefined
     ff4:	5341485f 	.inst	0x5341485f ; undefined
     ff8:	4955515f 	.inst	0x4955515f ; undefined
     ffc:	4e5f5445 	.inst	0x4e5f5445 ; undefined
    1000:	5f5f4e41 	.inst	0x5f5f4e41 ; undefined
    1004:	5f003120 	.inst	0x5f003120 ; undefined
    1008:	544c465f 	bc.nv	998d0 <_end+0x107c0>
    100c:	5f583436 	srsra	d22, d1, #40
    1010:	495f5349 	.inst	0x495f5349 ; undefined
    1014:	365f4345 	tbz	w5, #11, fffffffffffff87c <_end+0xfffffffffff7676c>
    1018:	39353530 	strb	w16, [x9, #3405]
    101c:	32205f5f 	orr	wsp, w26, #0xffffff
    1020:	465f5f00 	.inst	0x465f5f00 ; undefined
    1024:	3436544c 	cbz	w12, 6daac <__bss_size+0x6d88a>
    1028:	5341485f 	.inst	0x5341485f ; undefined
    102c:	464e495f 	.inst	0x464e495f ; undefined
    1030:	54494e49 	b.ls	939f8 <_end+0xa8e8>  // b.plast
    1034:	205f5f59 	.inst	0x205f5f59 ; undefined
    1038:	5f5f0031 	.inst	0x5f5f0031 ; undefined
    103c:	544e4955 	bc.pl	9d964 <_end+0x14854>  // bc.nfrst
    1040:	5341465f 	.inst	0x5341465f ; undefined
    1044:	4d5f3854 	.inst	0x4d5f3854 ; undefined
    1048:	5f5f5841 	.inst	0x5f5f5841 ; undefined
    104c:	66783020 	.inst	0x66783020 ; undefined
    1050:	5f5f0066 	.inst	0x5f5f0066 ; undefined
    1054:	4c42444c 	.inst	0x4c42444c ; undefined
    1058:	58414d5f 	ldr	xzr, 83a00 <main+0xb28>
    105c:	5058455f 	adr	xzr, b1906 <_end+0x287f6>
    1060:	31205f5f 	cmn	w26, #0x817
    1064:	34383336 	cbz	w22, 716c8 <__bss_size+0x714a6>
    1068:	495f5f00 	.inst	0x495f5f00 ; undefined
    106c:	5450544e 	b.al	a1af4 <_end+0x189e4>
    1070:	59545f52 	.inst	0x59545f52 ; undefined
    1074:	5f5f4550 	.inst	0x5f5f4550 ; undefined
    1078:	6e6f6c20 	umin	v0.8h, v1.8h, v15.8h
    107c:	6e692067 	usubl2	v7.4s, v3.8h, v9.8h
    1080:	5f5f0074 	.inst	0x5f5f0074 ; undefined
    1084:	5f4d5241 	.inst	0x5f4d5241 ; undefined
    1088:	54414546 	b.vs	83930 <main+0xa58>
    108c:	5f455255 	.inst	0x5f455255 ; undefined
    1090:	56494449 	.inst	0x56494449 ; undefined
    1094:	5f003120 	.inst	0x5f003120 ; undefined
    1098:	4843575f 	ldxrh	wzr, [x26]
    109c:	4d5f5241 	.inst	0x4d5f5241 ; undefined
    10a0:	5f5f4e49 	.inst	0x5f5f4e49 ; undefined
    10a4:	00553020 	.inst	0x00553020 ; undefined
    10a8:	42414e45 	.inst	0x42414e45 ; undefined
    10ac:	495f454c 	.inst	0x495f454c ; undefined
    10b0:	5f535152 	.inst	0x5f535152 ; undefined
    10b4:	28282031 	stnp	w17, w8, [x1, #-192]
    10b8:	616c6f76 	.inst	0x616c6f76 ; undefined
    10bc:	656c6974 	fnmls	z20.h, p2/m, z11.h, z12.h
    10c0:	736e7520 	.inst	0x736e7520 ; undefined
    10c4:	656e6769 	fnmls	z9.h, p1/m, z27.h, z14.h
    10c8:	6e692064 	usubl2	v4.4s, v3.8h, v9.8h
    10cc:	292a2074 	stp	w20, w8, [x3, #-176]
    10d0:	494d4d28 	.inst	0x494d4d28 ; undefined
    10d4:	41425f4f 	.inst	0x41425f4f ; undefined
    10d8:	2b204553 	adds	w19, w10, w0, uxtw #1
    10dc:	30783020 	adr	x0, f16e1 <_end+0x685d1>
    10e0:	42303030 	.inst	0x42303030 ; undefined
    10e4:	29303132 	stp	w18, w12, [x9, #-128]
    10e8:	5f5f0029 	.inst	0x5f5f0029 ; undefined
    10ec:	5f544e49 	.inst	0x5f544e49 ; undefined
    10f0:	5341454c 	.inst	0x5341454c ; undefined
    10f4:	5f343654 	.inst	0x5f343654 ; undefined
    10f8:	54444957 	bc.vc	89a20 <_end+0x910>
    10fc:	205f5f48 	.inst	0x205f5f48 ; undefined
    1100:	5f003436 	.inst	0x5f003436 ; undefined
    1104:	544c465f 	bc.nv	999cc <_end+0x108bc>
    1108:	4d5f3436 	.inst	0x4d5f3436 ; undefined
    110c:	315f5841 	adds	w1, w2, #0x7d6, lsl #12
    1110:	58455f30 	ldr	x16, 8bcf4 <_end+0x2be4>
    1114:	205f5f50 	.inst	0x205f5f50 ; undefined
    1118:	00383033 	.inst	0x00383033 ; NYI
    111c:	524f5f5f 	.inst	0x524f5f5f ; undefined
    1120:	5f524544 	.inst	0x5f524544 ; undefined
    1124:	5454494c 	b.gt	a9a4c <_end+0x2093c>
    1128:	455f454c 	saddwt	z12.h, z10.h, z31.b
    112c:	4149444e 	.inst	0x4149444e ; undefined
    1130:	205f5f4e 	.inst	0x205f5f4e ; undefined
    1134:	34333231 	cbz	w17, 67778 <__bss_size+0x67556>
    1138:	415f5f00 	.inst	0x415f5f00 ; undefined
    113c:	465f4d52 	.inst	0x465f4d52 ; undefined
    1140:	55544145 	.inst	0x55544145 ; undefined
    1144:	555f4552 	.inst	0x555f4552 ; undefined
    1148:	494c414e 	.inst	0x494c414e ; undefined
    114c:	44454e47 	umlalt	z7.h, z18.b, z5.b
    1150:	5f003120 	.inst	0x5f003120 ; undefined
    1154:	544e495f 	bc.nv	9da7c <_end+0x1496c>
    1158:	545f3233 	bc.cc	bf79c <_end+0x3668c>  // bc.lo, bc.ul, bc.last
    115c:	5f455059 	.inst	0x5f455059 ; undefined
    1160:	6e69205f 	usubl2	v31.4s, v2.8h, v9.8h
    1164:	5f5f0074 	.inst	0x5f5f0074 ; undefined
    1168:	36544c46 	tbz	w6, #10, ffffffffffff9af0 <_end+0xfffffffffff709e0>
    116c:	445f5834 	umlslb	z20.h, z1.b, z31.b
    1170:	5f5f4749 	.inst	0x5f5f4749 ; undefined
    1174:	00333320 	.inst	0x00333320 ; NYI
    1178:	4c465f5f 	.inst	0x4c465f5f ; undefined
    117c:	58343654 	ldr	x20, 69844 <__bss_size+0x69622>
    1180:	5341485f 	.inst	0x5341485f ; undefined
    1184:	4e45445f 	.inst	0x4e45445f ; undefined
    1188:	5f4d524f 	.inst	0x5f4d524f ; undefined
    118c:	0031205f 	.inst	0x0031205f ; NYI
    1190:	52415f5f 	.inst	0x52415f5f ; undefined
    1194:	34365f4d 	cbz	w13, 6dd7c <__bss_size+0x6db5a>
    1198:	5f544942 	.inst	0x5f544942 ; undefined
    119c:	54415453 	bc.cc	83c24 <main+0xd4c>  // bc.lo, bc.ul, bc.last
    11a0:	00312045 	.inst	0x00312045 ; NYI
    11a4:	5f585541 	shl	d1, d10, #24
    11a8:	42414e45 	.inst	0x42414e45 ; undefined
    11ac:	2820454c 	stnp	w12, w17, [x10, #-256]
    11b0:	6c6f7628 	ldnp	d8, d29, [x17, #-272]
    11b4:	6c697461 	ldnp	d1, d29, [x3, #-368]
    11b8:	6e752065 	usubl2	v5.4s, v3.8h, v21.8h
    11bc:	6e676973 	.inst	0x6e676973 ; undefined
    11c0:	69206465 	stgp	x5, x25, [x3, #-1024]
    11c4:	292a746e 	stp	w14, w29, [x3, #-176]
    11c8:	494d4d28 	.inst	0x494d4d28 ; undefined
    11cc:	41425f4f 	.inst	0x41425f4f ; undefined
    11d0:	2b204553 	adds	w19, w10, w0, uxtw #1
    11d4:	30783020 	adr	x0, f17d9 <_end+0x686c9>
    11d8:	35313230 	cbnz	w16, 6381c <__bss_size+0x635fa>
    11dc:	29343030 	stp	w16, w12, [x1, #-96]
    11e0:	5f5f0029 	.inst	0x5f5f0029 ; undefined
    11e4:	5f4d5241 	.inst	0x5f4d5241 ; undefined
    11e8:	54414546 	b.vs	83a90 <main+0xbb8>
    11ec:	5f455255 	.inst	0x5f455255 ; undefined
    11f0:	00334d53 	.inst	0x00334d53 ; NYI
    11f4:	52415f5f 	.inst	0x52415f5f ; undefined
    11f8:	45465f4d 	usubwt	z13.h, z26.h, z6.b
    11fc:	52555441 	.inst	0x52555441 ; undefined
    1200:	4d535f45 	.inst	0x4d535f45 ; undefined
    1204:	5f5f0034 	.inst	0x5f5f0034 ; undefined
    1208:	31544c46 	adds	w6, w2, #0x513, lsl #12
    120c:	45445f36 	usubwt	z22.h, z25.h, z4.b
    1210:	4d524f4e 	.inst	0x4d524f4e ; undefined
    1214:	4e494d5f 	.inst	0x4e494d5f ; undefined
    1218:	35205f5f 	cbnz	wzr, 41e00 <__bss_size+0x41bde>
    121c:	3036392e 	adr	x14, 6d941 <__bss_size+0x6d71f>
    1220:	34343634 	cbz	w20, 698e4 <__bss_size+0x696c2>
    1224:	33353737 	.inst	0x33353737 ; undefined
    1228:	32363039 	orr	w25, w1, #0x7ffc00
    122c:	30303035 	adr	x21, 61831 <__bss_size+0x6160f>
    1230:	30303030 	adr	x16, 61835 <__bss_size+0x61613>
    1234:	30303030 	adr	x16, 61839 <__bss_size+0x61617>
    1238:	30303030 	adr	x16, 6183d <__bss_size+0x6161b>
    123c:	30303030 	adr	x16, 61841 <__bss_size+0x6161f>
    1240:	46382d65 	.inst	0x46382d65 ; undefined
    1244:	5f003631 	.inst	0x5f003631 ; undefined
    1248:	544c465f 	bc.nv	99b10 <_end+0x10a00>
    124c:	5f583436 	srsra	d22, d1, #40
    1250:	5f4e494d 	.inst	0x5f4e494d ; undefined
    1254:	455f3031 	sabdlb	z17.h, z1.b, z31.b
    1258:	5f5f5058 	.inst	0x5f5f5058 ; undefined
    125c:	342d2820 	cbz	w0, 5b760 <__bss_size+0x5b53e>
    1260:	29313339 	stp	w25, w12, [x25, #-120]
    1264:	52415500 	.inst	0x52415500 ; undefined
    1268:	445f3054 	sqrdcmlah	z20.h, z2.h, z31.h, #0
    126c:	28282052 	stnp	w18, w8, [x2, #-192]
    1270:	616c6f76 	.inst	0x616c6f76 ; undefined
    1274:	656c6974 	fnmls	z20.h, p2/m, z11.h, z12.h
    1278:	736e7520 	.inst	0x736e7520 ; undefined
    127c:	656e6769 	fnmls	z9.h, p1/m, z27.h, z14.h
    1280:	6e692064 	usubl2	v4.4s, v3.8h, v9.8h
    1284:	28292a74 	stnp	w20, w10, [x19, #-184]
    1288:	54524155 	bc.pl	a5ab0 <_end+0x1c9a0>  // bc.nfrst
    128c:	41425f30 	.inst	0x41425f30 ; undefined
    1290:	2b204553 	adds	w19, w10, w0, uxtw #1
    1294:	30783020 	adr	x0, f1899 <_end+0x68789>
    1298:	00292930 	.inst	0x00292930 ; NYI
    129c:	41485f5f 	.inst	0x41485f5f ; undefined
    12a0:	535f4556 	.inst	0x535f4556 ; undefined
    12a4:	55434550 	.inst	0x55434550 ; undefined
    12a8:	4954414c 	.inst	0x4954414c ; undefined
    12ac:	535f4e4f 	.inst	0x535f4e4f ; undefined
    12b0:	5f454641 	.inst	0x5f454641 ; undefined
    12b4:	554c4156 	.inst	0x554c4156 ; undefined
    12b8:	00312045 	.inst	0x00312045 ; NYI
    12bc:	52415f5f 	.inst	0x52415f5f ; undefined
    12c0:	52415f4d 	.inst	0x52415f4d ; undefined
    12c4:	385f4843 	ldtrb	w3, [x2, #-12]
    12c8:	00312041 	.inst	0x00312041 ; NYI
    12cc:	4c465f5f 	.inst	0x4c465f5f ; undefined
    12d0:	38323154 	ldsetb	w18, w20, [x10]
    12d4:	58414d5f 	ldr	xzr, 83c7c <main+0xda4>
    12d8:	5f30315f 	.inst	0x5f30315f ; undefined
    12dc:	5f505845 	.inst	0x5f505845 ; undefined
    12e0:	3934205f 	strb	wzr, [x2, #3336]
    12e4:	5f003233 	.inst	0x5f003233 ; undefined
    12e8:	544c465f 	bc.nv	99bb0 <_end+0x10aa0>
    12ec:	5f383231 	.inst	0x5f383231 ; undefined
    12f0:	5f4e494d 	.inst	0x5f4e494d ; undefined
    12f4:	2e33205f 	usubl	v31.8h, v2.8b, v19.8b
    12f8:	31323633 	adds	w19, w17, #0xc8d
    12fc:	34313330 	cbz	w16, 63960 <__bss_size+0x6373e>
    1300:	32313133 	orr	w19, w9, #0xfff8000
    1304:	35333930 	cbnz	w16, 67a28 <__bss_size+0x67806>
    1308:	36323630 	tbz	w16, #6, 59cc <__bss_size+0x57aa>
    130c:	37373632 	tbnz	w18, #6, fffffffffffff9d0 <_end+0xfffffffffff768c0>
    1310:	33373138 	.inst	0x33373138 ; undefined
    1314:	35373132 	cbnz	w18, 6f938 <__bss_size+0x6f716>
    1318:	65303632 	.inst	0x65303632 ; undefined
    131c:	3339342d 	.inst	0x3339342d ; undefined
    1320:	32314632 	orr	w18, w17, #0xffff8001
    1324:	5f5f0038 	.inst	0x5f5f0038 ; undefined
    1328:	5f544e49 	.inst	0x5f544e49 ; undefined
    132c:	54534146 	b.vs	a7b54 <_end+0x1ea44>
    1330:	49575f38 	.inst	0x49575f38 ; undefined
    1334:	5f485444 	shl	d4, d2, #8
    1338:	0038205f 	.inst	0x0038205f ; NYI
    133c:	4c465f5f 	.inst	0x4c465f5f ; undefined
    1340:	5f343654 	.inst	0x5f343654 ; undefined
    1344:	5f4e494d 	.inst	0x5f4e494d ; undefined
    1348:	455f3031 	sabdlb	z17.h, z1.b, z31.b
    134c:	5f5f5058 	.inst	0x5f5f5058 ; undefined
    1350:	332d2820 	.inst	0x332d2820 ; undefined
    1354:	00293730 	.inst	0x00293730 ; NYI
    1358:	4e495f5f 	.inst	0x4e495f5f ; undefined
    135c:	414d5f54 	.inst	0x414d5f54 ; undefined
    1360:	205f5f58 	.inst	0x205f5f58 ; undefined
    1364:	66377830 	.inst	0x66377830 ; undefined
    1368:	66666666 	.inst	0x66666666 ; undefined
    136c:	5f006666 	.inst	0x5f006666 ; undefined
    1370:	4c42445f 	.inst	0x4c42445f ; undefined
    1374:	58414d5f 	ldr	xzr, 83d1c <main+0xe44>
    1378:	28205f5f 	stnp	wzr, w23, [x26, #-256]
    137c:	756f6428 	.inst	0x756f6428 ; undefined
    1380:	29656c62 	ldp	w2, w27, [x3, #-216]
    1384:	39372e31 	strb	w17, [x17, #3531]
    1388:	33393637 	.inst	0x33393637 ; undefined
    138c:	38343331 	ldsetb	w20, w17, [x25]
    1390:	31333236 	adds	w22, w17, #0xccc
    1394:	38303735 	.inst	0x38303735 ; undefined
    1398:	32353431 	orr	w17, w1, #0x1fff800
    139c:	33323437 	.inst	0x33323437 ; undefined
    13a0:	37313337 	tbnz	w23, #6, 3a04 <__bss_size+0x37e2>
    13a4:	35333430 	cbnz	w16, 67a28 <__bss_size+0x67806>
    13a8:	332b6537 	.inst	0x332b6537 ; undefined
    13ac:	294c3830 	ldp	w16, w14, [x1, #96]
    13b0:	415f5f00 	.inst	0x415f5f00 ; undefined
    13b4:	465f4d52 	.inst	0x465f4d52 ; undefined
    13b8:	55544145 	.inst	0x55544145 ; undefined
    13bc:	535f4552 	.inst	0x535f4552 ; undefined
    13c0:	4d5f4556 	.inst	0x4d5f4556 ; undefined
    13c4:	554d5441 	.inst	0x554d5441 ; undefined
    13c8:	50465f4c 	adr	x12, 8dfb2 <_end+0x4ea2>
    13cc:	5f003436 	.inst	0x5f003436 ; undefined
    13d0:	5f50465f 	.inst	0x5f50465f ; undefined
    13d4:	54534146 	b.vs	a7bfc <_end+0x1eaec>
    13d8:	414d465f 	.inst	0x414d465f ; undefined
    13dc:	78323346 	ldseth	w18, w6, [x26]
    13e0:	5f003120 	.inst	0x5f003120 ; undefined
    13e4:	4d52415f 	.inst	0x4d52415f ; undefined
    13e8:	4145465f 	.inst	0x4145465f ; undefined
    13ec:	45525554 	ssubwt	z20.h, z10.h, z18.b
    13f0:	4341505f 	.inst	0x4341505f ; undefined
    13f4:	4645445f 	.inst	0x4645445f ; undefined
    13f8:	544c5541 	b.ne	99ea0 <_end+0x10d90>  // b.any
    13fc:	465f5f00 	.inst	0x465f5f00 ; undefined
    1400:	3631544c 	tbz	w12, #6, 3e88 <__bss_size+0x3c66>
    1404:	4e494d5f 	.inst	0x4e494d5f ; undefined
    1408:	5058455f 	adr	xzr, b1cb2 <_end+0x28ba2>
    140c:	28205f5f 	stnp	wzr, w23, [x26, #-256]
    1410:	2933312d 	stp	w13, w12, [x9, #-104]
    1414:	465f5f00 	.inst	0x465f5f00 ; undefined
    1418:	3233544c 	orr	w12, w2, #0xffffe007
    141c:	4345445f 	.inst	0x4345445f ; undefined
    1420:	4c414d49 	.inst	0x4c414d49 ; undefined
    1424:	4749445f 	.inst	0x4749445f ; undefined
    1428:	39205f5f 	strb	wzr, [x26, #2071]
    142c:	465f5f00 	.inst	0x465f5f00 ; undefined
    1430:	3231544c 	orr	w12, w2, #0xffff801f
    1434:	49445f38 	.inst	0x49445f38 ; undefined
    1438:	205f5f47 	.inst	0x205f5f47 ; undefined
    143c:	5f003333 	.inst	0x5f003333 ; undefined
    1440:	4e49555f 	.inst	0x4e49555f ; undefined
    1444:	5f363154 	.inst	0x5f363154 ; undefined
    1448:	45505954 	usubwb	z20.h, z10.h, z16.b
    144c:	73205f5f 	.inst	0x73205f5f ; undefined
    1450:	74726f68 	.inst	0x74726f68 ; undefined
    1454:	736e7520 	.inst	0x736e7520 ; undefined
    1458:	656e6769 	fnmls	z9.h, p1/m, z27.h, z14.h
    145c:	6e692064 	usubl2	v4.4s, v3.8h, v9.8h
    1460:	5f5f0074 	.inst	0x5f5f0074 ; undefined
    1464:	4c42444c 	.inst	0x4c42444c ; undefined
    1468:	58414d5f 	ldr	xzr, 83e10 <main+0xf38>
    146c:	31205f5f 	cmn	w26, #0x817
    1470:	3938312e 	strb	w14, [x9, #3596]
    1474:	34313337 	cbz	w23, 63ad8 <__bss_size+0x638b6>
    1478:	35333539 	cbnz	w25, 67b1c <__bss_size+0x678fa>
    147c:	31333237 	adds	w23, w17, #0xccc
    1480:	30353637 	adr	x23, 6bb45 <__bss_size+0x6b923>
    1484:	35373538 	cbnz	w24, 6fb28 <__bss_size+0x6f906>
    1488:	36323339 	tbz	w25, #6, 5aec <__bss_size+0x58ca>
    148c:	30383236 	adr	x22, 71ad1 <__bss_size+0x718af>
    1490:	32303730 	orr	w16, w25, #0x3fff0000
    1494:	39342b65 	strb	w5, [x27, #3338]
    1498:	004c3233 	.inst	0x004c3233 ; undefined
    149c:	43575f5f 	.inst	0x43575f5f ; undefined
    14a0:	5f524148 	.inst	0x5f524148 ; undefined
    14a4:	54444957 	bc.vc	89dcc <_end+0xcbc>
    14a8:	205f5f48 	.inst	0x205f5f48 ; undefined
    14ac:	5f003233 	.inst	0x5f003233 ; undefined
    14b0:	554e475f 	.inst	0x554e475f ; undefined
    14b4:	54535f43 	b.cc	a809c <_end+0x1ef8c>  // b.lo, b.ul, b.last
    14b8:	495f4344 	.inst	0x495f4344 ; undefined
    14bc:	4e494c4e 	.inst	0x4e494c4e ; undefined
    14c0:	205f5f45 	.inst	0x205f5f45 ; undefined
    14c4:	5f5f0031 	.inst	0x5f5f0031 ; undefined
    14c8:	5f4d5241 	.inst	0x5f4d5241 ; undefined
    14cc:	54414546 	b.vs	83d74 <main+0xe9c>
    14d0:	5f455255 	.inst	0x5f455255 ; undefined
    14d4:	205a4c43 	.inst	0x205a4c43 ; undefined
    14d8:	5f5f0031 	.inst	0x5f5f0031 ; undefined
    14dc:	474e4f4c 	.inst	0x474e4f4c ; undefined
    14e0:	4e4f4c5f 	.inst	0x4e4f4c5f ; undefined
    14e4:	414d5f47 	.inst	0x414d5f47 ; undefined
    14e8:	205f5f58 	.inst	0x205f5f58 ; undefined
    14ec:	66377830 	.inst	0x66377830 ; undefined
    14f0:	66666666 	.inst	0x66666666 ; undefined
    14f4:	66666666 	.inst	0x66666666 ; undefined
    14f8:	66666666 	.inst	0x66666666 ; undefined
    14fc:	4c4c6666 	.inst	0x4c4c6666 ; undefined
    1500:	415f5f00 	.inst	0x415f5f00 ; undefined
    1504:	415f4d52 	.inst	0x415f4d52 ; undefined
    1508:	4e47494c 	.inst	0x4e47494c ; undefined
    150c:	58414d5f 	ldr	xzr, 83eb4 <main+0xfdc>
    1510:	5257505f 	.inst	0x5257505f ; undefined
    1514:	00383220 	.inst	0x00383220 ; NYI
    1518:	49555f5f 	.inst	0x49555f5f ; undefined
    151c:	4c5f544e 	.inst	0x4c5f544e ; undefined
    1520:	54534145 	b.pl	a7d48 <_end+0x1ec38>  // b.nfrst
    1524:	545f3631 	bc.ne	bfbe8 <_end+0x36ad8>  // bc.any
    1528:	5f455059 	.inst	0x5f455059 ; undefined
    152c:	6873205f 	.inst	0x6873205f ; undefined
    1530:	2074726f 	.inst	0x2074726f ; undefined
    1534:	69736e75 	ldpsw	x21, x27, [x19, #-104]
    1538:	64656e67 	.inst	0x64656e67 ; undefined
    153c:	746e6920 	.inst	0x746e6920 ; undefined
    1540:	465f5f00 	.inst	0x465f5f00 ; undefined
    1544:	4d5f544c 	.inst	0x4d5f544c ; undefined
    1548:	315f5841 	adds	w1, w2, #0x7d6, lsl #12
    154c:	58455f30 	ldr	x16, 8c130 <_end+0x3020>
    1550:	205f5f50 	.inst	0x205f5f50 ; undefined
    1554:	5f003833 	.inst	0x5f003833 ; undefined
    1558:	42444c5f 	.inst	0x42444c5f ; undefined
    155c:	50455f4c 	adr	x12, 8c146 <_end+0x3036>
    1560:	4f4c4953 	.inst	0x4f4c4953 ; undefined
    1564:	205f5f4e 	.inst	0x205f5f4e ; undefined
    1568:	32392e31 	orr	w17, w17, #0x7ff80
    156c:	39323935 	strb	w21, [x9, #3214]
    1570:	33343439 	.inst	0x33343439 ; undefined
    1574:	33323738 	.inst	0x33323738 ; undefined
    1578:	33353835 	.inst	0x33353835 ; undefined
    157c:	39353530 	strb	w16, [x9, #3405]
    1580:	34393737 	cbz	w23, 73c64 <__bss_size+0x73a42>
    1584:	34383532 	cbz	w18, 71c28 <__bss_size+0x71a06>
    1588:	33373239 	.inst	0x33373239 ; undefined
    158c:	332d6532 	.inst	0x332d6532 ; undefined
    1590:	5f004c34 	.inst	0x5f004c34 ; undefined
    1594:	4e4f4c5f 	.inst	0x4e4f4c5f ; undefined
    1598:	414d5f47 	.inst	0x414d5f47 ; undefined
    159c:	205f5f58 	.inst	0x205f5f58 ; undefined
    15a0:	66377830 	.inst	0x66377830 ; undefined
    15a4:	66666666 	.inst	0x66666666 ; undefined
    15a8:	66666666 	.inst	0x66666666 ; undefined
    15ac:	66666666 	.inst	0x66666666 ; undefined
    15b0:	004c6666 	.inst	0x004c6666 ; undefined
    15b4:	4c465f5f 	.inst	0x4c465f5f ; undefined
    15b8:	58323354 	ldr	x20, 65c20 <__bss_size+0x659fe>
    15bc:	5350455f 	.inst	0x5350455f ; undefined
    15c0:	4e4f4c49 	.inst	0x4e4f4c49 ; undefined
    15c4:	32205f5f 	orr	wsp, w26, #0xffffff
    15c8:	3032322e 	adr	x14, 65c0d <__bss_size+0x659eb>
    15cc:	30363434 	adr	x20, 6dc51 <__bss_size+0x6da2f>
    15d0:	35323934 	cbnz	w20, 65cf4 <__bss_size+0x65ad2>
    15d4:	33313330 	.inst	0x33313330 ; undefined
    15d8:	38303830 	.inst	0x38303830 ; undefined
    15dc:	36323734 	tbz	w20, #6, 5cc0 <__bss_size+0x5a9e>
    15e0:	36333333 	tbz	w19, #6, 7c44 <__bss_size+0x7a22>
    15e4:	36313831 	tbz	w17, #6, 3ce8 <__bss_size+0x3ac6>
    15e8:	32363034 	orr	w20, w1, #0x7ffc00
    15ec:	36312d65 	tbz	w5, #6, 3b98 <__bss_size+0x3976>
    15f0:	78323346 	ldseth	w18, w6, [x26]
    15f4:	465f5f00 	.inst	0x465f5f00 ; undefined
    15f8:	3631544c 	tbz	w12, #6, 4080 <__bss_size+0x3e5e>
    15fc:	58414d5f 	ldr	xzr, 83fa4 <main+0x10cc>
    1600:	5058455f 	adr	xzr, b1eaa <_end+0x28d9a>
    1604:	31205f5f 	cmn	w26, #0x817
    1608:	41550036 	.inst	0x41550036 ; undefined
    160c:	5f305452 	.inst	0x5f305452 ; undefined
    1610:	28205243 	stnp	w3, w20, [x18, #-256]
    1614:	6c6f7628 	ldnp	d8, d29, [x17, #-272]
    1618:	6c697461 	ldnp	d1, d29, [x3, #-368]
    161c:	6e752065 	usubl2	v5.4s, v3.8h, v21.8h
    1620:	6e676973 	.inst	0x6e676973 ; undefined
    1624:	69206465 	stgp	x5, x25, [x3, #-1024]
    1628:	292a746e 	stp	w14, w29, [x3, #-176]
    162c:	52415528 	.inst	0x52415528 ; undefined
    1630:	425f3054 	.inst	0x425f3054 ; undefined
    1634:	20455341 	.inst	0x20455341 ; undefined
    1638:	7830202b 	ldeorh	w16, w11, [x1]
    163c:	29293033 	stp	w19, w12, [x1, #-184]
    1640:	50504700 	adr	x0, a1f22 <_end+0x18e12>
    1644:	4c434455 	.inst	0x4c434455 ; undefined
    1648:	2820304b 	stnp	w11, w12, [x2, #-256]
    164c:	6c6f7628 	ldnp	d8, d29, [x17, #-272]
    1650:	6c697461 	ldnp	d1, d29, [x3, #-368]
    1654:	6e752065 	usubl2	v5.4s, v3.8h, v21.8h
    1658:	6e676973 	.inst	0x6e676973 ; undefined
    165c:	69206465 	stgp	x5, x25, [x3, #-1024]
    1660:	2a20746e 	orn	w14, w3, w0, lsl #29
    1664:	4d4d2829 	.inst	0x4d4d2829 ; undefined
    1668:	425f4f49 	.inst	0x425f4f49 ; undefined
    166c:	20455341 	.inst	0x20455341 ; undefined
    1670:	7830202b 	ldeorh	w16, w11, [x1]
    1674:	30323030 	adr	x16, 65c79 <__bss_size+0x65a57>
    1678:	38393030 	ldsetb	w25, w16, [x1]
    167c:	5f002929 	.inst	0x5f002929 ; undefined
    1680:	5f4f4e5f 	.inst	0x5f4f4e5f ; undefined
    1684:	494c4e49 	.inst	0x494c4e49 ; undefined
    1688:	5f5f454e 	.inst	0x5f5f454e ; undefined
    168c:	5f003120 	.inst	0x5f003120 ; undefined
    1690:	544c465f 	bc.nv	99f58 <_end+0x10e48>
    1694:	4e414d5f 	.inst	0x4e414d5f ; undefined
    1698:	49445f54 	.inst	0x49445f54 ; undefined
    169c:	205f5f47 	.inst	0x205f5f47 ; undefined
    16a0:	5f003432 	.inst	0x5f003432 ; undefined
    16a4:	4553555f 	ssubwt	z31.h, z10.h, z19.b
    16a8:	414c5f52 	.inst	0x414c5f52 ; undefined
    16ac:	5f4c4542 	.inst	0x5f4c4542 ; undefined
    16b0:	46455250 	.inst	0x46455250 ; undefined
    16b4:	5f5f5849 	.inst	0x5f5f5849 ; undefined
    16b8:	5f5f0020 	.inst	0x5f5f0020 ; undefined
    16bc:	36544c46 	tbz	w6, #10, ffffffffffffa044 <_end+0xfffffffffff70f34>
    16c0:	45445f34 	usubwt	z20.h, z25.h, z4.b
    16c4:	414d4943 	.inst	0x414d4943 ; undefined
    16c8:	49445f4c 	.inst	0x49445f4c ; undefined
    16cc:	205f5f47 	.inst	0x205f5f47 ; undefined
    16d0:	5f003731 	.inst	0x5f003731 ; undefined
    16d4:	4745525f 	.inst	0x4745525f ; undefined
    16d8:	45545349 	ssubwb	z9.h, z26.h, z20.b
    16dc:	52505f52 	.inst	0x52505f52 ; undefined
    16e0:	58494645 	ldr	x5, 93fa8 <_end+0xae98>
    16e4:	00205f5f 	.inst	0x00205f5f ; NYI
    16e8:	4c465f5f 	.inst	0x4c465f5f ; undefined
    16ec:	5f323354 	.inst	0x5f323354 ; undefined
    16f0:	5f4e494d 	.inst	0x5f4e494d ; undefined
    16f4:	5f505845 	.inst	0x5f505845 ; undefined
    16f8:	2d28205f 	stp	s31, s8, [x2, #-192]
    16fc:	29353231 	stp	w17, w12, [x17, #-88]
    1700:	535f5f00 	.inst	0x535f5f00 ; undefined
    1704:	5f455a49 	.inst	0x5f455a49 ; undefined
    1708:	45505954 	usubwb	z20.h, z10.h, z16.b
    170c:	6c205f5f 	stnp	d31, d23, [x26, #-512]
    1710:	20676e6f 	.inst	0x20676e6f ; undefined
    1714:	69736e75 	ldpsw	x21, x27, [x19, #-104]
    1718:	64656e67 	.inst	0x64656e67 ; undefined
    171c:	746e6920 	.inst	0x746e6920 ; undefined
    1720:	465f5f00 	.inst	0x465f5f00 ; undefined
    1724:	3436544c 	cbz	w12, 6e1ac <__bss_size+0x6df8a>
    1728:	4f4e5f58 	.inst	0x4f4e5f58 ; undefined
    172c:	4d5f4d52 	.inst	0x4d5f4d52 ; undefined
    1730:	5f5f5841 	.inst	0x5f5f5841 ; undefined
    1734:	312e3120 	adds	w0, w9, #0xb8c
    1738:	33373938 	.inst	0x33373938 ; undefined
    173c:	35393431 	cbnz	w17, 73dc0 <__bss_size+0x73b9e>
    1740:	32373533 	orr	w19, w9, #0x7ffe00
    1744:	36373133 	tbz	w19, #6, fffffffffffffd68 <_end+0xfffffffffff76c58>
    1748:	35383035 	cbnz	w21, 71d4c <__bss_size+0x71b2a>
    174c:	33393537 	.inst	0x33393537 ; undefined
    1750:	32363632 	orr	w18, w17, #0xfffc00
    1754:	37303038 	tbnz	w24, #6, 1d58 <__bss_size+0x1b36>
    1758:	2b653230 	.inst	0x2b653230 ; undefined
    175c:	32333934 	orr	w20, w9, #0xfffe000
    1760:	78343646 	.inst	0x78343646 ; undefined
    1764:	445f5f00 	umlslt	z0.h, z24.b, z31.b
    1768:	455f4345 	saddwb	z5.h, z26.h, z31.b
    176c:	5f4c4156 	.inst	0x5f4c4156 ; undefined
    1770:	4854454d 	ldxrh	w13, [x10]
    1774:	5f5f444f 	.inst	0x5f5f444f ; undefined
    1778:	5f003220 	.inst	0x5f003220 ; undefined
    177c:	544c465f 	bc.nv	9a044 <_end+0x10f34>
    1780:	58414d5f 	ldr	xzr, 84128 <__bss_start+0x128>
    1784:	33205f5f 	.inst	0x33205f5f ; undefined
    1788:	3230342e 	orr	w14, w1, #0x3fff0000
    178c:	34333238 	cbz	w24, 67dd0 <__bss_size+0x67bae>
    1790:	38333636 	.inst	0x38333636 ; undefined
    1794:	38383235 	ldsetb	w24, w21, [x17]
    1798:	31383935 	adds	w21, w9, #0xe0e
    179c:	34303731 	cbz	w17, 61e80 <__bss_size+0x61c5e>
    17a0:	34333831 	cbz	w17, 67ea4 <__bss_size+0x67c82>
    17a4:	31353438 	adds	w24, w1, #0xd4d
    17a8:	35323936 	cbnz	w22, 65ecc <__bss_size+0x65caa>
    17ac:	38332b65 	.inst	0x38332b65 ; undefined
    17b0:	5f5f0046 	.inst	0x5f5f0046 ; undefined
    17b4:	5f4c4244 	.inst	0x5f4c4244 ; undefined
    17b8:	5f4e494d 	.inst	0x5f4e494d ; undefined
    17bc:	455f3031 	sabdlb	z17.h, z1.b, z31.b
    17c0:	5f5f5058 	.inst	0x5f5f5058 ; undefined
    17c4:	332d2820 	.inst	0x332d2820 ; undefined
    17c8:	00293730 	.inst	0x00293730 ; NYI
    17cc:	454c5047 	ssubwb	z7.h, z2.h, z12.b
    17d0:	28203056 	stnp	w22, w12, [x2, #-256]
    17d4:	6c6f7628 	ldnp	d8, d29, [x17, #-272]
    17d8:	6c697461 	ldnp	d1, d29, [x3, #-368]
    17dc:	6e752065 	usubl2	v5.4s, v3.8h, v21.8h
    17e0:	6e676973 	.inst	0x6e676973 ; undefined
    17e4:	69206465 	stgp	x5, x25, [x3, #-1024]
    17e8:	2a20746e 	orn	w14, w3, w0, lsl #29
    17ec:	4d4d2829 	.inst	0x4d4d2829 ; undefined
    17f0:	425f4f49 	.inst	0x425f4f49 ; undefined
    17f4:	20455341 	.inst	0x20455341 ; undefined
    17f8:	7830202b 	ldeorh	w16, w11, [x1]
    17fc:	30323030 	adr	x16, 65e01 <__bss_size+0x65bdf>
    1800:	34333030 	cbz	w16, 67e04 <__bss_size+0x67be2>
    1804:	5f002929 	.inst	0x5f002929 ; undefined
    1808:	4e49555f 	.inst	0x4e49555f ; undefined
    180c:	5f323354 	.inst	0x5f323354 ; undefined
    1810:	5f58414d 	.inst	0x5f58414d ; undefined
    1814:	7830205f 	steorh	w16, [x2]
    1818:	66666666 	.inst	0x66666666 ; undefined
    181c:	66666666 	.inst	0x66666666 ; undefined
    1820:	5f5f0055 	.inst	0x5f5f0055 ; undefined
    1824:	4c42444c 	.inst	0x4c42444c ; undefined
    1828:	4e494d5f 	.inst	0x4e494d5f ; undefined
    182c:	5f30315f 	.inst	0x5f30315f ; undefined
    1830:	5f505845 	.inst	0x5f505845 ; undefined
    1834:	2d28205f 	stp	s31, s8, [x2, #-192]
    1838:	31333934 	adds	w20, w9, #0xcce
    183c:	5f5f0029 	.inst	0x5f5f0029 ; undefined
    1840:	5f585847 	.inst	0x5f585847 ; undefined
    1844:	5f494241 	.inst	0x5f494241 ; undefined
    1848:	53524556 	.inst	0x53524556 ; undefined
    184c:	204e4f49 	.inst	0x204e4f49 ; undefined
    1850:	36313031 	tbz	w17, #6, 3e54 <__bss_size+0x3c32>
    1854:	465f5f00 	.inst	0x465f5f00 ; undefined
    1858:	3233544c 	orr	w12, w2, #0xffffe007
    185c:	4749445f 	.inst	0x4749445f ; undefined
    1860:	36205f5f 	tbz	wzr, #4, 2448 <__bss_size+0x2226>
    1864:	415f5f00 	.inst	0x415f5f00 ; undefined
    1868:	465f4d52 	.inst	0x465f4d52 ; undefined
    186c:	55544145 	.inst	0x55544145 ; undefined
    1870:	465f4552 	.inst	0x465f4552 ; undefined
    1874:	544e4952 	bc.cs	9e19c <_end+0x1508c>  // bc.hs, bc.nlast
    1878:	465f5f00 	.inst	0x465f5f00 ; undefined
    187c:	3436544c 	cbz	w12, 6e304 <__bss_size+0x6e0e2>
    1880:	5341485f 	.inst	0x5341485f ; undefined
    1884:	4e45445f 	.inst	0x4e45445f ; undefined
    1888:	5f4d524f 	.inst	0x5f4d524f ; undefined
    188c:	0031205f 	.inst	0x0031205f ; NYI
    1890:	4c465f5f 	.inst	0x4c465f5f ; undefined
    1894:	56455f54 	.inst	0x56455f54 ; undefined
    1898:	4d5f4c41 	.inst	0x4d5f4c41 ; undefined
    189c:	4f485445 	shl	v5.2d, v2.2d, #8
    18a0:	205f5f44 	.inst	0x205f5f44 ; undefined
    18a4:	4d4d0030 	.inst	0x4d4d0030 ; undefined
    18a8:	425f4f49 	.inst	0x425f4f49 ; undefined
    18ac:	20455341 	.inst	0x20455341 ; undefined
    18b0:	46337830 	.inst	0x46337830 ; undefined
    18b4:	30303030 	adr	x16, 61eb9 <__bss_size+0x61c97>
    18b8:	5f003030 	.inst	0x5f003030 ; undefined
    18bc:	544c465f 	bc.nv	9a184 <_end+0x11074>
    18c0:	5f583233 	sqdmlal	s19, h17, v8.h[1]
    18c4:	5f534148 	.inst	0x5f534148 ; undefined
    18c8:	4f4e4544 	.inst	0x4f4e4544 ; undefined
    18cc:	5f5f4d52 	.inst	0x5f5f4d52 ; undefined
    18d0:	5f003120 	.inst	0x5f003120 ; undefined
    18d4:	544e495f 	bc.nv	9e1fc <_end+0x150ec>
    18d8:	5f58414d 	.inst	0x5f58414d ; undefined
    18dc:	29632843 	ldp	w3, w10, [x2, #-232]
    18e0:	23206320 	.inst	0x23206320 ; undefined
    18e4:	004c2023 	.inst	0x004c2023 ; undefined
    18e8:	705f796d 	adr	x13, c0817 <_end+0x37707>
    18ec:	746e6972 	.inst	0x746e6972 ; undefined
    18f0:	5f5f0066 	.inst	0x5f5f0066 ; undefined
    18f4:	5f434347 	.inst	0x5f434347 ; undefined
    18f8:	4d4f5441 	.inst	0x4d4f5441 ; undefined
    18fc:	575f4349 	.inst	0x575f4349 ; undefined
    1900:	52414843 	.inst	0x52414843 ; undefined
    1904:	4c5f545f 	.inst	0x4c5f545f ; undefined
    1908:	5f4b434f 	.inst	0x5f4b434f ; undefined
    190c:	45455246 	ssubwb	z6.h, z18.h, z5.b
    1910:	5f003220 	.inst	0x5f003220 ; undefined
    1914:	4d52415f 	.inst	0x4d52415f ; undefined
    1918:	3150465f 	cmn	w18, #0x411, lsl #12
    191c:	52415f36 	.inst	0x52415f36 ; undefined
    1920:	31205347 	adds	w7, w26, #0x814
    1924:	495f5f00 	.inst	0x495f5f00 ; undefined
    1928:	4c5f544e 	.inst	0x4c5f544e ; undefined
    192c:	54534145 	b.pl	a8154 <_end+0x1f044>  // b.nfrst
    1930:	4d5f3436 	.inst	0x4d5f3436 ; undefined
    1934:	5f5f5841 	.inst	0x5f5f5841 ; undefined
    1938:	37783020 	tbnz	w0, #15, 1f3c <__bss_size+0x1d1a>
    193c:	66666666 	.inst	0x66666666 ; undefined
    1940:	66666666 	.inst	0x66666666 ; undefined
    1944:	66666666 	.inst	0x66666666 ; undefined
    1948:	4c666666 	.inst	0x4c666666 ; undefined
    194c:	495f5f00 	.inst	0x495f5f00 ; undefined
    1950:	4c5f544e 	.inst	0x4c5f544e ; undefined
    1954:	54534145 	b.pl	a817c <_end+0x1f06c>  // b.nfrst
    1958:	49575f38 	.inst	0x49575f38 ; undefined
    195c:	5f485444 	shl	d4, d2, #8
    1960:	0038205f 	.inst	0x0038205f ; NYI
    1964:	49555f5f 	.inst	0x49555f5f ; undefined
    1968:	5f38544e 	.inst	0x5f38544e ; undefined
    196c:	5f58414d 	.inst	0x5f58414d ; undefined
    1970:	7830205f 	steorh	w16, [x2]
    1974:	73006666 	.inst	0x73006666 ; undefined
    1978:	615f7465 	.inst	0x615f7465 ; undefined
    197c:	5f007875 	.inst	0x5f007875 ; undefined
    1980:	4e49555f 	.inst	0x4e49555f ; undefined
    1984:	5f363154 	.inst	0x5f363154 ; undefined
    1988:	5f58414d 	.inst	0x5f58414d ; undefined
    198c:	7830205f 	steorh	w16, [x2]
    1990:	66666666 	.inst	0x66666666 ; undefined
    1994:	52415500 	.inst	0x52415500 ; undefined
    1998:	465f3054 	.inst	0x465f3054 ; undefined
    199c:	28282052 	stnp	w18, w8, [x2, #-192]
    19a0:	616c6f76 	.inst	0x616c6f76 ; undefined
    19a4:	656c6974 	fnmls	z20.h, p2/m, z11.h, z12.h
    19a8:	736e7520 	.inst	0x736e7520 ; undefined
    19ac:	656e6769 	fnmls	z9.h, p1/m, z27.h, z14.h
    19b0:	6e692064 	usubl2	v4.4s, v3.8h, v9.8h
    19b4:	28292a74 	stnp	w20, w10, [x19, #-184]
    19b8:	54524155 	bc.pl	a61e0 <_end+0x1d0d0>  // bc.nfrst
    19bc:	41425f30 	.inst	0x41425f30 ; undefined
    19c0:	2b204553 	adds	w19, w10, w0, uxtw #1
    19c4:	31783020 	adds	w0, w1, #0xe0c, lsl #12
    19c8:	00292938 	.inst	0x00292938 ; NYI
    19cc:	4e495f5f 	.inst	0x4e495f5f ; undefined
    19d0:	41465f54 	.inst	0x41465f54 ; undefined
    19d4:	34365453 	cbz	w19, 6e45c <__bss_size+0x6e23a>
    19d8:	5059545f 	adr	xzr, b4462 <_end+0x2b352>
    19dc:	205f5f45 	.inst	0x205f5f45 ; undefined
    19e0:	676e6f6c 	.inst	0x676e6f6c ; undefined
    19e4:	746e6920 	.inst	0x746e6920 ; undefined
    19e8:	465f5f00 	.inst	0x465f5f00 ; undefined
    19ec:	3631544c 	tbz	w12, #6, 4474 <__bss_size+0x4252>
    19f0:	4e494d5f 	.inst	0x4e494d5f ; undefined
    19f4:	36205f5f 	tbz	wzr, #4, 25dc <__bss_size+0x23ba>
    19f8:	3330312e 	.inst	0x3330312e ; undefined
    19fc:	36353135 	tbz	w21, #6, ffffffffffffc020 <_end+0xfffffffffff72f10>
    1a00:	30303532 	adr	x18, 620a5 <__bss_size+0x61e83>
    1a04:	30303030 	adr	x16, 62009 <__bss_size+0x61de7>
    1a08:	30303030 	adr	x16, 6200d <__bss_size+0x61deb>
    1a0c:	30303030 	adr	x16, 62011 <__bss_size+0x61def>
    1a10:	30303030 	adr	x16, 62015 <__bss_size+0x61df3>
    1a14:	30303030 	adr	x16, 62019 <__bss_size+0x61df7>
    1a18:	30303030 	adr	x16, 6201d <__bss_size+0x61dfb>
    1a1c:	46352d65 	.inst	0x46352d65 ; undefined
    1a20:	5f003631 	.inst	0x5f003631 ; undefined
    1a24:	4d52415f 	.inst	0x4d52415f ; undefined
    1a28:	4749425f 	.inst	0x4749425f ; undefined
    1a2c:	444e455f 	smlalt	z31.h, z10.b, z14.b
    1a30:	004e4149 	.inst	0x004e4149 ; undefined
    1a34:	4e495f5f 	.inst	0x4e495f5f ; undefined
    1a38:	58414d54 	ldr	x20, 843e0 <__bss_start+0x3e0>
    1a3c:	4449575f 	smlslt	z31.h, z26.b, z9.b
    1a40:	5f5f4854 	.inst	0x5f5f4854 ; undefined
    1a44:	00343620 	.inst	0x00343620 ; NYI
    1a48:	42445f5f 	.inst	0x42445f5f ; undefined
    1a4c:	53495f4c 	.inst	0x53495f4c ; undefined
    1a50:	4345495f 	.inst	0x4345495f ; undefined
    1a54:	3530365f 	cbnz	wzr, 6211c <__bss_size+0x61efa>
    1a58:	5f5f3935 	sqdmlal	s21, h9, v15.h[5]
    1a5c:	5f003220 	.inst	0x5f003220 ; undefined
    1a60:	5254505f 	.inst	0x5254505f ; undefined
    1a64:	46464944 	.inst	0x46464944 ; undefined
    1a68:	58414d5f 	ldr	xzr, 84410 <__bss_start+0x410>
    1a6c:	30205f5f 	adr	xzr, 42655 <__bss_size+0x42433>
    1a70:	66663778 	.inst	0x66663778 ; undefined
    1a74:	66666666 	.inst	0x66666666 ; undefined
    1a78:	66666666 	.inst	0x66666666 ; undefined
    1a7c:	66666666 	.inst	0x66666666 ; undefined
    1a80:	5f004c66 	.inst	0x5f004c66 ; undefined
    1a84:	544e495f 	bc.nv	9e3ac <_end+0x1529c>
    1a88:	41454c5f 	.inst	0x41454c5f ; undefined
    1a8c:	36315453 	tbz	w19, #6, 4514 <__bss_size+0x42f2>
    1a90:	5059545f 	adr	xzr, b451a <_end+0x2b40a>
    1a94:	205f5f45 	.inst	0x205f5f45 ; undefined
    1a98:	726f6873 	.inst	0x726f6873 ; undefined
    1a9c:	6e692074 	usubl2	v20.4s, v3.8h, v9.8h
    1aa0:	5f5f0074 	.inst	0x5f5f0074 ; undefined
    1aa4:	33544c46 	.inst	0x33544c46 ; undefined
    1aa8:	414d5f32 	.inst	0x414d5f32 ; undefined
    1aac:	58455f58 	ldr	x24, 8c694 <_end+0x3584>
    1ab0:	205f5f50 	.inst	0x205f5f50 ; undefined
    1ab4:	00383231 	.inst	0x00383231 ; NYI
    1ab8:	6e675f5f 	uqrshl	v31.8h, v26.8h, v7.8h
    1abc:	696c5f75 	ldpsw	x21, x23, [x27, #-160]
    1ac0:	5f78756e 	sqshl	d14, d11, #56
    1ac4:	0031205f 	.inst	0x0031205f ; NYI
    1ac8:	42445f5f 	.inst	0x42445f5f ; undefined
    1acc:	49445f4c 	.inst	0x49445f4c ; undefined
    1ad0:	205f5f47 	.inst	0x205f5f47 ; undefined
    1ad4:	5f003531 	.inst	0x5f003531 ; undefined
    1ad8:	4d52415f 	.inst	0x4d52415f ; undefined
    1adc:	4145465f 	.inst	0x4145465f ; undefined
    1ae0:	45525554 	ssubwt	z20.h, z10.h, z18.b
    1ae4:	3150465f 	cmn	w18, #0x411, lsl #12
    1ae8:	43535f36 	.inst	0x43535f36 ; undefined
    1aec:	52414c41 	.inst	0x52414c41 ; undefined
    1af0:	4952415f 	.inst	0x4952415f ; undefined
    1af4:	454d4854 	uaddwb	z20.h, z2.h, z13.b
    1af8:	00434954 	.inst	0x00434954 ; undefined
    1afc:	52415f5f 	.inst	0x52415f5f ; undefined
    1b00:	45465f4d 	usubwt	z13.h, z26.h, z6.b
    1b04:	52555441 	.inst	0x52555441 ; undefined
    1b08:	54415f45 	b.pl	846f0 <__bss_start+0x6f0>  // b.nfrst
    1b0c:	43494d4f 	.inst	0x43494d4f ; undefined
    1b10:	5f5f0053 	.inst	0x5f5f0053 ; undefined
    1b14:	3436504c 	cbz	w12, 6e51c <__bss_size+0x6e2fa>
    1b18:	31205f5f 	cmn	w26, #0x817
    1b1c:	636f6c00 	.inst	0x636f6c00 ; undefined
    1b20:	745f6c61 	.inst	0x745f6c61 ; undefined
    1b24:	72656d69 	.inst	0x72656d69 ; undefined
    1b28:	696e695f 	ldpsw	xzr, x26, [x10, #-144]
    1b2c:	5f5f0074 	.inst	0x5f5f0074 ; undefined
    1b30:	33544c46 	.inst	0x33544c46 ; undefined
    1b34:	445f5832 	umlslb	z18.h, z1.b, z31.b
    1b38:	5f5f4749 	.inst	0x5f5f4749 ; undefined
    1b3c:	00353120 	.inst	0x00353120 ; NYI
    1b40:	4c465f5f 	.inst	0x4c465f5f ; undefined
    1b44:	58323354 	ldr	x20, 661ac <__bss_size+0x65f8a>
    1b48:	4e414d5f 	.inst	0x4e414d5f ; undefined
    1b4c:	49445f54 	.inst	0x49445f54 ; undefined
    1b50:	205f5f47 	.inst	0x205f5f47 ; undefined
    1b54:	5f003335 	.inst	0x5f003335 ; undefined
    1b58:	3436504c 	cbz	w12, 6e560 <__bss_size+0x6e33e>
    1b5c:	41003120 	.inst	0x41003120 ; undefined
    1b60:	4d5f5855 	.inst	0x4d5f5855 ; undefined
    1b64:	434c5f55 	.inst	0x434c5f55 ; undefined
    1b68:	28282052 	stnp	w18, w8, [x2, #-192]
    1b6c:	616c6f76 	.inst	0x616c6f76 ; undefined
    1b70:	656c6974 	fnmls	z20.h, p2/m, z11.h, z12.h
    1b74:	736e7520 	.inst	0x736e7520 ; undefined
    1b78:	656e6769 	fnmls	z9.h, p1/m, z27.h, z14.h
    1b7c:	6e692064 	usubl2	v4.4s, v3.8h, v9.8h
    1b80:	28292a74 	stnp	w20, w10, [x19, #-184]
    1b84:	4f494d4d 	.inst	0x4f494d4d ; undefined
    1b88:	5341425f 	.inst	0x5341425f ; undefined
    1b8c:	202b2045 	.inst	0x202b2045 ; undefined
    1b90:	30307830 	adr	x16, 62a95 <__bss_size+0x62873>
    1b94:	30353132 	adr	x18, 6c1b9 <__bss_size+0x6bf97>
    1b98:	29294334 	stp	w20, w16, [x25, #-184]
    1b9c:	465f5f00 	.inst	0x465f5f00 ; undefined
    1ba0:	3436544c 	cbz	w12, 6e628 <__bss_size+0x6e406>
    1ba4:	414d5f58 	.inst	0x414d5f58 ; undefined
    1ba8:	30315f58 	adr	x24, 64791 <__bss_size+0x6456f>
    1bac:	5058455f 	adr	xzr, b2456 <_end+0x29346>
    1bb0:	34205f5f 	cbz	wzr, 42798 <__bss_size+0x42576>
    1bb4:	00323339 	.inst	0x00323339 ; NYI
    1bb8:	42445f5f 	.inst	0x42445f5f ; undefined
    1bbc:	494d5f4c 	.inst	0x494d5f4c ; undefined
    1bc0:	205f5f4e 	.inst	0x205f5f4e ; undefined
    1bc4:	6f642828 	umlal2	v8.4s, v1.8h, v4.h[6]
    1bc8:	656c6275 	fnmls	z21.h, p0/m, z19.h, z12.h
    1bcc:	322e3229 	orr	w9, w17, #0x7ffc0000
    1bd0:	37303532 	tbnz	w18, #6, 2274 <__bss_size+0x2052>
    1bd4:	38353833 	.inst	0x38353833 ; undefined
    1bd8:	32373035 	orr	w21, w1, #0x3ffe00
    1bdc:	38333130 	ldsetb	w19, w16, [x9]
    1be0:	30393033 	adr	x19, 741e5 <__bss_size+0x73fc3>
    1be4:	37323332 	tbnz	w18, #6, 6248 <__bss_size+0x6026>
    1be8:	33333731 	.inst	0x33333731 ; undefined
    1bec:	34303432 	cbz	w18, 62270 <__bss_size+0x6204e>
    1bf0:	2d653630 	ldp	s16, s13, [x17, #-216]
    1bf4:	4c383033 	.inst	0x4c383033 ; undefined
    1bf8:	5f5f0029 	.inst	0x5f5f0029 ; undefined
    1bfc:	33544c46 	.inst	0x33544c46 ; undefined
    1c00:	495f5832 	.inst	0x495f5832 ; undefined
    1c04:	45495f53 	usubwt	z19.h, z26.h, z9.b
    1c08:	30365f43 	adr	x3, 6e7f1 <__bss_size+0x6e5cf>
    1c0c:	5f393535 	.inst	0x5f393535 ; undefined
    1c10:	0032205f 	.inst	0x0032205f ; NYI
    1c14:	52415f5f 	.inst	0x52415f5f ; undefined
    1c18:	50465f4d 	adr	x13, 8e802 <_end+0x56f2>
    1c1c:	00343120 	.inst	0x00343120 ; NYI
    1c20:	43475f5f 	.inst	0x43475f5f ; undefined
    1c24:	54415f43 	b.cc	8480c <__bss_start+0x80c>  // b.lo, b.ul, b.last
    1c28:	43494d4f 	.inst	0x43494d4f ; undefined
    1c2c:	4f4f425f 	.inst	0x4f4f425f ; undefined
    1c30:	4f4c5f4c 	.inst	0x4f4c5f4c ; undefined
    1c34:	465f4b43 	.inst	0x465f4b43 ; undefined
    1c38:	20454552 	.inst	0x20454552 ; undefined
    1c3c:	5f5f0032 	.inst	0x5f5f0032 ; undefined
    1c40:	544e4955 	bc.pl	9e568 <_end+0x15458>  // bc.nfrst
    1c44:	5341465f 	.inst	0x5341465f ; undefined
    1c48:	5f323354 	.inst	0x5f323354 ; undefined
    1c4c:	5f58414d 	.inst	0x5f58414d ; undefined
    1c50:	7830205f 	steorh	w16, [x2]
    1c54:	66666666 	.inst	0x66666666 ; undefined
    1c58:	66666666 	.inst	0x66666666 ; undefined
    1c5c:	66666666 	.inst	0x66666666 ; undefined
    1c60:	66666666 	.inst	0x66666666 ; undefined
    1c64:	5f004c55 	.inst	0x5f004c55 ; undefined
    1c68:	4e49465f 	.inst	0x4e49465f ; undefined
    1c6c:	5f455449 	shl	d9, d2, #5
    1c70:	4854414d 	ldxrh	w13, [x10]
    1c74:	4c4e4f5f 	.inst	0x4c4e4f5f ; undefined
    1c78:	205f5f59 	.inst	0x205f5f59 ; undefined
    1c7c:	5f5f0030 	.inst	0x5f5f0030 ; undefined
    1c80:	41484357 	.inst	0x41484357 ; undefined
    1c84:	59545f52 	.inst	0x59545f52 ; undefined
    1c88:	5f5f4550 	.inst	0x5f5f4550 ; undefined
    1c8c:	736e7520 	.inst	0x736e7520 ; undefined
    1c90:	656e6769 	fnmls	z9.h, p1/m, z27.h, z14.h
    1c94:	6e692064 	usubl2	v4.4s, v3.8h, v9.8h
    1c98:	5f5f0074 	.inst	0x5f5f0074 ; undefined
    1c9c:	36544c46 	tbz	w6, #10, ffffffffffffa624 <_end+0xfffffffffff71514>
    1ca0:	414d5f34 	.inst	0x414d5f34 ; undefined
    1ca4:	205f5f58 	.inst	0x205f5f58 ; undefined
    1ca8:	39372e31 	strb	w17, [x17, #3531]
    1cac:	33393637 	.inst	0x33393637 ; undefined
    1cb0:	38343331 	ldsetb	w20, w17, [x25]
    1cb4:	31333236 	adds	w22, w17, #0xccc
    1cb8:	38303735 	.inst	0x38303735 ; undefined
    1cbc:	32353431 	orr	w17, w1, #0x1fff800
    1cc0:	33323437 	.inst	0x33323437 ; undefined
    1cc4:	37313337 	tbnz	w23, #6, 4328 <__bss_size+0x4106>
    1cc8:	35333430 	cbnz	w16, 6834c <__bss_size+0x6812a>
    1ccc:	332b6537 	.inst	0x332b6537 ; undefined
    1cd0:	36463830 	tbz	w16, #8, ffffffffffffe3d4 <_end+0xfffffffffff752c4>
    1cd4:	50470034 	adr	x20, 8fcda <_end+0x6bca>
    1cd8:	4c455346 	.inst	0x4c455346 ; undefined
    1cdc:	28282033 	stnp	w19, w8, [x1, #-192]
    1ce0:	616c6f76 	.inst	0x616c6f76 ; undefined
    1ce4:	656c6974 	fnmls	z20.h, p2/m, z11.h, z12.h
    1ce8:	736e7520 	.inst	0x736e7520 ; undefined
    1cec:	656e6769 	fnmls	z9.h, p1/m, z27.h, z14.h
    1cf0:	6e692064 	usubl2	v4.4s, v3.8h, v9.8h
    1cf4:	292a2074 	stp	w20, w8, [x3, #-176]
    1cf8:	494d4d28 	.inst	0x494d4d28 ; undefined
    1cfc:	41425f4f 	.inst	0x41425f4f ; undefined
    1d00:	2b204553 	adds	w19, w10, w0, uxtw #1
    1d04:	30783020 	adr	x0, f2309 <_end+0x691f9>
    1d08:	30303230 	adr	x16, 6234d <__bss_size+0x6212b>
    1d0c:	29433030 	ldp	w16, w12, [x1, #24]
    1d10:	5f5f0029 	.inst	0x5f5f0029 ; undefined
    1d14:	5f434347 	.inst	0x5f434347 ; undefined
    1d18:	5f4d5341 	.inst	0x5f4d5341 ; undefined
    1d1c:	47414c46 	.inst	0x47414c46 ; undefined
    1d20:	54554f5f 	bc.nv	ac708 <_end+0x235f8>
    1d24:	53545550 	.inst	0x53545550 ; undefined
    1d28:	31205f5f 	cmn	w26, #0x817
    1d2c:	555f5f00 	.inst	0x555f5f00 ; undefined
    1d30:	5f544e49 	.inst	0x5f544e49 ; undefined
    1d34:	5341454c 	.inst	0x5341454c ; undefined
    1d38:	5f343654 	.inst	0x5f343654 ; undefined
    1d3c:	5f58414d 	.inst	0x5f58414d ; undefined
    1d40:	7830205f 	steorh	w16, [x2]
    1d44:	66666666 	.inst	0x66666666 ; undefined
    1d48:	66666666 	.inst	0x66666666 ; undefined
    1d4c:	66666666 	.inst	0x66666666 ; undefined
    1d50:	66666666 	.inst	0x66666666 ; undefined
    1d54:	5f004c55 	.inst	0x5f004c55 ; undefined
    1d58:	544c465f 	bc.nv	9a620 <_end+0x11510>
    1d5c:	5f583436 	srsra	d22, d1, #40
    1d60:	5f58414d 	.inst	0x5f58414d ; undefined
    1d64:	2e31205f 	usubl	v31.8h, v2.8b, v17.8b
    1d68:	37393831 	tbnz	w17, #7, 446c <__bss_size+0x424a>
    1d6c:	39343133 	strb	w19, [x9, #3340]
    1d70:	37353335 	tbnz	w21, #6, ffffffffffffc3d4 <_end+0xfffffffffff732c4>
    1d74:	37313332 	tbnz	w18, #6, 43d8 <__bss_size+0x41b6>
    1d78:	38303536 	.inst	0x38303536 ; undefined
    1d7c:	39353735 	strb	w21, [x25, #3405]
    1d80:	36363233 	tbz	w19, #6, ffffffffffffe3c4 <_end+0xfffffffffff752b4>
    1d84:	30303832 	adr	x18, 62489 <__bss_size+0x62267>
    1d88:	65323037 	.inst	0x65323037 ; undefined
    1d8c:	3339342b 	.inst	0x3339342b ; undefined
    1d90:	34364632 	cbz	w18, 6e654 <__bss_size+0x6e432>
    1d94:	5f5f0078 	.inst	0x5f5f0078 ; undefined
    1d98:	33544c46 	.inst	0x33544c46 ; undefined
    1d9c:	4d5f5832 	.inst	0x4d5f5832 ; undefined
    1da0:	5f5f4e49 	.inst	0x5f5f4e49 ; undefined
    1da4:	322e3220 	orr	w0, w17, #0x7ffc0000
    1da8:	37303532 	tbnz	w18, #6, 244c <__bss_size+0x222a>
    1dac:	38353833 	.inst	0x38353833 ; undefined
    1db0:	32373035 	orr	w21, w1, #0x3ffe00
    1db4:	38333130 	ldsetb	w19, w16, [x9]
    1db8:	30393033 	adr	x19, 743bd <__bss_size+0x7419b>
    1dbc:	37323332 	tbnz	w18, #6, 6420 <__bss_size+0x61fe>
    1dc0:	33333731 	.inst	0x33333731 ; undefined
    1dc4:	34303432 	cbz	w18, 62448 <__bss_size+0x62226>
    1dc8:	2d653630 	ldp	s16, s13, [x17, #-216]
    1dcc:	46383033 	.inst	0x46383033 ; undefined
    1dd0:	00783233 	.inst	0x00783233 ; undefined
    1dd4:	49555f5f 	.inst	0x49555f5f ; undefined
    1dd8:	5450544e 	b.al	a2860 <_end+0x19750>
    1ddc:	59545f52 	.inst	0x59545f52 ; undefined
    1de0:	5f5f4550 	.inst	0x5f5f4550 ; undefined
    1de4:	6e6f6c20 	umin	v0.8h, v1.8h, v15.8h
    1de8:	6e752067 	usubl2	v7.4s, v3.8h, v21.8h
    1dec:	6e676973 	.inst	0x6e676973 ; undefined
    1df0:	69206465 	stgp	x5, x25, [x3, #-1024]
    1df4:	5f00746e 	.inst	0x5f00746e ; undefined
    1df8:	544e495f 	bc.nv	9e720 <_end+0x15610>
    1dfc:	435f3631 	.inst	0x435f3631 ; undefined
    1e00:	20296328 	.inst	0x20296328 ; undefined
    1e04:	5f5f0063 	.inst	0x5f5f0063 ; undefined
    1e08:	5f434347 	.inst	0x5f434347 ; undefined
    1e0c:	45564148 	saddwb	z8.h, z10.h, z22.b
    1e10:	4157445f 	.inst	0x4157445f ; undefined
    1e14:	5f324652 	.inst	0x5f324652 ; undefined
    1e18:	5f494643 	.inst	0x5f494643 ; undefined
    1e1c:	204d5341 	.inst	0x204d5341 ; undefined
    1e20:	5f5f0031 	.inst	0x5f5f0031 ; undefined
    1e24:	455a4953 	uaddwb	z19.h, z10.h, z26.b
    1e28:	465f464f 	.inst	0x465f464f ; undefined
    1e2c:	54414f4c 	b.gt	84814 <__bss_start+0x814>
    1e30:	34205f5f 	cbz	wzr, 42a18 <__bss_size+0x427f6>
    1e34:	58554100 	ldr	x0, ac654 <_end+0x23544>
    1e38:	5f554d5f 	.inst	0x5f554d5f ; undefined
    1e3c:	54415453 	bc.cc	848c4 <__bss_start+0x8c4>  // bc.lo, bc.ul, bc.last
    1e40:	76282820 	.inst	0x76282820 ; undefined
    1e44:	74616c6f 	.inst	0x74616c6f ; undefined
    1e48:	20656c69 	.inst	0x20656c69 ; undefined
    1e4c:	69736e75 	ldpsw	x21, x27, [x19, #-104]
    1e50:	64656e67 	.inst	0x64656e67 ; undefined
    1e54:	746e6920 	.inst	0x746e6920 ; undefined
    1e58:	4d28292a 	.inst	0x4d28292a ; undefined
    1e5c:	5f4f494d 	.inst	0x5f4f494d ; undefined
    1e60:	45534142 	saddwb	z2.h, z10.h, z19.b
    1e64:	30202b20 	adr	x0, 423c9 <__bss_size+0x421a7>
    1e68:	32303078 	orr	w24, w3, #0x1fff0000
    1e6c:	36303531 	tbz	w17, #6, 2510 <__bss_size+0x22ee>
    1e70:	00292934 	.inst	0x00292934 ; NYI
    1e74:	4c465f5f 	.inst	0x4c465f5f ; undefined
    1e78:	58343654 	ldr	x20, 6a540 <__bss_size+0x6a31e>
    1e7c:	5341485f 	.inst	0x5341485f ; undefined
    1e80:	4955515f 	.inst	0x4955515f ; undefined
    1e84:	4e5f5445 	.inst	0x4e5f5445 ; undefined
    1e88:	5f5f4e41 	.inst	0x5f5f4e41 ; undefined
    1e8c:	5f003120 	.inst	0x5f003120 ; undefined
    1e90:	544c465f 	bc.nv	9a758 <_end+0x11648>
    1e94:	5341485f 	.inst	0x5341485f ; undefined
    1e98:	464e495f 	.inst	0x464e495f ; undefined
    1e9c:	54494e49 	b.ls	94864 <_end+0xb754>  // b.plast
    1ea0:	205f5f59 	.inst	0x205f5f59 ; undefined
    1ea4:	5f5f0031 	.inst	0x5f5f0031 ; undefined
    1ea8:	31544c46 	adds	w6, w2, #0x513, lsl #12
    1eac:	41485f36 	.inst	0x41485f36 ; undefined
    1eb0:	4e495f53 	.inst	0x4e495f53 ; undefined
    1eb4:	494e4946 	.inst	0x494e4946 ; undefined
    1eb8:	5f5f5954 	.inst	0x5f5f5954 ; undefined
    1ebc:	47003120 	.inst	0x47003120 ; undefined
    1ec0:	4320554e 	.inst	0x4320554e ; undefined
    1ec4:	31203731 	adds	w17, w25, #0x80d
    1ec8:	2e342e31 	uqsub	v17.8b, v17.8b, v20.8b
    1ecc:	6d2d2030 	stp	d16, d8, [x1, #-304]
    1ed0:	7474696c 	.inst	0x7474696c ; undefined
    1ed4:	652d656c 	.inst	0x652d656c ; undefined
    1ed8:	6169646e 	.inst	0x6169646e ; undefined
    1edc:	6d2d206e 	stp	d14, d8, [x3, #-304]
    1ee0:	3d696261 	ldr	b1, [x19, #2648]
    1ee4:	3436706c 	cbz	w12, 6ecf0 <__bss_size+0x6eace>
    1ee8:	33672d20 	.inst	0x33672d20 ; undefined
    1eec:	674f2d20 	.inst	0x674f2d20 ; undefined
    1ef0:	304f2d20 	adr	x0, a0495 <_end+0x17385>
    1ef4:	6e662d20 	uqsub	v0.8h, v9.8h, v6.8h
    1ef8:	6e692d6f 	uqsub	v15.8h, v11.8h, v9.8h
    1efc:	656e696c 	fnmls	z12.h, p2/m, z11.h, z14.h
    1f00:	6e662d20 	uqsub	v0.8h, v9.8h, v6.8h
    1f04:	69702d6f 	ldpsw	x15, x11, [x11, #-128]
    1f08:	662d2065 	.inst	0x662d2065 ; undefined
    1f0c:	65657266 	fnmls	z6.h, p4/m, z19.h, z5.h
    1f10:	6e617473 	uabd	v19.8h, v3.8h, v1.8h
    1f14:	676e6964 	.inst	0x676e6964 ; undefined
    1f18:	6e662d20 	uqsub	v0.8h, v9.8h, v6.8h
    1f1c:	74732d6f 	.inst	0x74732d6f ; undefined
    1f20:	2d6b6361 	ldp	s1, s24, [x27, #-168]
    1f24:	746f7270 	.inst	0x746f7270 ; undefined
    1f28:	6f746365 	umlsl2	v5.4s, v27.8h, v4.h[3]
    1f2c:	662d2072 	.inst	0x662d2072 ; undefined
    1f30:	6f2d6f6e 	.inst	0x6f2d6f6e ; undefined
    1f34:	2d74696d 	ldp	s13, s26, [x11, #-96]
    1f38:	6d617266 	ldp	d6, d28, [x19, #-496]
    1f3c:	6f702d65 	.inst	0x6f702d65 ; undefined
    1f40:	65746e69 	fnmls	z9.h, p3/m, z19.h, z20.h
    1f44:	662d2072 	.inst	0x662d2072 ; undefined
    1f48:	6e797361 	uabdl2	v1.4s, v27.8h, v25.8h
    1f4c:	6f726863 	umlsl2	v3.4s, v3.8h, v2.h[7]
    1f50:	73756f6e 	.inst	0x73756f6e ; undefined
    1f54:	776e752d 	.inst	0x776e752d ; undefined
    1f58:	2d646e69 	ldp	s9, s27, [x19, #-224]
    1f5c:	6c626174 	ldnp	d20, d24, [x11, #-480]
    1f60:	2d207365 	stp	s5, s28, [x27, #-256]
    1f64:	61747366 	.inst	0x61747366 ; undefined
    1f68:	632d6b63 	.inst	0x632d6b63 ; undefined
    1f6c:	6873616c 	.inst	0x6873616c ; undefined
    1f70:	6f72702d 	fcmla	v13.8h, v1.8h, v18.h[1], #270
    1f74:	74636574 	.inst	0x74636574 ; undefined
    1f78:	006e6f69 	.inst	0x006e6f69 ; undefined
    1f7c:	53465047 	.inst	0x53465047 ; undefined
    1f80:	20304c45 	.inst	0x20304c45 ; undefined
    1f84:	6f762828 	umlal2	v8.4s, v1.8h, v6.h[7]
    1f88:	6974616c 	ldpsw	x12, x24, [x11, #-96]
    1f8c:	7520656c 	.inst	0x7520656c ; undefined
    1f90:	6769736e 	.inst	0x6769736e ; undefined
    1f94:	2064656e 	.inst	0x2064656e ; undefined
    1f98:	20746e69 	.inst	0x20746e69 ; undefined
    1f9c:	4d28292a 	.inst	0x4d28292a ; undefined
    1fa0:	5f4f494d 	.inst	0x5f4f494d ; undefined
    1fa4:	45534142 	saddwb	z2.h, z10.h, z19.b
    1fa8:	30202b20 	adr	x0, 4250d <__bss_size+0x422eb>
    1fac:	32303078 	orr	w24, w3, #0x1fff0000
    1fb0:	30303030 	adr	x16, 625b5 <__bss_size+0x62393>
    1fb4:	00292930 	.inst	0x00292930 ; NYI
    1fb8:	42445f5f 	.inst	0x42445f5f ; undefined
    1fbc:	414d5f4c 	.inst	0x414d5f4c ; undefined
    1fc0:	58455f58 	ldr	x24, 8cba8 <_end+0x3a98>
    1fc4:	205f5f50 	.inst	0x205f5f50 ; undefined
    1fc8:	34323031 	cbz	w17, 665cc <__bss_size+0x663aa>
    1fcc:	535f5f00 	.inst	0x535f5f00 ; undefined
    1fd0:	4f455a49 	.inst	0x4f455a49 ; undefined
    1fd4:	4f4c5f46 	.inst	0x4f4c5f46 ; undefined
    1fd8:	5f5f474e 	.inst	0x5f5f474e ; undefined
    1fdc:	5f003820 	.inst	0x5f003820 ; undefined
    1fe0:	4f54415f 	.inst	0x4f54415f ; undefined
    1fe4:	5f43494d 	.inst	0x5f43494d ; undefined
    1fe8:	534e4f43 	.inst	0x534e4f43 ; undefined
    1fec:	20454d55 	.inst	0x20454d55 ; undefined
    1ff0:	5f5f0031 	.inst	0x5f5f0031 ; undefined
    1ff4:	33544c46 	.inst	0x33544c46 ; undefined
    1ff8:	494d5f32 	.inst	0x494d5f32 ; undefined
    1ffc:	205f5f4e 	.inst	0x205f5f4e ; undefined
    2000:	37312e31 	tbnz	w17, #6, 45c4 <__bss_size+0x43a2>
    2004:	34393435 	cbz	w21, 74688 <__bss_size+0x74466>
    2008:	38303533 	.inst	0x38303533 ; undefined
    200c:	38323232 	ldsetb	w18, w18, [x17]
    2010:	37303537 	tbnz	w23, #6, 26b4 <__bss_size+0x2492>
    2014:	37383639 	tbnz	w25, #7, 26d8 <__bss_size+0x24b6>
    2018:	33353633 	.inst	0x33353633 ; undefined
    201c:	32323237 	orr	w23, w17, #0x7ffc000
    2020:	36353432 	tbz	w18, #6, ffffffffffffc6a4 <_end+0xfffffffffff73594>
    2024:	332d6538 	.inst	0x332d6538 ; undefined
    2028:	32334638 	orr	w24, w17, #0x7fffe000
    202c:	465f5f00 	.inst	0x465f5f00 ; undefined
    2030:	3436544c 	cbz	w12, 6eab8 <__bss_size+0x6e896>
    2034:	414d5f58 	.inst	0x414d5f58 ; undefined
    2038:	445f544e 	smlslt	z14.h, z2.b, z31.b
    203c:	5f5f4749 	.inst	0x5f5f4749 ; undefined
    2040:	33313120 	.inst	0x33313120 ; undefined
    2044:	575f5f00 	.inst	0x575f5f00 ; undefined
    2048:	5f544e49 	.inst	0x5f544e49 ; undefined
    204c:	45505954 	usubwb	z20.h, z10.h, z16.b
    2050:	75205f5f 	.inst	0x75205f5f ; undefined
    2054:	6769736e 	.inst	0x6769736e ; undefined
    2058:	2064656e 	.inst	0x2064656e ; undefined
    205c:	00746e69 	.inst	0x00746e69 ; undefined
    2060:	43475f5f 	.inst	0x43475f5f ; undefined
    2064:	41485f43 	.inst	0x41485f43 ; undefined
    2068:	535f4556 	.inst	0x535f4556 ; undefined
    206c:	5f434e59 	.inst	0x5f434e59 ; undefined
    2070:	504d4f43 	adr	x3, 9ca5a <_end+0x1394a>
    2074:	5f455241 	.inst	0x5f455241 ; undefined
    2078:	5f444e41 	.inst	0x5f444e41 ; undefined
    207c:	50415753 	adr	x19, 84b66 <__bss_start+0xb66>
    2080:	2036315f 	.inst	0x2036315f ; undefined
    2084:	5f5f0031 	.inst	0x5f5f0031 ; undefined
    2088:	31544e49 	adds	w9, w18, #0x513, lsl #12
    208c:	414d5f36 	.inst	0x414d5f36 ; undefined
    2090:	205f5f58 	.inst	0x205f5f58 ; undefined
    2094:	66377830 	.inst	0x66377830 ; undefined
    2098:	5f006666 	.inst	0x5f006666 ; undefined
    209c:	4843535f 	ldxrh	wzr, [x26]
    20a0:	575f5241 	.inst	0x575f5241 ; undefined
    20a4:	48544449 	ldxrh	w9, [x2]
    20a8:	38205f5f 	.inst	0x38205f5f ; undefined
    20ac:	555f5f00 	.inst	0x555f5f00 ; undefined
    20b0:	33544e49 	.inst	0x33544e49 ; undefined
    20b4:	28435f32 	ldnp	w18, w23, [x25, #24]
    20b8:	63202963 	.inst	0x63202963 ; undefined
    20bc:	20232320 	.inst	0x20232320 ; undefined
    20c0:	5f5f0055 	.inst	0x5f5f0055 ; undefined
    20c4:	5f544e49 	.inst	0x5f544e49 ; undefined
    20c8:	54534146 	b.vs	a88f0 <_end+0x1f7e0>
    20cc:	545f3233 	bc.cc	c0710 <_end+0x37600>  // bc.lo, bc.ul, bc.last
    20d0:	5f455059 	.inst	0x5f455059 ; undefined
    20d4:	6f6c205f 	umlal2	v31.4s, v2.8h, v12.h[2]
    20d8:	6920676e 	stgp	x14, x25, [x27, #-1024]
    20dc:	5f00746e 	.inst	0x5f00746e ; undefined
    20e0:	5a49535f 	.inst	0x5a49535f ; undefined
    20e4:	5f464f45 	.inst	0x5f464f45 ; undefined
    20e8:	42554f44 	.inst	0x42554f44 ; undefined
    20ec:	5f5f454c 	.inst	0x5f5f454c ; undefined
    20f0:	5f003820 	.inst	0x5f003820 ; undefined
    20f4:	554e475f 	.inst	0x554e475f ; undefined
    20f8:	41505f43 	.inst	0x41505f43 ; undefined
    20fc:	4c484354 	.inst	0x4c484354 ; undefined
    2100:	4c455645 	.inst	0x4c455645 ; undefined
    2104:	30205f5f 	adr	xzr, 42ced <__bss_size+0x42acb>
    2108:	555f5f00 	.inst	0x555f5f00 ; undefined
    210c:	38544e49 	ldrb	w9, [x18, #-188]!
    2110:	6328435f 	.inst	0x6328435f ; undefined
    2114:	00632029 	.inst	0x00632029 ; undefined
    2118:	52415f5f 	.inst	0x52415f5f ; undefined
    211c:	52415f4d 	.inst	0x52415f4d ; undefined
    2120:	495f4843 	.inst	0x495f4843 ; undefined
    2124:	415f4153 	.inst	0x415f4153 ; undefined
    2128:	31203436 	adds	w22, w1, #0x80d
    212c:	465f5f00 	.inst	0x465f5f00 ; undefined
    2130:	3631544c 	tbz	w12, #6, 4bb8 <__bss_size+0x4996>
    2134:	4345445f 	.inst	0x4345445f ; undefined
    2138:	4c414d49 	.inst	0x4c414d49 ; undefined
    213c:	4749445f 	.inst	0x4749445f ; undefined
    2140:	35205f5f 	cbnz	wzr, 42d28 <__bss_size+0x42b06>
    2144:	58554100 	ldr	x0, ac964 <_end+0x23854>
    2148:	5f554d5f 	.inst	0x5f554d5f ; undefined
    214c:	20524949 	.inst	0x20524949 ; undefined
    2150:	6f762828 	umlal2	v8.4s, v1.8h, v6.h[7]
    2154:	6974616c 	ldpsw	x12, x24, [x11, #-96]
    2158:	7520656c 	.inst	0x7520656c ; undefined
    215c:	6769736e 	.inst	0x6769736e ; undefined
    2160:	2064656e 	.inst	0x2064656e ; undefined
    2164:	2a746e69 	orn	w9, w19, w20, lsr #27
    2168:	4d4d2829 	.inst	0x4d4d2829 ; undefined
    216c:	425f4f49 	.inst	0x425f4f49 ; undefined
    2170:	20455341 	.inst	0x20455341 ; undefined
    2174:	7830202b 	ldeorh	w16, w11, [x1]
    2178:	31323030 	adds	w16, w1, #0xc8c
    217c:	38343035 	ldsetb	w20, w21, [x1]
    2180:	5f002929 	.inst	0x5f002929 ; undefined
    2184:	4e49575f 	.inst	0x4e49575f ; undefined
    2188:	494d5f54 	.inst	0x494d5f54 ; undefined
    218c:	205f5f4e 	.inst	0x205f5f4e ; undefined
    2190:	55005530 	.inst	0x55005530 ; undefined
    2194:	30545241 	adr	x1, aabdd <_end+0x21acd>
    2198:	52434c5f 	.inst	0x52434c5f ; undefined
    219c:	28282048 	stnp	w8, w8, [x2, #-192]
    21a0:	616c6f76 	.inst	0x616c6f76 ; undefined
    21a4:	656c6974 	fnmls	z20.h, p2/m, z11.h, z12.h
    21a8:	736e7520 	.inst	0x736e7520 ; undefined
    21ac:	656e6769 	fnmls	z9.h, p1/m, z27.h, z14.h
    21b0:	6e692064 	usubl2	v4.4s, v3.8h, v9.8h
    21b4:	28292a74 	stnp	w20, w10, [x19, #-184]
    21b8:	54524155 	bc.pl	a69e0 <_end+0x1d8d0>  // bc.nfrst
    21bc:	41425f30 	.inst	0x41425f30 ; undefined
    21c0:	2b204553 	adds	w19, w10, w0, uxtw #1
    21c4:	32783020 	.inst	0x32783020 ; undefined
    21c8:	00292963 	.inst	0x00292963 ; NYI
    21cc:	4c465f5f 	.inst	0x4c465f5f ; undefined
    21d0:	4f4e5f54 	.inst	0x4f4e5f54 ; undefined
    21d4:	4d5f4d52 	.inst	0x4d5f4d52 ; undefined
    21d8:	5f5f5841 	.inst	0x5f5f5841 ; undefined
    21dc:	342e3320 	cbz	w0, 5e840 <__bss_size+0x5e61e>
    21e0:	32383230 	orr	w16, w17, #0x1fff00
    21e4:	36363433 	tbz	w19, #6, ffffffffffffe868 <_end+0xfffffffffff75758>
    21e8:	32353833 	orr	w19, w1, #0x3fff800
    21ec:	39353838 	strb	w24, [x1, #3406]
    21f0:	37313138 	tbnz	w24, #6, 4814 <__bss_size+0x45f2>
    21f4:	38313430 	.inst	0x38313430 ; undefined
    21f8:	34383433 	cbz	w19, 7287c <__bss_size+0x7265a>
    21fc:	39363135 	strb	w21, [x9, #3468]
    2200:	2b653532 	.inst	0x2b653532 ; undefined
    2204:	00463833 	.inst	0x00463833 ; undefined
    2208:	54535f5f 	bc.nv	a8df0 <_end+0x1fce0>
    220c:	555f4344 	.inst	0x555f4344 ; undefined
    2210:	315f4654 	adds	w20, w18, #0x7d1, lsl #12
    2214:	205f5f36 	.inst	0x205f5f36 ; undefined
    2218:	5f5f0031 	.inst	0x5f5f0031 ; undefined
    221c:	33544c46 	.inst	0x33544c46 ; undefined
    2220:	53495f32 	.inst	0x53495f32 ; undefined
    2224:	4345495f 	.inst	0x4345495f ; undefined
    2228:	3530365f 	cbnz	wzr, 628f0 <__bss_size+0x626ce>
    222c:	5f5f3935 	sqdmlal	s21, h9, v15.h[5]
    2230:	47003220 	.inst	0x47003220 ; undefined
    2234:	53444550 	.inst	0x53444550 ; undefined
    2238:	28282031 	stnp	w17, w8, [x1, #-192]
    223c:	616c6f76 	.inst	0x616c6f76 ; undefined
    2240:	656c6974 	fnmls	z20.h, p2/m, z11.h, z12.h
    2244:	736e7520 	.inst	0x736e7520 ; undefined
    2248:	656e6769 	fnmls	z9.h, p1/m, z27.h, z14.h
    224c:	6e692064 	usubl2	v4.4s, v3.8h, v9.8h
    2250:	292a2074 	stp	w20, w8, [x3, #-176]
    2254:	494d4d28 	.inst	0x494d4d28 ; undefined
    2258:	41425f4f 	.inst	0x41425f4f ; undefined
    225c:	2b204553 	adds	w19, w10, w0, uxtw #1
    2260:	30783020 	adr	x0, f2865 <_end+0x69755>
    2264:	30303230 	adr	x16, 628a9 <__bss_size+0x62687>
    2268:	29343430 	stp	w16, w13, [x1, #-96]
    226c:	5f5f0029 	.inst	0x5f5f0029 ; undefined
    2270:	4c42444c 	.inst	0x4c42444c ; undefined
    2274:	5341485f 	.inst	0x5341485f ; undefined
    2278:	464e495f 	.inst	0x464e495f ; undefined
    227c:	54494e49 	b.ls	94c44 <_end+0xbb34>  // b.plast
    2280:	205f5f59 	.inst	0x205f5f59 ; undefined
    2284:	5f5f0031 	.inst	0x5f5f0031 ; undefined
    2288:	5f434347 	.inst	0x5f434347 ; undefined
    228c:	5f434549 	.inst	0x5f434549 ; undefined
    2290:	5f393535 	.inst	0x5f393535 ; undefined
    2294:	504d4f43 	adr	x3, 9cc7e <_end+0x13b6e>
    2298:	2058454c 	.inst	0x2058454c ; undefined
    229c:	5f5f0032 	.inst	0x5f5f0032 ; undefined
    22a0:	5f474953 	.inst	0x5f474953 ; undefined
    22a4:	4d4f5441 	.inst	0x4d4f5441 ; undefined
    22a8:	4d5f4349 	.inst	0x4d5f4349 ; undefined
    22ac:	5f5f4e49 	.inst	0x5f5f4e49 ; undefined
    22b0:	5f2d2820 	.inst	0x5f2d2820 ; undefined
    22b4:	4749535f 	.inst	0x4749535f ; undefined
    22b8:	4f54415f 	.inst	0x4f54415f ; undefined
    22bc:	5f43494d 	.inst	0x5f43494d ; undefined
    22c0:	5f58414d 	.inst	0x5f58414d ; undefined
    22c4:	202d205f 	.inst	0x202d205f ; undefined
    22c8:	5f002931 	.inst	0x5f002931 ; undefined
    22cc:	42444c5f 	.inst	0x42444c5f ; undefined
    22d0:	4f4e5f4c 	.inst	0x4f4e5f4c ; undefined
    22d4:	4d5f4d52 	.inst	0x4d5f4d52 ; undefined
    22d8:	5f5f5841 	.inst	0x5f5f5841 ; undefined
    22dc:	312e3120 	adds	w0, w9, #0xb8c
    22e0:	33373938 	.inst	0x33373938 ; undefined
    22e4:	35393431 	cbnz	w17, 74968 <__bss_size+0x74746>
    22e8:	32373533 	orr	w19, w9, #0x7ffe00
    22ec:	36373133 	tbz	w19, #6, 910 <__bss_size+0x6ee>
    22f0:	35383035 	cbnz	w21, 728f4 <__bss_size+0x726d2>
    22f4:	33393537 	.inst	0x33393537 ; undefined
    22f8:	32363632 	orr	w18, w17, #0xfffc00
    22fc:	37303038 	tbnz	w24, #6, 2900 <__bss_size+0x26de>
    2300:	2b653230 	.inst	0x2b653230 ; undefined
    2304:	32333934 	orr	w20, w9, #0xfffe000
    2308:	5f5f004c 	.inst	0x5f5f004c ; undefined
    230c:	455a4953 	uaddwb	z19.h, z10.h, z26.b
    2310:	575f464f 	.inst	0x575f464f ; undefined
    2314:	52414843 	.inst	0x52414843 ; undefined
    2318:	5f5f545f 	shl	d31, d2, #31
    231c:	5f003420 	.inst	0x5f003420 ; undefined
    2320:	544c465f 	bc.nv	9abe8 <_end+0x11ad8>
    2324:	5f383231 	.inst	0x5f383231 ; undefined
    2328:	5f4e494d 	.inst	0x5f4e494d ; undefined
    232c:	455f3031 	sabdlb	z17.h, z1.b, z31.b
    2330:	5f5f5058 	.inst	0x5f5f5058 ; undefined
    2334:	342d2820 	cbz	w0, 5c838 <__bss_size+0x5c616>
    2338:	29313339 	stp	w25, w12, [x25, #-120]
    233c:	465f5f00 	.inst	0x465f5f00 ; undefined
    2340:	54414f4c 	b.gt	84d28 <__bss_start+0xd28>
    2344:	524f575f 	.inst	0x524f575f ; undefined
    2348:	524f5f44 	.inst	0x524f5f44 ; undefined
    234c:	5f524544 	.inst	0x5f524544 ; undefined
    2350:	5f5f205f 	.inst	0x5f5f205f ; undefined
    2354:	4544524f 	ssubwb	z15.h, z18.h, z4.b
    2358:	494c5f52 	.inst	0x494c5f52 ; undefined
    235c:	454c5454 	ssubwt	z20.h, z2.h, z12.b
    2360:	444e455f 	smlalt	z31.h, z10.b, z14.b
    2364:	5f4e4149 	.inst	0x5f4e4149 ; undefined
    2368:	5f5f005f 	.inst	0x5f5f005f ; undefined
    236c:	5f434347 	.inst	0x5f434347 ; undefined
    2370:	45564148 	saddwb	z8.h, z10.h, z22.b
    2374:	4e59535f 	.inst	0x4e59535f ; undefined
    2378:	4f435f43 	.inst	0x4f435f43 ; undefined
    237c:	5241504d 	.inst	0x5241504d ; undefined
    2380:	4e415f45 	.inst	0x4e415f45 ; undefined
    2384:	57535f44 	.inst	0x57535f44 ; undefined
    2388:	325f5041 	.inst	0x325f5041 ; undefined
    238c:	5f003120 	.inst	0x5f003120 ; undefined
    2390:	544c465f 	bc.nv	9ac58 <_end+0x11b48>
    2394:	445f3233 	sqrdcmlah	z19.h, z17.h, z31.h, #0
    2398:	524f4e45 	.inst	0x524f4e45 ; undefined
    239c:	494d5f4d 	.inst	0x494d5f4d ; undefined
    23a0:	205f5f4e 	.inst	0x205f5f4e ; undefined
    23a4:	30342e31 	adr	x17, 6a969 <__bss_size+0x6a747>
    23a8:	38393231 	ldsetb	w25, w17, [x17]
    23ac:	33343634 	.inst	0x33343634 ; undefined
    23b0:	31383432 	adds	w18, w1, #0xe0d
    23b4:	30373037 	adr	x23, 709b9 <__bss_size+0x70797>
    23b8:	37333239 	tbnz	w25, #6, 89fc <__bss_size+0x87da>
    23bc:	38353932 	.inst	0x38353932 ; undefined
    23c0:	39383233 	strb	w19, [x17, #3596]
    23c4:	31363139 	adds	w25, w9, #0xd8c
    23c8:	342d6533 	cbz	w19, 5d06c <__bss_size+0x5ce4a>
    23cc:	32334635 	orr	w21, w17, #0x7fffe000
    23d0:	555f5f00 	.inst	0x555f5f00 ; undefined
    23d4:	5f544e49 	.inst	0x5f544e49 ; undefined
    23d8:	54534146 	b.vs	a8c00 <_end+0x1faf0>
    23dc:	4d5f3631 	.inst	0x4d5f3631 ; undefined
    23e0:	5f5f5841 	.inst	0x5f5f5841 ; undefined
    23e4:	66783020 	.inst	0x66783020 ; undefined
    23e8:	66666666 	.inst	0x66666666 ; undefined
    23ec:	66666666 	.inst	0x66666666 ; undefined
    23f0:	66666666 	.inst	0x66666666 ; undefined
    23f4:	55666666 	.inst	0x55666666 ; undefined
    23f8:	5f5f004c 	.inst	0x5f5f004c ; undefined
    23fc:	33544e49 	.inst	0x33544e49 ; undefined
    2400:	414d5f32 	.inst	0x414d5f32 ; undefined
    2404:	205f5f58 	.inst	0x205f5f58 ; undefined
    2408:	66377830 	.inst	0x66377830 ; undefined
    240c:	66666666 	.inst	0x66666666 ; undefined
    2410:	5f006666 	.inst	0x5f006666 ; undefined
    2414:	4d52415f 	.inst	0x4d52415f ; undefined
    2418:	4145465f 	.inst	0x4145465f ; undefined
    241c:	45525554 	ssubwt	z20.h, z10.h, z18.b
    2420:	4556535f 	ssubwb	z31.h, z26.h, z22.b
    2424:	49425f32 	.inst	0x49425f32 ; undefined
    2428:	52455054 	.inst	0x52455054 ; undefined
    242c:	5f5f004d 	.inst	0x5f5f004d ; undefined
    2430:	4d4f5441 	.inst	0x4d4f5441 ; undefined
    2434:	415f4349 	.inst	0x415f4349 ; undefined
    2438:	49555143 	.inst	0x49555143 ; undefined
    243c:	32204552 	orr	w18, w10, #0x3ffff
    2440:	555f5f00 	.inst	0x555f5f00 ; undefined
    2444:	31544e49 	adds	w9, w18, #0x513, lsl #12
    2448:	28435f36 	ldnp	w22, w23, [x25, #24]
    244c:	63202963 	.inst	0x63202963 ; undefined
    2450:	495f5f00 	.inst	0x495f5f00 ; undefined
    2454:	3436544e 	cbz	w14, 6eedc <__bss_size+0x6ecba>
    2458:	58414d5f 	ldr	xzr, 84e00 <__bss_start+0xe00>
    245c:	30205f5f 	adr	xzr, 43045 <__bss_size+0x42e23>
    2460:	66663778 	.inst	0x66663778 ; undefined
    2464:	66666666 	.inst	0x66666666 ; undefined
    2468:	66666666 	.inst	0x66666666 ; undefined
    246c:	66666666 	.inst	0x66666666 ; undefined
    2470:	5f004c66 	.inst	0x5f004c66 ; undefined
    2474:	544c465f 	bc.nv	9ad3c <_end+0x11c2c>
    2478:	5f583436 	srsra	d22, d1, #40
    247c:	49434544 	.inst	0x49434544 ; undefined
    2480:	5f4c414d 	.inst	0x5f4c414d ; undefined
    2484:	5f474944 	.inst	0x5f474944 ; undefined
    2488:	3633205f 	tbz	wzr, #6, 8890 <__bss_size+0x866e>
    248c:	71696600 	subs	w0, w16, #0xa59, lsl #12
    2490:	6e61685f 	fcvtxn2	v31.4s, v2.2d
    2494:	72656c64 	.inst	0x72656c64 ; undefined
    2498:	415f5f00 	.inst	0x415f5f00 ; undefined
    249c:	465f4d52 	.inst	0x465f4d52 ; undefined
    24a0:	55544145 	.inst	0x55544145 ; undefined
    24a4:	535f4552 	.inst	0x535f4552 ; undefined
    24a8:	425f4556 	.inst	0x425f4556 ; undefined
    24ac:	00535449 	.inst	0x00535449 ; undefined
    24b0:	49555f5f 	.inst	0x49555f5f ; undefined
    24b4:	414d544e 	.inst	0x414d544e ; undefined
    24b8:	59545f58 	.inst	0x59545f58 ; undefined
    24bc:	5f5f4550 	.inst	0x5f5f4550 ; undefined
    24c0:	6e6f6c20 	umin	v0.8h, v1.8h, v15.8h
    24c4:	6e752067 	usubl2	v7.4s, v3.8h, v21.8h
    24c8:	6e676973 	.inst	0x6e676973 ; undefined
    24cc:	69206465 	stgp	x5, x25, [x3, #-1024]
    24d0:	5f00746e 	.inst	0x5f00746e ; undefined
    24d4:	544c465f 	bc.nv	9ad9c <_end+0x11c8c>
    24d8:	485f3631 	ldxrh	w17, [x17]
    24dc:	445f5341 	smlslb	z1.h, z26.b, z31.b
    24e0:	524f4e45 	.inst	0x524f4e45 ; undefined
    24e4:	205f5f4d 	.inst	0x205f5f4d ; undefined
    24e8:	5f5f0031 	.inst	0x5f5f0031 ; undefined
    24ec:	5f4d5241 	.inst	0x5f4d5241 ; undefined
    24f0:	465f5046 	.inst	0x465f5046 ; undefined
    24f4:	00545341 	.inst	0x00545341 ; undefined
    24f8:	4c465f5f 	.inst	0x4c465f5f ; undefined
    24fc:	56455f54 	.inst	0x56455f54 ; undefined
    2500:	4d5f4c41 	.inst	0x4d5f4c41 ; undefined
    2504:	4f485445 	shl	v5.2d, v2.2d, #8
    2508:	39435f44 	ldrb	w4, [x26, #215]
    250c:	005f5f39 	.inst	0x005f5f39 ; undefined
    2510:	49535f5f 	.inst	0x49535f5f ; undefined
    2514:	54415f47 	b.vc	850fc <mailbox+0xfc>
    2518:	43494d4f 	.inst	0x43494d4f ; undefined
    251c:	4449575f 	smlslt	z31.h, z26.b, z9.b
    2520:	5f5f4854 	.inst	0x5f5f4854 ; undefined
    2524:	00323320 	.inst	0x00323320 ; NYI
    2528:	52415f5f 	.inst	0x52415f5f ; undefined
    252c:	45465f4d 	usubwt	z13.h, z26.h, z6.b
    2530:	52555441 	.inst	0x52555441 ; undefined
    2534:	46425f45 	.inst	0x46425f45 ; undefined
    2538:	565f3631 	.inst	0x565f3631 ; undefined
    253c:	4f544345 	.inst	0x4f544345 ; undefined
    2540:	52415f52 	.inst	0x52415f52 ; undefined
    2544:	4d485449 	.inst	0x4d485449 ; undefined
    2548:	43495445 	.inst	0x43495445 ; undefined
    254c:	535f5f00 	.inst	0x535f5f00 ; undefined
    2550:	5f545248 	.inst	0x5f545248 ; undefined
    2554:	5f58414d 	.inst	0x5f58414d ; undefined
    2558:	7830205f 	steorh	w16, [x2]
    255c:	66666637 	.inst	0x66666637 ; undefined
    2560:	415f5f00 	.inst	0x415f5f00 ; undefined
    2564:	465f4d52 	.inst	0x465f4d52 ; undefined
    2568:	55544145 	.inst	0x55544145 ; undefined
    256c:	535f4552 	.inst	0x535f4552 ; undefined
    2570:	00324556 	.inst	0x00324556 ; NYI
    2574:	524f5f5f 	.inst	0x524f5f5f ; undefined
    2578:	5f524544 	.inst	0x5f524544 ; undefined
    257c:	5f504450 	.inst	0x5f504450 ; undefined
    2580:	49444e45 	.inst	0x49444e45 ; undefined
    2584:	5f5f4e41 	.inst	0x5f5f4e41 ; undefined
    2588:	31343320 	adds	w0, w25, #0xd0c
    258c:	5f5f0032 	.inst	0x5f5f0032 ; undefined
    2590:	33504c49 	.inst	0x33504c49 ; undefined
    2594:	005f5f32 	.inst	0x005f5f32 ; undefined
    2598:	4c465f5f 	.inst	0x4c465f5f ; undefined
    259c:	45445f54 	usubwt	z20.h, z26.h, z4.b
    25a0:	414d4943 	.inst	0x414d4943 ; undefined
    25a4:	49445f4c 	.inst	0x49445f4c ; undefined
    25a8:	205f5f47 	.inst	0x205f5f47 ; undefined
    25ac:	41550039 	.inst	0x41550039 ; undefined
    25b0:	5f305452 	.inst	0x5f305452 ; undefined
    25b4:	44524249 	smlalb	z9.h, z18.b, z18.b
    25b8:	76282820 	.inst	0x76282820 ; undefined
    25bc:	74616c6f 	.inst	0x74616c6f ; undefined
    25c0:	20656c69 	.inst	0x20656c69 ; undefined
    25c4:	69736e75 	ldpsw	x21, x27, [x19, #-104]
    25c8:	64656e67 	.inst	0x64656e67 ; undefined
    25cc:	746e6920 	.inst	0x746e6920 ; undefined
    25d0:	5528292a 	.inst	0x5528292a ; undefined
    25d4:	30545241 	adr	x1, ab01d <_end+0x21f0d>
    25d8:	5341425f 	.inst	0x5341425f ; undefined
    25dc:	202b2045 	.inst	0x202b2045 ; undefined
    25e0:	34327830 	cbz	w16, 674e4 <__bss_size+0x672c2>
    25e4:	5f002929 	.inst	0x5f002929 ; undefined
    25e8:	42444c5f 	.inst	0x42444c5f ; undefined
    25ec:	494d5f4c 	.inst	0x494d5f4c ; undefined
    25f0:	58455f4e 	ldr	x14, 8d1d8 <_end+0x40c8>
    25f4:	205f5f50 	.inst	0x205f5f50 ; undefined
    25f8:	36312d28 	tbz	w8, #6, 4b9c <__bss_size+0x497a>
    25fc:	29313833 	stp	w19, w14, [x1, #-120]
    2600:	575f5f00 	.inst	0x575f5f00 ; undefined
    2604:	5f544e49 	.inst	0x5f544e49 ; undefined
    2608:	54444957 	bc.vc	8af30 <_end+0x1e20>
    260c:	205f5f48 	.inst	0x205f5f48 ; undefined
    2610:	5f003233 	.inst	0x5f003233 ; undefined
    2614:	544c465f 	bc.nv	9aedc <_end+0x11dcc>
    2618:	5f583436 	srsra	d22, d1, #40
    261c:	5f4e494d 	.inst	0x5f4e494d ; undefined
    2620:	2e33205f 	usubl	v31.8h, v2.8b, v19.8b
    2624:	31323633 	adds	w19, w17, #0xc8d
    2628:	34313330 	cbz	w16, 64c8c <__bss_size+0x64a6a>
    262c:	32313133 	orr	w19, w9, #0xfff8000
    2630:	35333930 	cbnz	w16, 68d54 <__bss_size+0x68b32>
    2634:	36323630 	tbz	w16, #6, 6cf8 <__bss_size+0x6ad6>
    2638:	37373632 	tbnz	w18, #6, cfc <__bss_size+0xada>
    263c:	33373138 	.inst	0x33373138 ; undefined
    2640:	35373132 	cbnz	w18, 70c64 <__bss_size+0x70a42>
    2644:	65303632 	.inst	0x65303632 ; undefined
    2648:	3339342d 	.inst	0x3339342d ; undefined
    264c:	34364632 	cbz	w18, 6ef10 <__bss_size+0x6ecee>
    2650:	5f5f0078 	.inst	0x5f5f0078 ; undefined
    2654:	5f544e49 	.inst	0x5f544e49 ; undefined
    2658:	54534146 	b.vs	a8e80 <_end+0x1fd70>
    265c:	414d5f38 	.inst	0x414d5f38 ; undefined
    2660:	205f5f58 	.inst	0x205f5f58 ; undefined
    2664:	66377830 	.inst	0x66377830 ; undefined
    2668:	535f5f00 	.inst	0x535f5f00 ; undefined
    266c:	4f455a49 	.inst	0x4f455a49 ; undefined
    2670:	4e495f46 	.inst	0x4e495f46 ; undefined
    2674:	205f5f54 	.inst	0x205f5f54 ; undefined
    2678:	5f5f0034 	.inst	0x5f5f0034 ; undefined
    267c:	33544c46 	.inst	0x33544c46 ; undefined
    2680:	50455f32 	adr	x18, 8d266 <_end+0x4156>
    2684:	4f4c4953 	.inst	0x4f4c4953 ; undefined
    2688:	205f5f4e 	.inst	0x205f5f4e ; undefined
    268c:	39312e31 	strb	w17, [x17, #3147]
    2690:	32393032 	orr	w18, w1, #0xfff80
    2694:	35353938 	cbnz	w24, 6cdb8 <__bss_size+0x6cb96>
    2698:	31383730 	adds	w16, w25, #0xe0d
    269c:	30303532 	adr	x18, 62d41 <__bss_size+0x62b1f>
    26a0:	30303030 	adr	x16, 62ca5 <__bss_size+0x62a83>
    26a4:	30303030 	adr	x16, 62ca9 <__bss_size+0x62a87>
    26a8:	30303030 	adr	x16, 62cad <__bss_size+0x62a8b>
    26ac:	30303030 	adr	x16, 62cb1 <__bss_size+0x62a8f>
    26b0:	372d6530 	tbnz	w16, #5, ffffffffffffd354 <_end+0xfffffffffff74244>
    26b4:	00323346 	.inst	0x00323346 ; NYI
    26b8:	4e495f5f 	.inst	0x4e495f5f ; undefined
    26bc:	41465f54 	.inst	0x41465f54 ; undefined
    26c0:	34365453 	cbz	w19, 6f148 <__bss_size+0x6ef26>
    26c4:	58414d5f 	ldr	xzr, 8506c <mailbox+0x6c>
    26c8:	30205f5f 	adr	xzr, 432b1 <__bss_size+0x4308f>
    26cc:	66663778 	.inst	0x66663778 ; undefined
    26d0:	66666666 	.inst	0x66666666 ; undefined
    26d4:	66666666 	.inst	0x66666666 ; undefined
    26d8:	66666666 	.inst	0x66666666 ; undefined
    26dc:	5f004c66 	.inst	0x5f004c66 ; undefined
    26e0:	544c465f 	bc.nv	9afa8 <_end+0x11e98>
    26e4:	5f383231 	.inst	0x5f383231 ; undefined
    26e8:	5f534148 	.inst	0x5f534148 ; undefined
    26ec:	45495551 	ssubwt	z17.h, z10.h, z9.b
    26f0:	414e5f54 	.inst	0x414e5f54 ; undefined
    26f4:	205f5f4e 	.inst	0x205f5f4e ; undefined
    26f8:	5f5f0031 	.inst	0x5f5f0031 ; undefined
    26fc:	33544c46 	.inst	0x33544c46 ; undefined
    2700:	4d5f5832 	.inst	0x4d5f5832 ; undefined
    2704:	315f4e49 	adds	w9, w18, #0x7d3, lsl #12
    2708:	58455f30 	ldr	x16, 8d2ec <_end+0x41dc>
    270c:	205f5f50 	.inst	0x205f5f50 ; undefined
    2710:	30332d28 	adr	x8, 68cb5 <__bss_size+0x68a93>
    2714:	5f002937 	.inst	0x5f002937 ; undefined
    2718:	4d52415f 	.inst	0x4d52415f ; undefined
    271c:	4145465f 	.inst	0x4145465f ; undefined
    2720:	45525554 	ssubwt	z20.h, z10.h, z18.b
    2724:	5043525f 	adr	xzr, 8916e <_end+0x5e>
    2728:	5f5f0043 	.inst	0x5f5f0043 ; undefined
    272c:	5f4d5241 	.inst	0x5f4d5241 ; undefined
    2730:	54414546 	b.vs	84fd8 <__bss_start+0xfd8>
    2734:	5f455255 	.inst	0x5f455255 ; undefined
    2738:	4f4d454d 	.inst	0x4f4d454d ; undefined
    273c:	545f5952 	bc.cs	c1264 <_end+0x38154>  // bc.hs, bc.nlast
    2740:	49474741 	.inst	0x49474741 ; undefined
    2744:	5f00474e 	.inst	0x5f00474e ; undefined
    2748:	4e49555f 	.inst	0x4e49555f ; undefined
    274c:	58414d54 	ldr	x20, 850f4 <mailbox+0xf4>
    2750:	6328435f 	.inst	0x6328435f ; undefined
    2754:	20632029 	.inst	0x20632029 ; undefined
    2758:	55202323 	.inst	0x55202323 ; undefined
    275c:	5f5f004c 	.inst	0x5f5f004c ; undefined
    2760:	52414843 	.inst	0x52414843 ; undefined
    2764:	545f3233 	bc.cc	c0da8 <_end+0x37c98>  // bc.lo, bc.ul, bc.last
    2768:	5f455059 	.inst	0x5f455059 ; undefined
    276c:	6e75205f 	usubl2	v31.4s, v2.8h, v21.8h
    2770:	6e676973 	.inst	0x6e676973 ; undefined
    2774:	69206465 	stgp	x5, x25, [x3, #-1024]
    2778:	6400746e 	.inst	0x6400746e ; undefined
    277c:	796d6d75 	ldrh	w21, [x11, #5814]
    2780:	6378655f 	.inst	0x6378655f ; undefined
    2784:	69747065 	ldpsw	x5, x28, [x3, #-96]
    2788:	685f6e6f 	.inst	0x685f6e6f ; undefined
    278c:	6c646e61 	ldnp	d1, d27, [x19, #-448]
    2790:	55007265 	.inst	0x55007265 ; undefined
    2794:	30545241 	adr	x1, ab1dd <_end+0x220cd>
    2798:	5341425f 	.inst	0x5341425f ; undefined
    279c:	78302045 	ldeorh	w16, w5, [x2]
    27a0:	30324633 	adr	x19, 67065 <__bss_size+0x66e43>
    27a4:	30303031 	adr	x17, 62da9 <__bss_size+0x62b87>
    27a8:	465f5f00 	.inst	0x465f5f00 ; undefined
    27ac:	3436544c 	cbz	w12, 6f234 <__bss_size+0x6f012>
    27b0:	41485f58 	.inst	0x41485f58 ; undefined
    27b4:	4e495f53 	.inst	0x4e495f53 ; undefined
    27b8:	494e4946 	.inst	0x494e4946 ; undefined
    27bc:	5f5f5954 	.inst	0x5f5f5954 ; undefined
    27c0:	5f003120 	.inst	0x5f003120 ; undefined
    27c4:	544c465f 	bc.nv	9b08c <_end+0x11f7c>
    27c8:	5f583233 	sqdmlal	s19, h17, v8.h[1]
    27cc:	5f4e494d 	.inst	0x5f4e494d ; undefined
    27d0:	5f505845 	.inst	0x5f505845 ; undefined
    27d4:	2d28205f 	stp	s31, s8, [x2, #-192]
    27d8:	31323031 	adds	w17, w1, #0xc8c
    27dc:	5f5f0029 	.inst	0x5f5f0029 ; undefined
    27e0:	50544e49 	adr	x9, ab1aa <_end+0x2209a>
    27e4:	575f5254 	.inst	0x575f5254 ; undefined
    27e8:	48544449 	ldxrh	w9, [x2]
    27ec:	36205f5f 	tbz	wzr, #4, 33d4 <__bss_size+0x31b2>
    27f0:	5f5f0034 	.inst	0x5f5f0034 ; undefined
    27f4:	544e4955 	bc.pl	9f11c <_end+0x1600c>  // bc.nfrst
    27f8:	5341465f 	.inst	0x5341465f ; undefined
    27fc:	545f3854 	bc.mi	c0f04 <_end+0x37df4>  // bc.first
    2800:	5f455059 	.inst	0x5f455059 ; undefined
    2804:	6e75205f 	usubl2	v31.4s, v2.8h, v21.8h
    2808:	6e676973 	.inst	0x6e676973 ; undefined
    280c:	63206465 	.inst	0x63206465 ; undefined
    2810:	00726168 	.inst	0x00726168 ; undefined
    2814:	4e495f5f 	.inst	0x4e495f5f ; undefined
    2818:	5f323354 	.inst	0x5f323354 ; undefined
    281c:	29632843 	ldp	w3, w10, [x2, #-232]
    2820:	5f006320 	.inst	0x5f006320 ; undefined
    2824:	42444c5f 	.inst	0x42444c5f ; undefined
    2828:	41485f4c 	.inst	0x41485f4c ; undefined
    282c:	55515f53 	.inst	0x55515f53 ; undefined
    2830:	5f544549 	.inst	0x5f544549 ; undefined
    2834:	5f4e414e 	.inst	0x5f4e414e ; undefined
    2838:	0031205f 	.inst	0x0031205f ; NYI
    283c:	4e495f5f 	.inst	0x4e495f5f ; undefined
    2840:	545f3854 	bc.mi	c0f48 <_end+0x37e38>  // bc.first
    2844:	5f455059 	.inst	0x5f455059 ; undefined
    2848:	6973205f 	ldpsw	xzr, x8, [x2, #-104]
    284c:	64656e67 	.inst	0x64656e67 ; undefined
    2850:	61686320 	.inst	0x61686320 ; undefined
    2854:	5f5f0072 	.inst	0x5f5f0072 ; undefined
    2858:	465f5046 	.inst	0x465f5046 ; undefined
    285c:	5f545341 	.inst	0x5f545341 ; undefined
    2860:	46414d46 	.inst	0x46414d46 ; undefined
    2864:	31203436 	adds	w22, w1, #0x80d
    2868:	415f5f00 	.inst	0x415f5f00 ; undefined
    286c:	48435241 	ldxrh	w1, [x18]
    2870:	435f3436 	.inst	0x435f3436 ; undefined
    2874:	45444f4d 	uaddwt	z13.h, z26.h, z4.b
    2878:	4d535f4c 	.inst	0x4d535f4c ; undefined
    287c:	5f4c4c41 	.inst	0x5f4c4c41 ; undefined
    2880:	5f5f005f 	.inst	0x5f5f005f ; undefined
    2884:	756e696c 	.inst	0x756e696c ; undefined
    2888:	00312078 	.inst	0x00312078 ; NYI
    288c:	5f585541 	shl	d1, d10, #24
    2890:	495f554d 	.inst	0x495f554d ; undefined
    2894:	28205245 	stnp	w5, w20, [x18, #-256]
    2898:	6c6f7628 	ldnp	d8, d29, [x17, #-272]
    289c:	6c697461 	ldnp	d1, d29, [x3, #-368]
    28a0:	6e752065 	usubl2	v5.4s, v3.8h, v21.8h
    28a4:	6e676973 	.inst	0x6e676973 ; undefined
    28a8:	69206465 	stgp	x5, x25, [x3, #-1024]
    28ac:	292a746e 	stp	w14, w29, [x3, #-176]
    28b0:	494d4d28 	.inst	0x494d4d28 ; undefined
    28b4:	41425f4f 	.inst	0x41425f4f ; undefined
    28b8:	2b204553 	adds	w19, w10, w0, uxtw #1
    28bc:	30783020 	adr	x0, f2ec1 <_end+0x69db1>
    28c0:	35313230 	cbnz	w16, 64f04 <__bss_size+0x64ce2>
    28c4:	29343430 	stp	w16, w13, [x1, #-96]
    28c8:	5f5f0029 	.inst	0x5f5f0029 ; undefined
    28cc:	544e4955 	bc.pl	9f1f4 <_end+0x160e4>  // bc.nfrst
    28d0:	545f3233 	bc.cc	c0f14 <_end+0x37e04>  // bc.lo, bc.ul, bc.last
    28d4:	5f455059 	.inst	0x5f455059 ; undefined
    28d8:	6e75205f 	usubl2	v31.4s, v2.8h, v21.8h
    28dc:	6e676973 	.inst	0x6e676973 ; undefined
    28e0:	69206465 	stgp	x5, x25, [x3, #-1024]
    28e4:	6c00746e 	stnp	d14, d29, [x3]
    28e8:	6c61636f 	ldnp	d15, d24, [x27, #-496]
    28ec:	6d69745f 	ldp	d31, d29, [x2, #-368]
    28f0:	685f7265 	.inst	0x685f7265 ; undefined
    28f4:	6c646e61 	ldnp	d1, d27, [x19, #-448]
    28f8:	5f007265 	.inst	0x5f007265 ; undefined
    28fc:	4343475f 	.inst	0x4343475f ; undefined
    2900:	4f54415f 	.inst	0x4f54415f ; undefined
    2904:	5f43494d 	.inst	0x5f43494d ; undefined
    2908:	474e4f4c 	.inst	0x474e4f4c ; undefined
    290c:	434f4c5f 	.inst	0x434f4c5f ; undefined
    2910:	52465f4b 	.inst	0x52465f4b ; undefined
    2914:	32204545 	orr	w5, w10, #0x3ffff
    2918:	58554100 	ldr	x0, ad138 <_end+0x24028>
    291c:	5f554d5f 	.inst	0x5f554d5f ; undefined
    2920:	2052534d 	.inst	0x2052534d ; undefined
    2924:	6f762828 	umlal2	v8.4s, v1.8h, v6.h[7]
    2928:	6974616c 	ldpsw	x12, x24, [x11, #-96]
    292c:	7520656c 	.inst	0x7520656c ; undefined
    2930:	6769736e 	.inst	0x6769736e ; undefined
    2934:	2064656e 	.inst	0x2064656e ; undefined
    2938:	2a746e69 	orn	w9, w19, w20, lsr #27
    293c:	4d4d2829 	.inst	0x4d4d2829 ; undefined
    2940:	425f4f49 	.inst	0x425f4f49 ; undefined
    2944:	20455341 	.inst	0x20455341 ; undefined
    2948:	7830202b 	ldeorh	w16, w11, [x1]
    294c:	31323030 	adds	w16, w1, #0xc8c
    2950:	38353035 	ldsetb	w21, w21, [x1]
    2954:	41002929 	.inst	0x41002929 ; undefined
    2958:	4d5f5855 	.inst	0x4d5f5855 ; undefined
    295c:	534c5f55 	.inst	0x534c5f55 ; undefined
    2960:	28282052 	stnp	w18, w8, [x2, #-192]
    2964:	616c6f76 	.inst	0x616c6f76 ; undefined
    2968:	656c6974 	fnmls	z20.h, p2/m, z11.h, z12.h
    296c:	736e7520 	.inst	0x736e7520 ; undefined
    2970:	656e6769 	fnmls	z9.h, p1/m, z27.h, z14.h
    2974:	6e692064 	usubl2	v4.4s, v3.8h, v9.8h
    2978:	28292a74 	stnp	w20, w10, [x19, #-184]
    297c:	4f494d4d 	.inst	0x4f494d4d ; undefined
    2980:	5341425f 	.inst	0x5341425f ; undefined
    2984:	202b2045 	.inst	0x202b2045 ; undefined
    2988:	30307830 	adr	x16, 6388d <__bss_size+0x6366b>
    298c:	30353132 	adr	x18, 6cfb1 <__bss_size+0x6cd8f>
    2990:	29293435 	stp	w21, w13, [x1, #-184]
    2994:	415f5f00 	.inst	0x415f5f00 ; undefined
    2998:	465f4d52 	.inst	0x465f4d52 ; undefined
    299c:	5f363150 	.inst	0x5f363150 ; undefined
    29a0:	4d524f46 	.inst	0x4d524f46 ; undefined
    29a4:	495f5441 	.inst	0x495f5441 ; undefined
    29a8:	20454545 	.inst	0x20454545 ; undefined
    29ac:	50470031 	adr	x17, 909b2 <_end+0x78a2>
    29b0:	4c455346 	.inst	0x4c455346 ; undefined
    29b4:	28282032 	stnp	w18, w8, [x1, #-192]
    29b8:	616c6f76 	.inst	0x616c6f76 ; undefined
    29bc:	656c6974 	fnmls	z20.h, p2/m, z11.h, z12.h
    29c0:	736e7520 	.inst	0x736e7520 ; undefined
    29c4:	656e6769 	fnmls	z9.h, p1/m, z27.h, z14.h
    29c8:	6e692064 	usubl2	v4.4s, v3.8h, v9.8h
    29cc:	292a2074 	stp	w20, w8, [x3, #-176]
    29d0:	494d4d28 	.inst	0x494d4d28 ; undefined
    29d4:	41425f4f 	.inst	0x41425f4f ; undefined
    29d8:	2b204553 	adds	w19, w10, w0, uxtw #1
    29dc:	30783020 	adr	x0, f2fe1 <_end+0x69ed1>
    29e0:	30303230 	adr	x16, 63025 <__bss_size+0x62e03>
    29e4:	29383030 	stp	w16, w12, [x1, #-64]
    29e8:	5f5f0029 	.inst	0x5f5f0029 ; undefined
    29ec:	41484357 	.inst	0x41484357 ; undefined
    29f0:	414d5f52 	.inst	0x414d5f52 ; undefined
    29f4:	205f5f58 	.inst	0x205f5f58 ; undefined
    29f8:	66667830 	.inst	0x66667830 ; undefined
    29fc:	66666666 	.inst	0x66666666 ; undefined
    2a00:	00556666 	.inst	0x00556666 ; undefined
    2a04:	45535047 	ssubwb	z7.h, z2.h, z19.b
    2a08:	28203054 	stnp	w20, w12, [x2, #-256]
    2a0c:	6c6f7628 	ldnp	d8, d29, [x17, #-272]
    2a10:	6c697461 	ldnp	d1, d29, [x3, #-368]
    2a14:	6e752065 	usubl2	v5.4s, v3.8h, v21.8h
    2a18:	6e676973 	.inst	0x6e676973 ; undefined
    2a1c:	69206465 	stgp	x5, x25, [x3, #-1024]
    2a20:	2a20746e 	orn	w14, w3, w0, lsl #29
    2a24:	4d4d2829 	.inst	0x4d4d2829 ; undefined
    2a28:	425f4f49 	.inst	0x425f4f49 ; undefined
    2a2c:	20455341 	.inst	0x20455341 ; undefined
    2a30:	7830202b 	ldeorh	w16, w11, [x1]
    2a34:	30323030 	adr	x16, 67039 <__bss_size+0x66e17>
    2a38:	43313030 	.inst	0x43313030 ; undefined
    2a3c:	5f002929 	.inst	0x5f002929 ; undefined
    2a40:	5a49535f 	.inst	0x5a49535f ; undefined
    2a44:	5f464f45 	.inst	0x5f464f45 ; undefined
    2a48:	474e4f4c 	.inst	0x474e4f4c ; undefined
    2a4c:	4e4f4c5f 	.inst	0x4e4f4c5f ; undefined
    2a50:	205f5f47 	.inst	0x205f5f47 ; undefined
    2a54:	5f5f0038 	.inst	0x5f5f0038 ; undefined
    2a58:	31544c46 	adds	w6, w2, #0x513, lsl #12
    2a5c:	50455f36 	adr	x22, 8d642 <_end+0x4532>
    2a60:	4f4c4953 	.inst	0x4f4c4953 ; undefined
    2a64:	205f5f4e 	.inst	0x205f5f4e ; undefined
    2a68:	36372e39 	tbz	w25, #6, 102c <__bss_size+0xe0a>
    2a6c:	35323635 	cbnz	w21, 67130 <__bss_size+0x66f0e>
    2a70:	30303030 	adr	x16, 63075 <__bss_size+0x62e53>
    2a74:	30303030 	adr	x16, 63079 <__bss_size+0x62e57>
    2a78:	30303030 	adr	x16, 6307d <__bss_size+0x62e5b>
    2a7c:	30303030 	adr	x16, 63081 <__bss_size+0x62e5f>
    2a80:	30303030 	adr	x16, 63085 <__bss_size+0x62e63>
    2a84:	30303030 	adr	x16, 63089 <__bss_size+0x62e67>
    2a88:	30303030 	adr	x16, 6308d <__bss_size+0x62e6b>
    2a8c:	342d6530 	cbz	w16, 5d730 <__bss_size+0x5d50e>
    2a90:	00363146 	.inst	0x00363146 ; NYI
    2a94:	49555f5f 	.inst	0x49555f5f ; undefined
    2a98:	5f38544e 	.inst	0x5f38544e ; undefined
    2a9c:	45505954 	usubwb	z20.h, z10.h, z16.b
    2aa0:	75205f5f 	.inst	0x75205f5f ; undefined
    2aa4:	6769736e 	.inst	0x6769736e ; undefined
    2aa8:	2064656e 	.inst	0x2064656e ; undefined
    2aac:	72616863 	.inst	0x72616863 ; undefined
    2ab0:	535f5f00 	.inst	0x535f5f00 ; undefined
    2ab4:	5f545248 	.inst	0x5f545248 ; undefined
    2ab8:	54444957 	bc.vc	8b3e0 <_end+0x22d0>
    2abc:	205f5f48 	.inst	0x205f5f48 ; undefined
    2ac0:	47003631 	.inst	0x47003631 ; undefined
    2ac4:	53444550 	.inst	0x53444550 ; undefined
    2ac8:	28282030 	stnp	w16, w8, [x1, #-192]
    2acc:	616c6f76 	.inst	0x616c6f76 ; undefined
    2ad0:	656c6974 	fnmls	z20.h, p2/m, z11.h, z12.h
    2ad4:	736e7520 	.inst	0x736e7520 ; undefined
    2ad8:	656e6769 	fnmls	z9.h, p1/m, z27.h, z14.h
    2adc:	6e692064 	usubl2	v4.4s, v3.8h, v9.8h
    2ae0:	292a2074 	stp	w20, w8, [x3, #-176]
    2ae4:	494d4d28 	.inst	0x494d4d28 ; undefined
    2ae8:	41425f4f 	.inst	0x41425f4f ; undefined
    2aec:	2b204553 	adds	w19, w10, w0, uxtw #1
    2af0:	30783020 	adr	x0, f30f5 <_end+0x69fe5>
    2af4:	30303230 	adr	x16, 63139 <__bss_size+0x62f17>
    2af8:	29303430 	stp	w16, w13, [x1, #-128]
    2afc:	5f5f0029 	.inst	0x5f5f0029 ; undefined
    2b00:	5f4d5241 	.inst	0x5f4d5241 ; undefined
    2b04:	54414546 	b.vs	853ac <__bss_end+0x29c>
    2b08:	5f455255 	.inst	0x5f455255 ; undefined
    2b0c:	00534541 	.inst	0x00534541 ; undefined
    2b10:	4c465f5f 	.inst	0x4c465f5f ; undefined
    2b14:	5f343654 	.inst	0x5f343654 ; undefined
    2b18:	4d524f4e 	.inst	0x4d524f4e ; undefined
    2b1c:	58414d5f 	ldr	xzr, 854c4 <__bss_end+0x3b4>
    2b20:	31205f5f 	cmn	w26, #0x817
    2b24:	3739372e 	tbnz	w14, #7, 5208 <__bss_size+0x4fe6>
    2b28:	31333936 	adds	w22, w9, #0xcce
    2b2c:	36383433 	tbz	w19, #7, 31b0 <__bss_size+0x2f8e>
    2b30:	35313332 	cbnz	w18, 65194 <__bss_size+0x64f72>
    2b34:	31383037 	adds	w23, w1, #0xe0c
    2b38:	37323534 	tbnz	w20, #6, 71dc <__bss_size+0x6fba>
    2b3c:	37333234 	tbnz	w20, #6, 9180 <__bss_size+0x8f5e>
    2b40:	30373133 	adr	x19, 71165 <__bss_size+0x70f43>
    2b44:	37353334 	tbnz	w20, #6, ffffffffffffd1a8 <_end+0xfffffffffff74098>
    2b48:	30332b65 	adr	x5, 690b5 <__bss_size+0x68e93>
    2b4c:	34364638 	cbz	w24, 6f410 <__bss_size+0x6f1ee>
    2b50:	48504700 	ldxrh	w0, [x24]
    2b54:	20314e45 	.inst	0x20314e45 ; undefined
    2b58:	6f762828 	umlal2	v8.4s, v1.8h, v6.h[7]
    2b5c:	6974616c 	ldpsw	x12, x24, [x11, #-96]
    2b60:	7520656c 	.inst	0x7520656c ; undefined
    2b64:	6769736e 	.inst	0x6769736e ; undefined
    2b68:	2064656e 	.inst	0x2064656e ; undefined
    2b6c:	20746e69 	.inst	0x20746e69 ; undefined
    2b70:	4d28292a 	.inst	0x4d28292a ; undefined
    2b74:	5f4f494d 	.inst	0x5f4f494d ; undefined
    2b78:	45534142 	saddwb	z2.h, z10.h, z19.b
    2b7c:	30202b20 	adr	x0, 430e1 <__bss_size+0x42ebf>
    2b80:	32303078 	orr	w24, w3, #0x1fff0000
    2b84:	36303030 	tbz	w16, #6, 3188 <__bss_size+0x2f66>
    2b88:	00292938 	.inst	0x00292938 ; NYI
    2b8c:	4e495f5f 	.inst	0x4e495f5f ; undefined
    2b90:	41465f54 	.inst	0x41465f54 ; undefined
    2b94:	32335453 	orr	w19, w2, #0xffffe007
    2b98:	4449575f 	smlslt	z31.h, z26.b, z9.b
    2b9c:	5f5f4854 	.inst	0x5f5f4854 ; undefined
    2ba0:	00343620 	.inst	0x00343620 ; NYI
    2ba4:	52415f5f 	.inst	0x52415f5f ; undefined
    2ba8:	45465f4d 	usubwt	z13.h, z26.h, z6.b
    2bac:	52555441 	.inst	0x52555441 ; undefined
    2bb0:	46425f45 	.inst	0x46425f45 ; undefined
    2bb4:	535f3631 	.inst	0x535f3631 ; undefined
    2bb8:	414c4143 	.inst	0x414c4143 ; undefined
    2bbc:	52415f52 	.inst	0x52415f52 ; undefined
    2bc0:	4d485449 	.inst	0x4d485449 ; undefined
    2bc4:	43495445 	.inst	0x43495445 ; undefined
    2bc8:	46504700 	.inst	0x46504700 ; undefined
    2bcc:	354c4553 	cbnz	w19, 9b474 <_end+0x12364>
    2bd0:	76282820 	.inst	0x76282820 ; undefined
    2bd4:	74616c6f 	.inst	0x74616c6f ; undefined
    2bd8:	20656c69 	.inst	0x20656c69 ; undefined
    2bdc:	69736e75 	ldpsw	x21, x27, [x19, #-104]
    2be0:	64656e67 	.inst	0x64656e67 ; undefined
    2be4:	746e6920 	.inst	0x746e6920 ; undefined
    2be8:	28292a20 	stnp	w0, w10, [x17, #-184]
    2bec:	4f494d4d 	.inst	0x4f494d4d ; undefined
    2bf0:	5341425f 	.inst	0x5341425f ; undefined
    2bf4:	202b2045 	.inst	0x202b2045 ; undefined
    2bf8:	30307830 	adr	x16, 63afd <__bss_size+0x638db>
    2bfc:	30303032 	adr	x18, 63201 <__bss_size+0x62fdf>
    2c00:	29293431 	stp	w17, w13, [x1, #-184]
    2c04:	535f5f00 	.inst	0x535f5f00 ; undefined
    2c08:	4f455a49 	.inst	0x4f455a49 ; undefined
    2c0c:	4f505f46 	.inst	0x4f505f46 ; undefined
    2c10:	45544e49 	uaddwt	z9.h, z18.h, z20.b
    2c14:	205f5f52 	.inst	0x205f5f52 ; undefined
    2c18:	5f5f0038 	.inst	0x5f5f0038 ; undefined
    2c1c:	36544c46 	tbz	w6, #10, ffffffffffffb5a4 <_end+0xfffffffffff72494>
    2c20:	50455f34 	adr	x20, 8d806 <_end+0x46f6>
    2c24:	4f4c4953 	.inst	0x4f4c4953 ; undefined
    2c28:	205f5f4e 	.inst	0x205f5f4e ; undefined
    2c2c:	32322e32 	orr	w18, w17, #0x3ffc000
    2c30:	36343430 	tbz	w16, #6, ffffffffffffb2b4 <_end+0xfffffffffff721a4>
    2c34:	32393430 	orr	w16, w1, #0x1fff80
    2c38:	31333035 	adds	w21, w1, #0xccc
    2c3c:	30383033 	adr	x19, 73241 <__bss_size+0x7301f>
    2c40:	32373438 	orr	w24, w1, #0x7ffe00
    2c44:	33333336 	.inst	0x33333336 ; undefined
    2c48:	31383136 	adds	w22, w9, #0xe0c
    2c4c:	36303436 	tbz	w22, #6, 32d0 <__bss_size+0x30ae>
    2c50:	312d6532 	adds	w18, w9, #0xb59
    2c54:	34364636 	cbz	w22, 6f518 <__bss_size+0x6f2f6>
    2c58:	465f5f00 	.inst	0x465f5f00 ; undefined
    2c5c:	41465f50 	.inst	0x41465f50 ; undefined
    2c60:	465f5453 	.inst	0x465f5453 ; undefined
    2c64:	2046414d 	.inst	0x2046414d ; undefined
    2c68:	5f5f0031 	.inst	0x5f5f0031 ; undefined
    2c6c:	63726161 	.inst	0x63726161 ; undefined
    2c70:	5f343668 	.inst	0x5f343668 ; undefined
    2c74:	0031205f 	.inst	0x0031205f ; NYI
    2c78:	4e495f5f 	.inst	0x4e495f5f ; undefined
    2c7c:	49575f54 	.inst	0x49575f54 ; undefined
    2c80:	5f485444 	shl	d4, d2, #8
    2c84:	3233205f 	orr	wsp, w2, #0x3fe000
    2c88:	465f5f00 	.inst	0x465f5f00 ; undefined
    2c8c:	3231544c 	orr	w12, w2, #0xffff801f
    2c90:	45445f38 	usubwt	z24.h, z25.h, z4.b
    2c94:	414d4943 	.inst	0x414d4943 ; undefined
    2c98:	49445f4c 	.inst	0x49445f4c ; undefined
    2c9c:	205f5f47 	.inst	0x205f5f47 ; undefined
    2ca0:	5f003633 	.inst	0x5f003633 ; undefined
    2ca4:	4343475f 	.inst	0x4343475f ; undefined
    2ca8:	4f54415f 	.inst	0x4f54415f ; undefined
    2cac:	5f43494d 	.inst	0x5f43494d ; undefined
    2cb0:	4e494f50 	.inst	0x4e494f50 ; undefined
    2cb4:	5f524554 	.inst	0x5f524554 ; undefined
    2cb8:	4b434f4c 	sub	w12, w26, w3, lsr #19
    2cbc:	4552465f 	saddwt	z31.h, z18.h, z18.b
    2cc0:	00322045 	.inst	0x00322045 ; NYI
    2cc4:	45445f5f 	usubwt	z31.h, z26.h, z4.b
    2cc8:	414d4943 	.inst	0x414d4943 ; undefined
    2ccc:	49445f4c 	.inst	0x49445f4c ; undefined
    2cd0:	205f5f47 	.inst	0x205f5f47 ; undefined
    2cd4:	5f003633 	.inst	0x5f003633 ; undefined
    2cd8:	4e49555f 	.inst	0x4e49555f ; undefined
    2cdc:	41465f54 	.inst	0x41465f54 ; undefined
    2ce0:	36315453 	tbz	w19, #6, 5768 <__bss_size+0x5546>
    2ce4:	5059545f 	adr	xzr, b576e <_end+0x2c65e>
    2ce8:	205f5f45 	.inst	0x205f5f45 ; undefined
    2cec:	676e6f6c 	.inst	0x676e6f6c ; undefined
    2cf0:	736e7520 	.inst	0x736e7520 ; undefined
    2cf4:	656e6769 	fnmls	z9.h, p1/m, z27.h, z14.h
    2cf8:	6e692064 	usubl2	v4.4s, v3.8h, v9.8h
    2cfc:	55410074 	.inst	0x55410074 ; undefined
    2d00:	554d5f58 	.inst	0x554d5f58 ; undefined
    2d04:	204f495f 	.inst	0x204f495f ; undefined
    2d08:	6f762828 	umlal2	v8.4s, v1.8h, v6.h[7]
    2d0c:	6974616c 	ldpsw	x12, x24, [x11, #-96]
    2d10:	7520656c 	.inst	0x7520656c ; undefined
    2d14:	6769736e 	.inst	0x6769736e ; undefined
    2d18:	2064656e 	.inst	0x2064656e ; undefined
    2d1c:	2a746e69 	orn	w9, w19, w20, lsr #27
    2d20:	4d4d2829 	.inst	0x4d4d2829 ; undefined
    2d24:	425f4f49 	.inst	0x425f4f49 ; undefined
    2d28:	20455341 	.inst	0x20455341 ; undefined
    2d2c:	7830202b 	ldeorh	w16, w11, [x1]
    2d30:	31323030 	adds	w16, w1, #0xc8c
    2d34:	30343035 	adr	x21, 6b339 <__bss_size+0x6b117>
    2d38:	5f002929 	.inst	0x5f002929 ; undefined
    2d3c:	4454535f 	smlslb	z31.h, z26.b, z20.b
    2d40:	45565f43 	usubwt	z3.h, z26.h, z22.b
    2d44:	4f495352 	.inst	0x4f495352 ; undefined
    2d48:	205f5f4e 	.inst	0x205f5f4e ; undefined
    2d4c:	37313032 	tbnz	w18, #6, 5350 <__bss_size+0x512e>
    2d50:	004c3031 	.inst	0x004c3031 ; undefined
    2d54:	43475f5f 	.inst	0x43475f5f ; undefined
    2d58:	54415f43 	b.cc	85940 <__bss_end+0x830>  // b.lo, b.ul, b.last
    2d5c:	43494d4f 	.inst	0x43494d4f ; undefined
    2d60:	4148435f 	.inst	0x4148435f ; undefined
    2d64:	5f323352 	.inst	0x5f323352 ; undefined
    2d68:	4f4c5f54 	.inst	0x4f4c5f54 ; undefined
    2d6c:	465f4b43 	.inst	0x465f4b43 ; undefined
    2d70:	20454552 	.inst	0x20454552 ; undefined
    2d74:	5f5f0032 	.inst	0x5f5f0032 ; undefined
    2d78:	5f4d5241 	.inst	0x5f4d5241 ; undefined
    2d7c:	54414546 	b.vs	85624 <__bss_end+0x514>
    2d80:	5f455255 	.inst	0x5f455255 ; undefined
    2d84:	00454d54 	.inst	0x00454d54 ; undefined
    2d88:	6e755f5f 	uqrshl	v31.8h, v26.8h, v21.8h
    2d8c:	31207869 	adds	w9, w3, #0x81e
    2d90:	435f5f00 	.inst	0x435f5f00 ; undefined
    2d94:	5f524148 	.inst	0x5f524148 ; undefined
    2d98:	5f544942 	.inst	0x5f544942 ; undefined
    2d9c:	0038205f 	.inst	0x0038205f ; NYI
    2da0:	54535f5f 	bc.nv	a9988 <_end+0x20878>
    2da4:	485f4344 	ldxrh	w4, [x26]
    2da8:	4554534f 	ssubwb	z15.h, z26.h, z20.b
    2dac:	205f5f44 	.inst	0x205f5f44 ; undefined
    2db0:	5f5f0030 	.inst	0x5f5f0030 ; undefined
    2db4:	455a4953 	uaddwb	z19.h, z10.h, z26.b
    2db8:	4449575f 	smlslt	z31.h, z26.b, z9.b
    2dbc:	5f5f4854 	.inst	0x5f5f4854 ; undefined
    2dc0:	00343620 	.inst	0x00343620 ; NYI
    2dc4:	52415f5f 	.inst	0x52415f5f ; undefined
    2dc8:	45465f4d 	usubwt	z13.h, z26.h, z6.b
    2dcc:	52555441 	.inst	0x52555441 ; undefined
    2dd0:	54425f45 	b.pl	879b8 <__bss_end+0x28a8>  // b.nfrst
    2dd4:	45445f49 	usubwt	z9.h, z26.h, z4.b
    2dd8:	4c554146 	.inst	0x4c554146 ; undefined
    2ddc:	50470054 	adr	x20, 90de6 <_end+0x7cd6>
    2de0:	4c455346 	.inst	0x4c455346 ; undefined
    2de4:	28282034 	stnp	w20, w8, [x1, #-192]
    2de8:	616c6f76 	.inst	0x616c6f76 ; undefined
    2dec:	656c6974 	fnmls	z20.h, p2/m, z11.h, z12.h
    2df0:	736e7520 	.inst	0x736e7520 ; undefined
    2df4:	656e6769 	fnmls	z9.h, p1/m, z27.h, z14.h
    2df8:	6e692064 	usubl2	v4.4s, v3.8h, v9.8h
    2dfc:	292a2074 	stp	w20, w8, [x3, #-176]
    2e00:	494d4d28 	.inst	0x494d4d28 ; undefined
    2e04:	41425f4f 	.inst	0x41425f4f ; undefined
    2e08:	2b204553 	adds	w19, w10, w0, uxtw #1
    2e0c:	30783020 	adr	x0, f3411 <_end+0x6a301>
    2e10:	30303230 	adr	x16, 63455 <__bss_size+0x63233>
    2e14:	29303130 	stp	w16, w12, [x9, #-128]
    2e18:	5f5f0029 	.inst	0x5f5f0029 ; undefined
    2e1c:	31544c46 	adds	w6, w2, #0x513, lsl #12
    2e20:	41485f36 	.inst	0x41485f36 ; undefined
    2e24:	55515f53 	.inst	0x55515f53 ; undefined
    2e28:	5f544549 	.inst	0x5f544549 ; undefined
    2e2c:	5f4e414e 	.inst	0x5f4e414e ; undefined
    2e30:	0031205f 	.inst	0x0031205f ; NYI
    2e34:	4f4c5f5f 	.inst	0x4f4c5f5f ; undefined
    2e38:	575f474e 	.inst	0x575f474e ; undefined
    2e3c:	48544449 	ldxrh	w9, [x2]
    2e40:	36205f5f 	tbz	wzr, #4, 3a28 <__bss_size+0x3806>
    2e44:	5f5f0034 	.inst	0x5f5f0034 ; undefined
    2e48:	5f544e49 	.inst	0x5f544e49 ; undefined
    2e4c:	5341454c 	.inst	0x5341454c ; undefined
    2e50:	4d5f3854 	.inst	0x4d5f3854 ; undefined
    2e54:	5f5f5841 	.inst	0x5f5f5841 ; undefined
    2e58:	37783020 	tbnz	w0, #15, 345c <__bss_size+0x323a>
    2e5c:	5f5f0066 	.inst	0x5f5f0066 ; undefined
    2e60:	43524141 	.inst	0x43524141 ; undefined
    2e64:	45343648 	uqshrnt	z8.h, z18.s, #12
    2e68:	005f5f42 	.inst	0x005f5f42 ; undefined
    2e6c:	43475f5f 	.inst	0x43475f5f ; undefined
    2e70:	54415f43 	b.cc	85a58 <__bss_end+0x948>  // b.lo, b.ul, b.last
    2e74:	43494d4f 	.inst	0x43494d4f ; undefined
    2e78:	4f4c4c5f 	.inst	0x4f4c4c5f ; undefined
    2e7c:	4c5f474e 	.inst	0x4c5f474e ; undefined
    2e80:	5f4b434f 	.inst	0x5f4b434f ; undefined
    2e84:	45455246 	ssubwb	z6.h, z18.h, z5.b
    2e88:	5f003220 	.inst	0x5f003220 ; undefined
    2e8c:	544c465f 	bc.nv	9b754 <_end+0x12644>
    2e90:	58414d5f 	ldr	xzr, 85838 <__bss_end+0x728>
    2e94:	5058455f 	adr	xzr, b373e <_end+0x2a62e>
    2e98:	31205f5f 	cmn	w26, #0x817
    2e9c:	74003832 	.inst	0x74003832 ; undefined
    2ea0:	00657079 	.inst	0x00657079 ; undefined
    2ea4:	54415f5f 	bc.nv	85a8c <__bss_end+0x97c>
    2ea8:	43494d4f 	.inst	0x43494d4f ; undefined
    2eac:	5143415f 	sub	wsp, w10, #0xd0, lsl #12
    2eb0:	4c45525f 	.inst	0x4c45525f ; undefined
    2eb4:	5f003420 	.inst	0x5f003420 ; undefined
    2eb8:	544e495f 	bc.nv	9f7e0 <_end+0x166d0>
    2ebc:	545f3436 	bc.vs	c1540 <_end+0x38430>
    2ec0:	5f455059 	.inst	0x5f455059 ; undefined
    2ec4:	6f6c205f 	umlal2	v31.4s, v2.8h, v12.h[2]
    2ec8:	6920676e 	stgp	x14, x25, [x27, #-1024]
    2ecc:	5f00746e 	.inst	0x5f00746e ; undefined
    2ed0:	544c465f 	bc.nv	9b798 <_end+0x12688>
    2ed4:	4e494d5f 	.inst	0x4e494d5f ; undefined
    2ed8:	31205f5f 	cmn	w26, #0x817
    2edc:	3537312e 	cbnz	w14, 71500 <__bss_size+0x712de>
    2ee0:	33343934 	.inst	0x33343934 ; undefined
    2ee4:	32383035 	orr	w21, w1, #0x1fff00
    2ee8:	37383232 	tbnz	w18, #7, 352c <__bss_size+0x330a>
    2eec:	39373035 	strb	w21, [x1, #3532]
    2ef0:	33373836 	.inst	0x33373836 ; undefined
    2ef4:	37333536 	tbnz	w22, #6, 9598 <__bss_size+0x9376>
    2ef8:	32323232 	orr	w18, w17, #0x7ffc000
    2efc:	38363534 	.inst	0x38363534 ; undefined
    2f00:	38332d65 	.inst	0x38332d65 ; undefined
    2f04:	5f5f0046 	.inst	0x5f5f0046 ; undefined
    2f08:	4c42444c 	.inst	0x4c42444c ; undefined
    2f0c:	4345445f 	.inst	0x4345445f ; undefined
    2f10:	4c414d49 	.inst	0x4c414d49 ; undefined
    2f14:	4749445f 	.inst	0x4749445f ; undefined
    2f18:	33205f5f 	.inst	0x33205f5f ; undefined
    2f1c:	5f5f0036 	.inst	0x5f5f0036 ; undefined
    2f20:	5f4d5241 	.inst	0x5f4d5241 ; undefined
    2f24:	54414546 	b.vs	857cc <__bss_end+0x6bc>
    2f28:	5f455255 	.inst	0x5f455255 ; undefined
    2f2c:	32455653 	.inst	0x32455653 ; undefined
    2f30:	5345415f 	.inst	0x5345415f ; undefined
    2f34:	495f5f00 	.inst	0x495f5f00 ; undefined
    2f38:	4c5f544e 	.inst	0x4c5f544e ; undefined
    2f3c:	54534145 	b.pl	a9764 <_end+0x20654>  // b.nfrst
    2f40:	575f3233 	.inst	0x575f3233 ; undefined
    2f44:	48544449 	ldxrh	w9, [x2]
    2f48:	33205f5f 	.inst	0x33205f5f ; undefined
    2f4c:	5f5f0032 	.inst	0x5f5f0032 ; undefined
    2f50:	43554e47 	.inst	0x43554e47 ; undefined
    2f54:	4449575f 	smlslt	z31.h, z26.b, z9.b
    2f58:	58455f45 	ldr	x5, 8db40 <_end+0x4a30>
    2f5c:	54554345 	b.pl	ad7c4 <_end+0x246b4>  // b.nfrst
    2f60:	5f4e4f49 	.inst	0x5f4e4f49 ; undefined
    2f64:	52414843 	.inst	0x52414843 ; undefined
    2f68:	5f544553 	.inst	0x5f544553 ; undefined
    2f6c:	454d414e 	saddwb	z14.h, z10.h, z13.b
    2f70:	54552220 	b.eq	ad3b4 <_end+0x242a4>  // b.none
    2f74:	32332d46 	orr	w6, w10, #0x1ffe000
    2f78:	0022454c 	.inst	0x0022454c ; NYI
    2f7c:	65726f63 	fnmls	z3.h, p3/m, z27.h, z18.h
    2f80:	6d69745f 	ldp	d31, d29, [x2, #-368]
    2f84:	685f7265 	.inst	0x685f7265 ; undefined
    2f88:	6c646e61 	ldnp	d1, d27, [x19, #-448]
    2f8c:	47007265 	.inst	0x47007265 ; undefined
    2f90:	4e454850 	.inst	0x4e454850 ; undefined
    2f94:	28282030 	stnp	w16, w8, [x1, #-192]
    2f98:	616c6f76 	.inst	0x616c6f76 ; undefined
    2f9c:	656c6974 	fnmls	z20.h, p2/m, z11.h, z12.h
    2fa0:	736e7520 	.inst	0x736e7520 ; undefined
    2fa4:	656e6769 	fnmls	z9.h, p1/m, z27.h, z14.h
    2fa8:	6e692064 	usubl2	v4.4s, v3.8h, v9.8h
    2fac:	292a2074 	stp	w20, w8, [x3, #-176]
    2fb0:	494d4d28 	.inst	0x494d4d28 ; undefined
    2fb4:	41425f4f 	.inst	0x41425f4f ; undefined
    2fb8:	2b204553 	adds	w19, w10, w0, uxtw #1
    2fbc:	30783020 	adr	x0, f35c1 <_end+0x6a4b1>
    2fc0:	30303230 	adr	x16, 63605 <__bss_size+0x633e3>
    2fc4:	29343630 	stp	w16, w13, [x17, #-96]
    2fc8:	5f5f0029 	.inst	0x5f5f0029 ; undefined
    2fcc:	5f4d5241 	.inst	0x5f4d5241 ; undefined
    2fd0:	4e4f454e 	.inst	0x4e4f454e ; undefined
    2fd4:	5f003120 	.inst	0x5f003120 ; undefined
    2fd8:	6e696c5f 	umin	v31.8h, v2.8h, v9.8h
    2fdc:	5f5f7875 	sqdmlsl	s21, h3, v15.h[5]
    2fe0:	5f003120 	.inst	0x5f003120 ; undefined
    2fe4:	4d52415f 	.inst	0x4d52415f ; undefined
    2fe8:	4145465f 	.inst	0x4145465f ; undefined
    2fec:	45525554 	ssubwt	z20.h, z10.h, z18.b
    2ff0:	4556535f 	ssubwb	z31.h, z26.h, z22.b
    2ff4:	54414d5f 	bc.nv	8599c <__bss_end+0x88c>
    2ff8:	5f4c554d 	shl	d13, d10, #12
    2ffc:	32335046 	orr	w6, w2, #0xffffe003
    3000:	415f5f00 	.inst	0x415f5f00 ; undefined
    3004:	465f4d52 	.inst	0x465f4d52 ; undefined
    3008:	55544145 	.inst	0x55544145 ; undefined
    300c:	535f4552 	.inst	0x535f4552 ; undefined
    3010:	00334148 	.inst	0x00334148 ; NYI
    3014:	4e495f5f 	.inst	0x4e495f5f ; undefined
    3018:	454c5f54 	usubwt	z20.h, z26.h, z12.b
    301c:	33545341 	.inst	0x33545341 ; undefined
    3020:	59545f32 	.inst	0x59545f32 ; undefined
    3024:	5f5f4550 	.inst	0x5f5f4550 ; undefined
    3028:	746e6920 	.inst	0x746e6920 ; undefined
    302c:	555f5f00 	.inst	0x555f5f00 ; undefined
    3030:	5f544e49 	.inst	0x5f544e49 ; undefined
    3034:	5341454c 	.inst	0x5341454c ; undefined
    3038:	5f343654 	.inst	0x5f343654 ; undefined
    303c:	45505954 	usubwb	z20.h, z10.h, z16.b
    3040:	6c205f5f 	stnp	d31, d23, [x26, #-512]
    3044:	20676e6f 	.inst	0x20676e6f ; undefined
    3048:	69736e75 	ldpsw	x21, x27, [x19, #-104]
    304c:	64656e67 	.inst	0x64656e67 ; undefined
    3050:	746e6920 	.inst	0x746e6920 ; undefined
    3054:	72657300 	.inst	0x72657300 ; undefined
    3058:	61685f72 	.inst	0x61685f72 ; undefined
    305c:	656c646e 	fnmls	z14.h, p1/m, z3.h, z12.h
    3060:	5f5f0072 	.inst	0x5f5f0072 ; undefined
    3064:	5f4d5241 	.inst	0x5f4d5241 ; undefined
    3068:	54414546 	b.vs	85910 <__bss_end+0x800>
    306c:	5f455255 	.inst	0x5f455255 ; undefined
    3070:	454d554e 	ssubwt	z14.h, z10.h, z13.b
    3074:	5f434952 	.inst	0x5f434952 ; undefined
    3078:	4d58414d 	.inst	0x4d58414d ; undefined
    307c:	31204e49 	adds	w9, w18, #0x813
    3080:	535f5f00 	.inst	0x535f5f00 ; undefined
    3084:	5f455a49 	.inst	0x5f455a49 ; undefined
    3088:	5f58414d 	.inst	0x5f58414d ; undefined
    308c:	7830205f 	steorh	w16, [x2]
    3090:	66666666 	.inst	0x66666666 ; undefined
    3094:	66666666 	.inst	0x66666666 ; undefined
    3098:	66666666 	.inst	0x66666666 ; undefined
    309c:	66666666 	.inst	0x66666666 ; undefined
    30a0:	5f004c55 	.inst	0x5f004c55 ; undefined
    30a4:	4d52415f 	.inst	0x4d52415f ; undefined
    30a8:	494c415f 	.inst	0x494c415f ; undefined
    30ac:	4d5f4e47 	.inst	0x4d5f4e47 ; undefined
    30b0:	535f5841 	.inst	0x535f5841 ; undefined
    30b4:	4b434154 	sub	w20, w10, w3, lsr #16
    30b8:	5257505f 	.inst	0x5257505f ; undefined
    30bc:	00363120 	.inst	0x00363120 ; NYI
    30c0:	43475f5f 	.inst	0x43475f5f ; undefined
    30c4:	54415f43 	b.cc	85cac <__bss_end+0xb9c>  // b.lo, b.ul, b.last
    30c8:	43494d4f 	.inst	0x43494d4f ; undefined
    30cc:	4f48535f 	.inst	0x4f48535f ; undefined
    30d0:	4c5f5452 	.inst	0x4c5f5452 ; undefined
    30d4:	5f4b434f 	.inst	0x5f4b434f ; undefined
    30d8:	45455246 	ssubwb	z6.h, z18.h, z5.b
    30dc:	5f003220 	.inst	0x5f003220 ; undefined
    30e0:	4d52415f 	.inst	0x4d52415f ; undefined
    30e4:	4145465f 	.inst	0x4145465f ; undefined
    30e8:	45525554 	ssubwt	z20.h, z10.h, z18.b
    30ec:	4556535f 	ssubwb	z31.h, z26.h, z22.b
    30f0:	4d535f32 	.inst	0x4d535f32 ; undefined
    30f4:	5f5f0034 	.inst	0x5f5f0034 ; undefined
    30f8:	5f544e49 	.inst	0x5f544e49 ; undefined
    30fc:	54534146 	b.vs	a9924 <_end+0x20814>
    3100:	4d5f3631 	.inst	0x4d5f3631 ; undefined
    3104:	5f5f5841 	.inst	0x5f5f5841 ; undefined
    3108:	37783020 	tbnz	w0, #15, 370c <__bss_size+0x34ea>
    310c:	66666666 	.inst	0x66666666 ; undefined
    3110:	66666666 	.inst	0x66666666 ; undefined
    3114:	66666666 	.inst	0x66666666 ; undefined
    3118:	4c666666 	.inst	0x4c666666 ; undefined
    311c:	465f5f00 	.inst	0x465f5f00 ; undefined
    3120:	455f544c 	ssubwt	z12.h, z2.h, z31.b
    3124:	4c495350 	.inst	0x4c495350 ; undefined
    3128:	5f5f4e4f 	.inst	0x5f5f4e4f ; undefined
    312c:	312e3120 	adds	w0, w9, #0xb8c
    3130:	39303239 	strb	w25, [x17, #3084]
    3134:	35393832 	cbnz	w18, 75838 <__bss_size+0x75616>
    3138:	38373035 	ldsetb	w23, w21, [x1]
    313c:	30353231 	adr	x17, 6d781 <__bss_size+0x6d55f>
    3140:	30303030 	adr	x16, 63745 <__bss_size+0x63523>
    3144:	30303030 	adr	x16, 63749 <__bss_size+0x63527>
    3148:	30303030 	adr	x16, 6374d <__bss_size+0x6352b>
    314c:	30303030 	adr	x16, 63751 <__bss_size+0x6352f>
    3150:	2d653030 	ldp	s16, s12, [x1, #-216]
    3154:	5f004637 	.inst	0x5f004637 ; undefined
    3158:	544c465f 	bc.nv	9ba20 <_end+0x12910>
    315c:	4d5f3436 	.inst	0x4d5f3436 ; undefined
    3160:	455f4e49 	uaddwt	z9.h, z18.h, z31.b
    3164:	5f5f5058 	.inst	0x5f5f5058 ; undefined
    3168:	312d2820 	adds	w0, w1, #0xb4a
    316c:	29313230 	stp	w16, w12, [x17, #-120]
    3170:	465f5f00 	.inst	0x465f5f00 ; undefined
    3174:	455f544c 	ssubwt	z12.h, z2.h, z31.b
    3178:	5f4c4156 	.inst	0x5f4c4156 ; undefined
    317c:	4854454d 	ldxrh	w13, [x10]
    3180:	545f444f 	b.nv	c1a08 <_end+0x388f8>
    3184:	38315f53 	.inst	0x38315f53 ; undefined
    3188:	5f313636 	.inst	0x5f313636 ; undefined
    318c:	205f5f33 	.inst	0x205f5f33 ; undefined
    3190:	5f5f0030 	.inst	0x5f5f0030 ; undefined
    3194:	5f4c4244 	.inst	0x5f4c4244 ; undefined
    3198:	5f534148 	.inst	0x5f534148 ; undefined
    319c:	49464e49 	.inst	0x49464e49 ; undefined
    31a0:	5954494e 	.inst	0x5954494e ; undefined
    31a4:	31205f5f 	cmn	w26, #0x817
    31a8:	495f5f00 	.inst	0x495f5f00 ; undefined
    31ac:	3436544e 	cbz	w14, 6fc34 <__bss_size+0x6fa12>
    31b0:	6328435f 	.inst	0x6328435f ; undefined
    31b4:	20632029 	.inst	0x20632029 ; undefined
    31b8:	4c202323 	.inst	0x4c202323 ; undefined
    31bc:	465f5f00 	.inst	0x465f5f00 ; undefined
    31c0:	485f544c 	ldxrh	w12, [x2]
    31c4:	515f5341 	sub	w1, w26, #0x7d4, lsl #12
    31c8:	54454955 	bc.pl	8daf0 <_end+0x49e0>  // bc.nfrst
    31cc:	4e414e5f 	.inst	0x4e414e5f ; undefined
    31d0:	31205f5f 	cmn	w26, #0x817
    31d4:	505f5f00 	adr	x0, c1db6 <_end+0x38ca6>
    31d8:	49445254 	.inst	0x49445254 ; undefined
    31dc:	545f4646 	b.vs	c1aa4 <_end+0x38994>
    31e0:	5f455059 	.inst	0x5f455059 ; undefined
    31e4:	6f6c205f 	umlal2	v31.4s, v2.8h, v12.h[2]
    31e8:	6920676e 	stgp	x14, x25, [x27, #-1024]
    31ec:	5f00746e 	.inst	0x5f00746e ; undefined
    31f0:	544e495f 	bc.nv	9fb18 <_end+0x16a08>
    31f4:	5341465f 	.inst	0x5341465f ; undefined
    31f8:	5f363154 	.inst	0x5f363154 ; undefined
    31fc:	45505954 	usubwb	z20.h, z10.h, z16.b
    3200:	6c205f5f 	stnp	d31, d23, [x26, #-512]
    3204:	20676e6f 	.inst	0x20676e6f ; undefined
    3208:	00746e69 	.inst	0x00746e69 ; undefined
    320c:	42445f5f 	.inst	0x42445f5f ; undefined
    3210:	4f4e5f4c 	.inst	0x4f4e5f4c ; undefined
    3214:	4d5f4d52 	.inst	0x4d5f4d52 ; undefined
    3218:	5f5f5841 	.inst	0x5f5f5841 ; undefined
    321c:	64282820 	.inst	0x64282820 ; undefined
    3220:	6c62756f 	ldnp	d15, d29, [x11, #-480]
    3224:	2e312965 	.inst	0x2e312965 ; undefined
    3228:	36373937 	tbz	w23, #6, 194c <__bss_size+0x172a>
    322c:	33313339 	.inst	0x33313339 ; undefined
    3230:	32363834 	orr	w20, w1, #0x1fffc00
    3234:	37353133 	tbnz	w19, #6, ffffffffffffd858 <_end+0xfffffffffff74748>
    3238:	34313830 	cbz	w16, 6593c <__bss_size+0x6571a>
    323c:	34373235 	cbz	w21, 71880 <__bss_size+0x7165e>
    3240:	33373332 	.inst	0x33373332 ; undefined
    3244:	34303731 	cbz	w17, 63928 <__bss_size+0x63706>
    3248:	65373533 	.inst	0x65373533 ; undefined
    324c:	3830332b 	ldsetb	w16, w11, [x25]
    3250:	5f00294c 	.inst	0x5f00294c ; undefined
    3254:	4d52415f 	.inst	0x4d52415f ; undefined
    3258:	4145465f 	.inst	0x4145465f ; undefined
    325c:	45525554 	ssubwt	z20.h, z10.h, z18.b
    3260:	4556535f 	ssubwb	z31.h, z26.h, z22.b
    3264:	48535f32 	ldxrh	w18, [x25]
    3268:	47003341 	.inst	0x47003341 ; undefined
    326c:	524c4350 	.inst	0x524c4350 ; undefined
    3270:	28282030 	stnp	w16, w8, [x1, #-192]
    3274:	616c6f76 	.inst	0x616c6f76 ; undefined
    3278:	656c6974 	fnmls	z20.h, p2/m, z11.h, z12.h
    327c:	736e7520 	.inst	0x736e7520 ; undefined
    3280:	656e6769 	fnmls	z9.h, p1/m, z27.h, z14.h
    3284:	6e692064 	usubl2	v4.4s, v3.8h, v9.8h
    3288:	292a2074 	stp	w20, w8, [x3, #-176]
    328c:	494d4d28 	.inst	0x494d4d28 ; undefined
    3290:	41425f4f 	.inst	0x41425f4f ; undefined
    3294:	2b204553 	adds	w19, w10, w0, uxtw #1
    3298:	30783020 	adr	x0, f389d <_end+0x6a78d>
    329c:	30303230 	adr	x16, 638e1 <__bss_size+0x636bf>
    32a0:	29383230 	stp	w16, w12, [x17, #-64]
    32a4:	5f5f0029 	.inst	0x5f5f0029 ; undefined
    32a8:	465f5046 	.inst	0x465f5046 ; undefined
    32ac:	5f545341 	.inst	0x5f545341 ; undefined
    32b0:	20414d46 	.inst	0x20414d46 ; undefined
    32b4:	5f5f0031 	.inst	0x5f5f0031 ; undefined
    32b8:	33544c46 	.inst	0x33544c46 ; undefined
    32bc:	485f5832 	ldxrh	w18, [x1]
    32c0:	515f5341 	sub	w1, w26, #0x7d4, lsl #12
    32c4:	54454955 	bc.pl	8dbec <_end+0x4adc>  // bc.nfrst
    32c8:	4e414e5f 	.inst	0x4e414e5f ; undefined
    32cc:	31205f5f 	cmn	w26, #0x817
    32d0:	445f5f00 	umlslt	z0.h, z24.b, z31.b
    32d4:	4d5f4c42 	.inst	0x4d5f4c42 ; undefined
    32d8:	315f5841 	adds	w1, w2, #0x7d6, lsl #12
    32dc:	58455f30 	ldr	x16, 8dec0 <_end+0x4db0>
    32e0:	205f5f50 	.inst	0x205f5f50 ; undefined
    32e4:	00383033 	.inst	0x00383033 ; NYI
    32e8:	43475f5f 	.inst	0x43475f5f ; undefined
    32ec:	54415f43 	b.cc	85ed4 <__bss_end+0xdc4>  // b.lo, b.ul, b.last
    32f0:	43494d4f 	.inst	0x43494d4f ; undefined
    32f4:	544e495f 	bc.nv	9fc1c <_end+0x16b0c>
    32f8:	434f4c5f 	.inst	0x434f4c5f ; undefined
    32fc:	52465f4b 	.inst	0x52465f4b ; undefined
    3300:	32204545 	orr	w5, w10, #0x3ffff
    3304:	475f5f00 	.inst	0x475f5f00 ; undefined
    3308:	415f4343 	.inst	0x415f4343 ; undefined
    330c:	494d4f54 	.inst	0x494d4f54 ; undefined
    3310:	48435f43 	ldxrh	w3, [x26]
    3314:	4c5f5241 	.inst	0x4c5f5241 ; undefined
    3318:	5f4b434f 	.inst	0x5f4b434f ; undefined
    331c:	45455246 	ssubwb	z6.h, z18.h, z5.b
    3320:	5f003220 	.inst	0x5f003220 ; undefined
    3324:	4749425f 	.inst	0x4749425f ; undefined
    3328:	54534547 	b.vc	a9bd0 <_end+0x20ac0>
    332c:	494c415f 	.inst	0x494c415f ; undefined
    3330:	454d4e47 	uaddwt	z7.h, z18.h, z13.b
    3334:	5f5f544e 	shl	d14, d2, #31
    3338:	00363120 	.inst	0x00363120 ; NYI
    333c:	4c465f5f 	.inst	0x4c465f5f ; undefined
    3340:	38323154 	ldsetb	w18, w20, [x10]
    3344:	4e45445f 	.inst	0x4e45445f ; undefined
    3348:	5f4d524f 	.inst	0x5f4d524f ; undefined
    334c:	5f4e494d 	.inst	0x5f4e494d ; undefined
    3350:	2e36205f 	usubl	v31.8h, v2.8b, v22.8b
    3354:	31353734 	adds	w20, w25, #0xd4d
    3358:	31313537 	adds	w23, w9, #0xc4d
    335c:	38333439 	.inst	0x38333439 ; undefined
    3360:	31353230 	adds	w16, w17, #0xd4c
    3364:	32393031 	orr	w17, w1, #0xfff80
    3368:	38333434 	.inst	0x38333434 ; undefined
    336c:	32383539 	orr	w25, w9, #0x3fff00
    3370:	34363732 	cbz	w18, 6fa54 <__bss_size+0x6f832>
    3374:	65353536 	.inst	0x65353536 ; undefined
    3378:	3639342d 	tbz	w13, #7, 59fc <__bss_size+0x57da>
    337c:	32314636 	orr	w22, w17, #0xffff8001
    3380:	5f5f0038 	.inst	0x5f5f0038 ; undefined
    3384:	43524141 	.inst	0x43524141 ; undefined
    3388:	5f343648 	.inst	0x5f343648 ; undefined
    338c:	444f4d43 	umlalt	z3.h, z10.b, z15.b
    3390:	4c5f4c45 	.inst	0x4c5f4c45 ; undefined
    3394:	45475241 	ssubwb	z1.h, z18.h, z7.b
    3398:	5f005f5f 	.inst	0x5f005f5f ; undefined
    339c:	544c465f 	bc.nv	9bc64 <_end+0x12b54>
    33a0:	4e494d5f 	.inst	0x4e494d5f ; undefined
    33a4:	5058455f 	adr	xzr, b3c4e <_end+0x2ab3e>
    33a8:	28205f5f 	stnp	wzr, w23, [x26, #-256]
    33ac:	3532312d 	cbnz	w13, 679d0 <__bss_size+0x677ae>
    33b0:	5f5f0029 	.inst	0x5f5f0029 ; undefined
    33b4:	43445453 	.inst	0x43445453 ; undefined
    33b8:	31205f5f 	cmn	w26, #0x817
    33bc:	415f5f00 	.inst	0x415f5f00 ; undefined
    33c0:	465f4d52 	.inst	0x465f4d52 ; undefined
    33c4:	55544145 	.inst	0x55544145 ; undefined
    33c8:	4d5f4552 	.inst	0x4d5f4552 ; undefined
    33cc:	554d5441 	.inst	0x554d5441 ; undefined
    33d0:	4e495f4c 	.inst	0x4e495f4c ; undefined
    33d4:	5f003854 	.inst	0x5f003854 ; undefined
    33d8:	544c465f 	bc.nv	9bca0 <_end+0x12b90>
    33dc:	5f383231 	.inst	0x5f383231 ; undefined
    33e0:	4d524f4e 	.inst	0x4d524f4e ; undefined
    33e4:	58414d5f 	ldr	xzr, 85d8c <__bss_end+0xc7c>
    33e8:	31205f5f 	cmn	w26, #0x817
    33ec:	3938312e 	strb	w14, [x9, #3596]
    33f0:	34313337 	cbz	w23, 65a54 <__bss_size+0x65832>
    33f4:	35333539 	cbnz	w25, 69a98 <__bss_size+0x69876>
    33f8:	31333237 	adds	w23, w17, #0xccc
    33fc:	30353637 	adr	x23, 6dac1 <__bss_size+0x6d89f>
    3400:	35373538 	cbnz	w24, 71aa4 <__bss_size+0x71882>
    3404:	36323339 	tbz	w25, #6, 7a68 <__bss_size+0x7846>
    3408:	30383236 	adr	x22, 73a4d <__bss_size+0x7382b>
    340c:	32303730 	orr	w16, w25, #0x3fff0000
    3410:	39342b65 	strb	w5, [x27, #3338]
    3414:	31463233 	adds	w19, w17, #0x18c, lsl #12
    3418:	5f003832 	.inst	0x5f003832 ; undefined
    341c:	464c455f 	.inst	0x464c455f ; undefined
    3420:	31205f5f 	cmn	w26, #0x817
    3424:	465f5f00 	.inst	0x465f5f00 ; undefined
    3428:	3631544c 	tbz	w12, #6, 5eb0 <__bss_size+0x5c8e>
    342c:	58414d5f 	ldr	xzr, 85dd4 <__bss_end+0xcc4>
    3430:	36205f5f 	tbz	wzr, #4, 4018 <__bss_size+0x3df6>
    3434:	3035352e 	adr	x14, 6dad9 <__bss_size+0x6d8b7>
    3438:	30303034 	adr	x20, 63a3d <__bss_size+0x6381b>
    343c:	30303030 	adr	x16, 63a41 <__bss_size+0x6381f>
    3440:	30303030 	adr	x16, 63a45 <__bss_size+0x63823>
    3444:	30303030 	adr	x16, 63a49 <__bss_size+0x63827>
    3448:	30303030 	adr	x16, 63a4d <__bss_size+0x6382b>
    344c:	30303030 	adr	x16, 63a51 <__bss_size+0x6382f>
    3450:	30303030 	adr	x16, 63a55 <__bss_size+0x63833>
    3454:	30303030 	adr	x16, 63a59 <__bss_size+0x63837>
    3458:	46342b65 	.inst	0x46342b65 ; undefined
    345c:	47003631 	.inst	0x47003631 ; undefined
    3460:	45534650 	saddwt	z16.h, z18.h, z19.b
    3464:	2820314c 	stnp	w12, w12, [x10, #-256]
    3468:	6c6f7628 	ldnp	d8, d29, [x17, #-272]
    346c:	6c697461 	ldnp	d1, d29, [x3, #-368]
    3470:	6e752065 	usubl2	v5.4s, v3.8h, v21.8h
    3474:	6e676973 	.inst	0x6e676973 ; undefined
    3478:	69206465 	stgp	x5, x25, [x3, #-1024]
    347c:	2a20746e 	orn	w14, w3, w0, lsl #29
    3480:	4d4d2829 	.inst	0x4d4d2829 ; undefined
    3484:	425f4f49 	.inst	0x425f4f49 ; undefined
    3488:	20455341 	.inst	0x20455341 ; undefined
    348c:	7830202b 	ldeorh	w16, w11, [x1]
    3490:	30323030 	adr	x16, 67a95 <__bss_size+0x67873>
    3494:	34303030 	cbz	w16, 63a98 <__bss_size+0x63876>
    3498:	5f002929 	.inst	0x5f002929 ; undefined
    349c:	4d52415f 	.inst	0x4d52415f ; undefined
    34a0:	5343505f 	.inst	0x5343505f ; undefined
    34a4:	5041415f 	adr	xzr, 85cce <__bss_end+0xbbe>
    34a8:	34365343 	cbz	w3, 6ff10 <__bss_size+0x6fcee>
    34ac:	5f003120 	.inst	0x5f003120 ; undefined
    34b0:	4e49555f 	.inst	0x4e49555f ; undefined
    34b4:	454c5f54 	usubwt	z20.h, z26.h, z12.b
    34b8:	33545341 	.inst	0x33545341 ; undefined
    34bc:	414d5f32 	.inst	0x414d5f32 ; undefined
    34c0:	205f5f58 	.inst	0x205f5f58 ; undefined
    34c4:	66667830 	.inst	0x66667830 ; undefined
    34c8:	66666666 	.inst	0x66666666 ; undefined
    34cc:	00556666 	.inst	0x00556666 ; undefined
    34d0:	4c465f5f 	.inst	0x4c465f5f ; undefined
    34d4:	58323354 	ldr	x20, 67b3c <__bss_size+0x6791a>
    34d8:	58414d5f 	ldr	xzr, 85e80 <__bss_end+0xd70>
    34dc:	5f30315f 	.inst	0x5f30315f ; undefined
    34e0:	5f505845 	.inst	0x5f505845 ; undefined
    34e4:	3033205f 	adr	xzr, 698ed <__bss_size+0x696cb>
    34e8:	5f5f0038 	.inst	0x5f5f0038 ; undefined
    34ec:	4d544e49 	.inst	0x4d544e49 ; undefined
    34f0:	545f5841 	b.ne	c1ff8 <_end+0x38ee8>  // b.any
    34f4:	5f455059 	.inst	0x5f455059 ; undefined
    34f8:	6f6c205f 	umlal2	v31.4s, v2.8h, v12.h[2]
    34fc:	6920676e 	stgp	x14, x25, [x27, #-1024]
    3500:	5f00746e 	.inst	0x5f00746e ; undefined
    3504:	544c465f 	bc.nv	9bdcc <_end+0x12cbc>
    3508:	4d5f3631 	.inst	0x4d5f3631 ; undefined
    350c:	315f5841 	adds	w1, w2, #0x7d6, lsl #12
    3510:	58455f30 	ldr	x16, 8e0f4 <_end+0x4fe4>
    3514:	205f5f50 	.inst	0x205f5f50 ; undefined
    3518:	5f5f0034 	.inst	0x5f5f0034 ; undefined
    351c:	33544c46 	.inst	0x33544c46 ; undefined
    3520:	4e5f5832 	uzp2	v18.8h, v1.8h, v31.8h
    3524:	5f4d524f 	.inst	0x5f4d524f ; undefined
    3528:	5f58414d 	.inst	0x5f58414d ; undefined
    352c:	2e31205f 	usubl	v31.8h, v2.8b, v17.8b
    3530:	36373937 	tbz	w23, #6, 1c54 <__bss_size+0x1a32>
    3534:	33313339 	.inst	0x33313339 ; undefined
    3538:	32363834 	orr	w20, w1, #0x1fffc00
    353c:	37353133 	tbnz	w19, #6, ffffffffffffdb60 <_end+0xfffffffffff74a50>
    3540:	34313830 	cbz	w16, 65c44 <__bss_size+0x65a22>
    3544:	34373235 	cbz	w21, 71b88 <__bss_size+0x71966>
    3548:	33373332 	.inst	0x33373332 ; undefined
    354c:	34303731 	cbz	w17, 63c30 <__bss_size+0x63a0e>
    3550:	65373533 	.inst	0x65373533 ; undefined
    3554:	3830332b 	ldsetb	w16, w11, [x25]
    3558:	78323346 	ldseth	w18, w6, [x26]
    355c:	4c495f00 	.inst	0x4c495f00 ; undefined
    3560:	00323350 	.inst	0x00323350 ; NYI
    3564:	4c465f5f 	.inst	0x4c465f5f ; undefined
    3568:	5f343654 	.inst	0x5f343654 ; undefined
    356c:	4f4e4544 	.inst	0x4f4e4544 ; undefined
    3570:	4d5f4d52 	.inst	0x4d5f4d52 ; undefined
    3574:	5f5f4e49 	.inst	0x5f5f4e49 ; undefined
    3578:	392e3420 	strb	w0, [x1, #2957]
    357c:	35363034 	cbnz	w20, 6fb80 <__bss_size+0x6f95e>
    3580:	38353436 	.inst	0x38353436 ; undefined
    3584:	34323134 	cbz	w20, 67ba8 <__bss_size+0x67986>
    3588:	34343536 	cbz	w22, 6bc2c <__bss_size+0x6ba0a>
    358c:	35363731 	cbnz	w17, 6fc70 <__bss_size+0x6fa4e>
    3590:	39373836 	strb	w22, [x1, #3534]
    3594:	38363832 	.inst	0x38363832 ; undefined
    3598:	33313232 	.inst	0x33313232 ; undefined
    359c:	2d653237 	ldp	s23, s12, [x17, #-216]
    35a0:	46343233 	.inst	0x46343233 ; undefined
    35a4:	5f003436 	.inst	0x5f003436 ; undefined
    35a8:	4d52415f 	.inst	0x4d52415f ; undefined
    35ac:	4145465f 	.inst	0x4145465f ; undefined
    35b0:	45525554 	ssubwt	z20.h, z10.h, z18.b
    35b4:	4352435f 	.inst	0x4352435f ; undefined
    35b8:	5f003233 	.inst	0x5f003233 ; undefined
    35bc:	544c465f 	bc.nv	9be84 <_end+0x12d74>
    35c0:	4d5f3233 	.inst	0x4d5f3233 ; undefined
    35c4:	315f5841 	adds	w1, w2, #0x7d6, lsl #12
    35c8:	58455f30 	ldr	x16, 8e1ac <_end+0x509c>
    35cc:	205f5f50 	.inst	0x205f5f50 ; undefined
    35d0:	5f003833 	.inst	0x5f003833 ; undefined
    35d4:	4454535f 	smlslb	z31.h, z26.b, z20.b
    35d8:	54555f43 	b.cc	ae1c0 <_end+0x250b0>  // b.lo, b.ul, b.last
    35dc:	32335f46 	orr	w6, w26, #0xffffe01f
    35e0:	31205f5f 	cmn	w26, #0x817
    35e4:	58554100 	ldr	x0, ade04 <_end+0x24cf4>
    35e8:	5152495f 	sub	wsp, w10, #0x492, lsl #12
    35ec:	20312820 	.inst	0x20312820 ; undefined
    35f0:	32203c3c 	orr	w28, w1, #0xffff
    35f4:	5f002939 	.inst	0x5f002939 ; undefined
    35f8:	5254505f 	.inst	0x5254505f ; undefined
    35fc:	46464944 	.inst	0x46464944 ; undefined
    3600:	4449575f 	smlslt	z31.h, z26.b, z9.b
    3604:	5f5f4854 	.inst	0x5f5f4854 ; undefined
    3608:	00343620 	.inst	0x00343620 ; NYI
    360c:	4e495f5f 	.inst	0x4e495f5f ; undefined
    3610:	454c5f54 	usubwt	z20.h, z26.h, z12.b
    3614:	33545341 	.inst	0x33545341 ; undefined
    3618:	414d5f32 	.inst	0x414d5f32 ; undefined
    361c:	205f5f58 	.inst	0x205f5f58 ; undefined
    3620:	66377830 	.inst	0x66377830 ; undefined
    3624:	66666666 	.inst	0x66666666 ; undefined
    3628:	5f006666 	.inst	0x5f006666 ; undefined
    362c:	4e49555f 	.inst	0x4e49555f ; undefined
    3630:	41465f54 	.inst	0x41465f54 ; undefined
    3634:	34365453 	cbz	w19, 700bc <__bss_size+0x6fe9a>
    3638:	5059545f 	adr	xzr, b60c2 <_end+0x2cfb2>
    363c:	205f5f45 	.inst	0x205f5f45 ; undefined
    3640:	676e6f6c 	.inst	0x676e6f6c ; undefined
    3644:	736e7520 	.inst	0x736e7520 ; undefined
    3648:	656e6769 	fnmls	z9.h, p1/m, z27.h, z14.h
    364c:	6e692064 	usubl2	v4.4s, v3.8h, v9.8h
    3650:	5f5f0074 	.inst	0x5f5f0074 ; undefined
    3654:	4c42444c 	.inst	0x4c42444c ; undefined
    3658:	58414d5f 	ldr	xzr, 86000 <__bss_end+0xef0>
    365c:	5f30315f 	.inst	0x5f30315f ; undefined
    3660:	5f505845 	.inst	0x5f505845 ; undefined
    3664:	3934205f 	strb	wzr, [x2, #3336]
    3668:	5f003233 	.inst	0x5f003233 ; undefined
    366c:	544c465f 	bc.nv	9bf34 <_end+0x12e24>
    3670:	4d5f3233 	.inst	0x4d5f3233 ; undefined
    3674:	5f5f5841 	.inst	0x5f5f5841 ; undefined
    3678:	342e3320 	cbz	w0, 5fcdc <__bss_size+0x5faba>
    367c:	32383230 	orr	w16, w17, #0x1fff00
    3680:	36363433 	tbz	w19, #6, fffffffffffffd04 <_end+0xfffffffffff76bf4>
    3684:	32353833 	orr	w19, w1, #0x3fff800
    3688:	39353838 	strb	w24, [x1, #3406]
    368c:	37313138 	tbnz	w24, #6, 5cb0 <__bss_size+0x5a8e>
    3690:	38313430 	.inst	0x38313430 ; undefined
    3694:	34383433 	cbz	w19, 73d18 <__bss_size+0x73af6>
    3698:	39363135 	strb	w21, [x9, #3468]
    369c:	2b653532 	.inst	0x2b653532 ; undefined
    36a0:	33463833 	.inst	0x33463833 ; undefined
    36a4:	5f5f0032 	.inst	0x5f5f0032 ; undefined
    36a8:	5f4c4244 	.inst	0x5f4c4244 ; undefined
    36ac:	49535045 	.inst	0x49535045 ; undefined
    36b0:	5f4e4f4c 	.inst	0x5f4e4f4c ; undefined
    36b4:	2828205f 	stnp	wzr, w8, [x2, #-192]
    36b8:	62756f64 	.inst	0x62756f64 ; undefined
    36bc:	3229656c 	orr	w12, w11, #0xff81ffff
    36c0:	3032322e 	adr	x14, 67d05 <__bss_size+0x67ae3>
    36c4:	30363434 	adr	x20, 6fd49 <__bss_size+0x6fb27>
    36c8:	35323934 	cbnz	w20, 67dec <__bss_size+0x67bca>
    36cc:	33313330 	.inst	0x33313330 ; undefined
    36d0:	38303830 	.inst	0x38303830 ; undefined
    36d4:	36323734 	tbz	w20, #6, 7db8 <__bss_size+0x7b96>
    36d8:	36333333 	tbz	w19, #6, 9d3c <__bss_size+0x9b1a>
    36dc:	36313831 	tbz	w17, #6, 5de0 <__bss_size+0x5bbe>
    36e0:	32363034 	orr	w20, w1, #0x7ffc00
    36e4:	36312d65 	tbz	w5, #6, 5c90 <__bss_size+0x5a6e>
    36e8:	5f00294c 	.inst	0x5f00294c ; undefined
    36ec:	4152505f 	.inst	0x4152505f ; undefined
    36f0:	5f414d47 	.inst	0x5f414d47 ; undefined
    36f4:	45444552 	saddwt	z18.h, z10.h, z4.b
    36f8:	454e4946 	uaddwb	z6.h, z10.h, z14.b
    36fc:	5458455f 	bc.nv	b3fa4 <_end+0x2ae94>
    3700:	454d414e 	saddwb	z14.h, z10.h, z13.b
    3704:	5f003120 	.inst	0x5f003120 ; undefined
    3708:	4749535f 	.inst	0x4749535f ; undefined
    370c:	4f54415f 	.inst	0x4f54415f ; undefined
    3710:	5f43494d 	.inst	0x5f43494d ; undefined
    3714:	45505954 	usubwb	z20.h, z10.h, z16.b
    3718:	69205f5f 	stgp	xzr, x23, [x26, #-1024]
    371c:	5f00746e 	.inst	0x5f00746e ; undefined
    3720:	544c465f 	bc.nv	9bfe8 <_end+0x12ed8>
    3724:	5f383231 	.inst	0x5f383231 ; undefined
    3728:	5f534148 	.inst	0x5f534148 ; undefined
    372c:	4f4e4544 	.inst	0x4f4e4544 ; undefined
    3730:	5f5f4d52 	.inst	0x5f5f4d52 ; undefined
    3734:	5f003120 	.inst	0x5f003120 ; undefined
    3738:	4d52415f 	.inst	0x4d52415f ; undefined
    373c:	4145465f 	.inst	0x4145465f ; undefined
    3740:	45525554 	ssubwt	z20.h, z10.h, z18.b
    3744:	4556535f 	ssubwb	z31.h, z26.h, z22.b
    3748:	415f5f00 	.inst	0x415f5f00 ; undefined
    374c:	465f4d52 	.inst	0x465f4d52 ; undefined
    3750:	55544145 	.inst	0x55544145 ; undefined
    3754:	465f4552 	.inst	0x465f4552 ; undefined
    3758:	3120414d 	adds	w13, w10, #0x810
    375c:	465f5f00 	.inst	0x465f5f00 ; undefined
    3760:	3231544c 	orr	w12, w2, #0xffff801f
    3764:	53495f38 	.inst	0x53495f38 ; undefined
    3768:	4345495f 	.inst	0x4345495f ; undefined
    376c:	3530365f 	cbnz	wzr, 63e34 <__bss_size+0x63c12>
    3770:	5f5f3935 	sqdmlal	s21, h9, v15.h[5]
    3774:	5f003220 	.inst	0x5f003220 ; undefined
    3778:	42444c5f 	.inst	0x42444c5f ; undefined
    377c:	41485f4c 	.inst	0x41485f4c ; undefined
    3780:	45445f53 	usubwt	z19.h, z26.h, z4.b
    3784:	4d524f4e 	.inst	0x4d524f4e ; undefined
    3788:	31205f5f 	cmn	w26, #0x817
    378c:	465f5f00 	.inst	0x465f5f00 ; undefined
    3790:	3436544c 	cbz	w12, 70218 <__bss_size+0x6fff6>
    3794:	4e414d5f 	.inst	0x4e414d5f ; undefined
    3798:	49445f54 	.inst	0x49445f54 ; undefined
    379c:	205f5f47 	.inst	0x205f5f47 ; undefined
    37a0:	5f003335 	.inst	0x5f003335 ; undefined
    37a4:	544c465f 	bc.nv	9c06c <_end+0x12f5c>
    37a8:	5341485f 	.inst	0x5341485f ; undefined
    37ac:	4e45445f 	.inst	0x4e45445f ; undefined
    37b0:	5f4d524f 	.inst	0x5f4d524f ; undefined
    37b4:	0031205f 	.inst	0x0031205f ; NYI
    37b8:	4e495f5f 	.inst	0x4e495f5f ; undefined
    37bc:	41465f54 	.inst	0x41465f54 ; undefined
    37c0:	34365453 	cbz	w19, 70248 <__bss_size+0x70026>
    37c4:	4449575f 	smlslt	z31.h, z26.b, z9.b
    37c8:	5f5f4854 	.inst	0x5f5f4854 ; undefined
    37cc:	00343620 	.inst	0x00343620 ; NYI
    37d0:	42445f5f 	.inst	0x42445f5f ; undefined
    37d4:	45445f4c 	usubwt	z12.h, z26.h, z4.b
    37d8:	414d4943 	.inst	0x414d4943 ; undefined
    37dc:	49445f4c 	.inst	0x49445f4c ; undefined
    37e0:	205f5f47 	.inst	0x205f5f47 ; undefined
    37e4:	76003731 	.inst	0x76003731 ; undefined
    37e8:	6f746365 	umlsl2	v5.4s, v27.8h, v4.h[3]
    37ec:	00532e72 	.inst	0x00532e72 ; undefined
    37f0:	6d6f682f 	ldp	d15, d26, [x1, #-272]
    37f4:	64612f65 	.inst	0x64612f65 ; undefined
    37f8:	69672f76 	ldpsw	x22, x11, [x27, #-200]
    37fc:	66772f74 	.inst	0x66772f74 ; undefined
    3800:	4f2f6873 	.inst	0x4f2f6873 ; undefined
    3804:	5f494453 	.inst	0x5f494453 ; undefined
    3808:	5554434e 	.inst	0x5554434e ; undefined
    380c:	62616c2f 	.inst	0x62616c2f ; undefined
    3810:	33302f73 	.inst	0x33302f73 ; undefined
    3814:	554e4700 	.inst	0x554e4700 ; undefined
    3818:	20534120 	.inst	0x20534120 ; undefined
    381c:	38332e32 	.inst	0x38332e32 ; undefined
    3820:	61747300 	.inst	0x61747300 ; undefined
    3824:	532e7472 	.inst	0x532e7472 ; undefined
    3828:	72747300 	.inst	0x72747300 ; undefined
    382c:	006e656c 	.inst	0x006e656c ; undefined
    3830:	736d656d 	.inst	0x736d656d ; undefined
    3834:	73007465 	.inst	0x73007465 ; undefined
    3838:	6d637274 	ldp	d20, d28, [x19, #-464]
    383c:	5f5f0070 	.inst	0x5f5f0070 ; undefined
    3840:	745f7267 	.inst	0x745f7267 ; undefined
    3844:	5200706f 	eor	w15, w3, #0x1fffffff
    3848:	45555145 	ssubwb	z5.h, z10.h, z21.b
    384c:	535f5453 	.inst	0x535f5453 ; undefined
    3850:	45434355 	saddwb	z21.h, z26.h, z3.b
    3854:	30204445 	adr	x5, 440dd <__bss_size+0x43ebb>
    3858:	30303878 	adr	x24, 63f65 <__bss_size+0x63d43>
    385c:	30303030 	adr	x16, 63e61 <__bss_size+0x63c3f>
    3860:	61750030 	.inst	0x61750030 ; undefined
    3864:	5f307472 	sqshl	s18, s3, #16
    3868:	63746567 	.inst	0x63746567 ; undefined
    386c:	54454700 	b.eq	8e14c <_end+0x503c>  // b.none
    3870:	414f425f 	.inst	0x414f425f ; undefined
    3874:	525f4452 	.inst	0x525f4452 ; undefined
    3878:	53495645 	.inst	0x53495645 ; undefined
    387c:	204e4f49 	.inst	0x204e4f49 ; undefined
    3880:	30307830 	adr	x16, 64785 <__bss_size+0x64563>
    3884:	30303130 	adr	x16, 63ea9 <__bss_size+0x63c87>
    3888:	70003230 	adr	x16, 3ecf <__bss_size+0x3cad>
    388c:	746e6972 	.inst	0x746e6972 ; undefined
    3890:	7000635f 	adr	xzr, 44fb <__bss_size+0x42d9>
    3894:	746e6972 	.inst	0x746e6972 ; undefined
    3898:	6100695f 	.inst	0x6100695f ; undefined
    389c:	00736772 	.inst	0x00736772 ; undefined
    38a0:	6e697270 	uabdl2	v16.4s, v19.8h, v9.8h
    38a4:	00735f74 	.inst	0x00735f74 ; undefined
    38a8:	6e697270 	uabdl2	v16.4s, v19.8h, v9.8h
    38ac:	00785f74 	.inst	0x00785f74 ; undefined
    38b0:	4c49414d 	.inst	0x4c49414d ; undefined
    38b4:	5f584f42 	.inst	0x5f584f42 ; undefined
    38b8:	44414552 	smlalt	z18.h, z10.b, z1.b
    38bc:	76282820 	.inst	0x76282820 ; undefined
    38c0:	74616c6f 	.inst	0x74616c6f ; undefined
    38c4:	20656c69 	.inst	0x20656c69 ; undefined
    38c8:	69736e75 	ldpsw	x21, x27, [x19, #-104]
    38cc:	64656e67 	.inst	0x64656e67 ; undefined
    38d0:	746e6920 	.inst	0x746e6920 ; undefined
    38d4:	4d28292a 	.inst	0x4d28292a ; undefined
    38d8:	424c4941 	.inst	0x424c4941 ; undefined
    38dc:	425f584f 	.inst	0x425f584f ; undefined
    38e0:	29455341 	ldp	w1, w20, [x26, #40]
    38e4:	61750029 	.inst	0x61750029 ; undefined
    38e8:	5f317472 	sqshl	s18, s3, #17
    38ec:	646e6573 	.inst	0x646e6573 ; undefined
    38f0:	72617500 	.inst	0x72617500 ; undefined
    38f4:	705f3174 	adr	x20, c1f23 <_end+0x38e13>
    38f8:	00737475 	.inst	0x00737475 ; undefined
    38fc:	64616572 	.inst	0x64616572 ; undefined
    3900:	4d00635f 	st3	{v31.h, v0.h, v1.h}[4], [x26]
    3904:	424c4941 	.inst	0x424c4941 ; undefined
    3908:	525f584f 	.inst	0x525f584f ; undefined
    390c:	4f505345 	.inst	0x4f505345 ; undefined
    3910:	2045534e 	.inst	0x2045534e ; undefined
    3914:	30387830 	adr	x16, 74819 <__bss_size+0x745f7>
    3918:	30303030 	adr	x16, 63f1d <__bss_size+0x63cfb>
    391c:	67003030 	.inst	0x67003030 ; undefined
    3920:	755f7465 	.inst	0x755f7465 ; undefined
    3924:	30747261 	adr	x1, ec771 <_end+0x63661>
    3928:	6b6c635f 	.inst	0x6b6c635f ; undefined
    392c:	7461725f 	.inst	0x7461725f ; undefined
    3930:	41540065 	.inst	0x41540065 ; undefined
    3934:	45525f47 	usubwt	z7.h, z26.h, z18.b
    3938:	53455551 	.inst	0x53455551 ; undefined
    393c:	4f435f54 	.inst	0x4f435f54 ; undefined
    3940:	30204544 	adr	x4, 441e9 <__bss_size+0x43fc7>
    3944:	30303078 	adr	x24, 63f51 <__bss_size+0x63d2f>
    3948:	30303030 	adr	x16, 63f4d <__bss_size+0x63d2b>
    394c:	61760030 	.inst	0x61760030 ; undefined
    3950:	0065756c 	.inst	0x0065756c ; undefined
    3954:	72675f5f 	.inst	0x72675f5f ; undefined
    3958:	66666f5f 	.inst	0x66666f5f ; undefined
    395c:	414d0073 	.inst	0x414d0073 ; undefined
    3960:	4f424c49 	.inst	0x4f424c49 ; undefined
    3964:	52575f58 	.inst	0x52575f58 ; undefined
    3968:	20455449 	.inst	0x20455449 ; undefined
    396c:	6f762828 	umlal2	v8.4s, v1.8h, v6.h[7]
    3970:	6974616c 	ldpsw	x12, x24, [x11, #-96]
    3974:	7520656c 	.inst	0x7520656c ; undefined
    3978:	6769736e 	.inst	0x6769736e ; undefined
    397c:	2064656e 	.inst	0x2064656e ; undefined
    3980:	2a746e69 	orn	w9, w19, w20, lsr #27
    3984:	414d2829 	.inst	0x414d2829 ; undefined
    3988:	4f424c49 	.inst	0x4f424c49 ; undefined
    398c:	41425f58 	.inst	0x41425f58 ; undefined
    3990:	2b204553 	adds	w19, w10, w0, uxtw #1
    3994:	32783020 	.inst	0x32783020 ; undefined
    3998:	00292930 	.inst	0x00292930 ; NYI
    399c:	4c49414d 	.inst	0x4c49414d ; undefined
    39a0:	5f584f42 	.inst	0x5f584f42 ; undefined
    39a4:	45534142 	saddwb	z2.h, z10.h, z19.b
    39a8:	494d4d20 	.inst	0x494d4d20 ; undefined
    39ac:	41425f4f 	.inst	0x41425f4f ; undefined
    39b0:	2b204553 	adds	w19, w10, w0, uxtw #1
    39b4:	62783020 	.inst	0x62783020 ; undefined
    39b8:	00303838 	.inst	0x00303838 ; NYI
    39bc:	4c49414d 	.inst	0x4c49414d ; undefined
    39c0:	5f584f42 	.inst	0x5f584f42 ; undefined
    39c4:	54504d45 	b.pl	a436c <_end+0x1b25c>  // b.nfrst
    39c8:	78302059 	ldeorh	w16, w25, [x2]
    39cc:	30303034 	adr	x20, 63fd1 <__bss_size+0x63daf>
    39d0:	30303030 	adr	x16, 63fd5 <__bss_size+0x63db3>
    39d4:	58454800 	ldr	x0, 8e2d4 <_end+0x51c4>
    39d8:	5254535f 	.inst	0x5254535f ; undefined
    39dc:	00474e49 	.inst	0x00474e49 ; undefined
    39e0:	74726175 	.inst	0x74726175 ; undefined
    39e4:	65735f30 	fnmla	z16.h, p7/m, z25.h, z19.h
    39e8:	7500646e 	.inst	0x7500646e ; undefined
    39ec:	30747261 	adr	x1, ec839 <_end+0x63729>
    39f0:	7475705f 	.inst	0x7475705f ; undefined
    39f4:	65670073 	fmla	z19.h, p0/m, z3.h, z7.h
    39f8:	61755f74 	.inst	0x61755f74 ; undefined
    39fc:	5f307472 	sqshl	s18, s3, #16
    3a00:	5f6b6c63 	.inst	0x5f6b6c63 ; undefined
    3a04:	74617473 	.inst	0x74617473 ; undefined
    3a08:	61750065 	.inst	0x61750065 ; undefined
    3a0c:	5f317472 	sqshl	s18, s3, #17
    3a10:	63746567 	.inst	0x63746567 ; undefined
    3a14:	72617500 	.inst	0x72617500 ; undefined
    3a18:	695f3174 	ldpsw	x20, x12, [x11, #248]
    3a1c:	0074696e 	.inst	0x0074696e ; undefined
    3a20:	4c49414d 	.inst	0x4c49414d ; undefined
    3a24:	5f584f42 	.inst	0x5f584f42 ; undefined
    3a28:	4c4c5546 	.inst	0x4c4c5546 ; undefined
    3a2c:	38783020 	ldsetlb	w24, w0, [x1]
    3a30:	30303030 	adr	x16, 64035 <__bss_size+0x63e13>
    3a34:	00303030 	.inst	0x00303030 ; NYI
    3a38:	6e697270 	uabdl2	v16.4s, v19.8h, v9.8h
    3a3c:	4b4f5f74 	sub	w20, w27, w15, lsr #23
    3a40:	49414d00 	.inst	0x49414d00 ; undefined
    3a44:	584f424c 	ldr	x12, a228c <_end+0x1917c>
    3a48:	5f48435f 	.inst	0x5f48435f ; undefined
    3a4c:	4d52415f 	.inst	0x4d52415f ; undefined
    3a50:	20435632 	.inst	0x20435632 ; undefined
    3a54:	4e450038 	.inst	0x4e450038 ; undefined
    3a58:	41545f44 	.inst	0x41545f44 ; undefined
    3a5c:	78302047 	ldeorh	w16, w7, [x2]
    3a60:	30303030 	adr	x16, 64065 <__bss_size+0x63e43>
    3a64:	30303030 	adr	x16, 64069 <__bss_size+0x63e47>
    3a68:	765f5f00 	.inst	0x765f5f00 ; undefined
    3a6c:	666f5f72 	.inst	0x666f5f72 ; undefined
    3a70:	5f007366 	.inst	0x5f007366 ; undefined
    3a74:	5f72765f 	sqshl	d31, d18, #50
    3a78:	00706f74 	.inst	0x00706f74 ; undefined
    3a7c:	74726175 	.inst	0x74726175 ; undefined
    3a80:	6e695f30 	uqrshl	v16.8h, v25.8h, v9.8h
    3a84:	47007469 	.inst	0x47007469 ; undefined
    3a88:	565f5445 	.inst	0x565f5445 ; undefined
    3a8c:	454d5f43 	usubwt	z3.h, z26.h, z13.b
    3a90:	4444414d 	smlalb	z13.h, z10.b, z4.b
    3a94:	78302052 	ldeorh	w16, w18, [x2]
    3a98:	31303030 	adds	w16, w1, #0xc0c
    3a9c:	36303030 	tbz	w16, #6, 40a0 <__bss_size+0x3e7e>
    3aa0:	735f5f00 	.inst	0x735f5f00 ; undefined
    3aa4:	6b636174 	.inst	0x6b636174 ; undefined
    3aa8:	49414d00 	.inst	0x49414d00 ; undefined
    3aac:	584f424c 	ldr	x12, a22f4 <_end+0x191e4>
    3ab0:	4154535f 	.inst	0x4154535f ; undefined
    3ab4:	20535554 	.inst	0x20535554 ; undefined
    3ab8:	6f762828 	umlal2	v8.4s, v1.8h, v6.h[7]
    3abc:	6974616c 	ldpsw	x12, x24, [x11, #-96]
    3ac0:	7520656c 	.inst	0x7520656c ; undefined
    3ac4:	6769736e 	.inst	0x6769736e ; undefined
    3ac8:	2064656e 	.inst	0x2064656e ; undefined
    3acc:	2a746e69 	orn	w9, w19, w20, lsr #27
    3ad0:	414d2829 	.inst	0x414d2829 ; undefined
    3ad4:	4f424c49 	.inst	0x4f424c49 ; undefined
    3ad8:	41425f58 	.inst	0x41425f58 ; undefined
    3adc:	2b204553 	adds	w19, w10, w0, uxtw #1
    3ae0:	31783020 	adds	w0, w1, #0xe0c, lsl #12
    3ae4:	00292938 	.inst	0x00292938 ; NYI
    3ae8:	55514552 	.inst	0x55514552 ; undefined
    3aec:	5f545345 	.inst	0x5f545345 ; undefined
    3af0:	4c494146 	.inst	0x4c494146 ; undefined
    3af4:	30204445 	adr	x5, 4437d <__bss_size+0x4415b>
    3af8:	30303878 	adr	x24, 64205 <__bss_size+0x63fe3>
    3afc:	30303030 	adr	x16, 64101 <__bss_size+0x63edf>
    3b00:	65670031 	fmla	z17.h, p0/m, z1.h, z7.h
    3b04:	6f625f74 	.inst	0x6f625f74 ; undefined
    3b08:	5f647261 	sqdmlsl	s1, h19, v4.h[2]
    3b0c:	69766572 	ldpsw	x18, x25, [x11, #-80]
    3b10:	6e6f6973 	.inst	0x6e6f6973 ; undefined
    3b14:	69616d00 	ldpsw	x0, x27, [x8, #-248]
    3b18:	786f626c 	ldumaxlh	w15, w12, [x19]
    3b1c:	6c61635f 	ldnp	d31, d24, [x26, #-496]
    3b20:	6567006c 	fmla	z12.h, p0/m, z3.h, z7.h
    3b24:	63765f74 	.inst	0x63765f74 ; undefined
    3b28:	6d656d5f 	ldp	d31, d27, [x10, #-432]
    3b2c:	5f79726f 	sqdmlsl	s15, h19, v9.h[3]
    3b30:	72646461 	.inst	0x72646461 ; undefined
    3b34:	69616d00 	ldpsw	x0, x27, [x8, #-248]
    3b38:	786f626c 	ldumaxlh	w15, w12, [x19]
    3b3c:	5f424600 	.inst	0x5f424600 ; undefined
    3b40:	5f594850 	.inst	0x5f594850 ; undefined
    3b44:	47494548 	.inst	0x47494548 ; undefined
    3b48:	31205448 	adds	w8, w2, #0x815
    3b4c:	00303830 	.inst	0x00303830 ; NYI
    3b50:	565f4246 	.inst	0x565f4246 ; undefined
    3b54:	5f545249 	.inst	0x5f545249 ; undefined
    3b58:	54444957 	bc.vc	8c480 <_end+0x3370>
    3b5c:	39312048 	strb	w8, [x2, #3144]
    3b60:	46003032 	.inst	0x46003032 ; undefined
    3b64:	55425f42 	.inst	0x55425f42 ; undefined
    3b68:	52454646 	.inst	0x52454646 ; undefined
    3b6c:	5a49535f 	.inst	0x5a49535f ; undefined
    3b70:	46282045 	.inst	0x46282045 ; undefined
    3b74:	48505f42 	ldxrh	w2, [x26]
    3b78:	49575f59 	.inst	0x49575f59 ; undefined
    3b7c:	2a485444 	orr	w4, w2, w8, lsr #21
    3b80:	505f4246 	adr	x6, c23ca <_end+0x392ba>
    3b84:	485f5948 	ldxrh	w8, [x10]
    3b88:	48474945 	ldxrh	w5, [x10]
    3b8c:	66002954 	.inst	0x66002954 ; undefined
    3b90:	61625f62 	.inst	0x61625f62 ; undefined
    3b94:	46006573 	.inst	0x46006573 ; undefined
    3b98:	49565f42 	.inst	0x49565f42 ; undefined
    3b9c:	485f5452 	ldxrh	w18, [x2]
    3ba0:	48474945 	ldxrh	w5, [x10]
    3ba4:	30312054 	adr	x20, 65fad <__bss_size+0x65d8b>
    3ba8:	69003038 	stgp	x24, x12, [x1]
    3bac:	69685773 	ldpsw	x19, x21, [x27, #-192]
    3bb0:	50006574 	adr	x20, 485e <__bss_size+0x463c>
    3bb4:	4c455849 	.inst	0x4c455849 ; undefined
    3bb8:	44524f5f 	umlalt	z31.h, z26.b, z18.b
    3bbc:	525f5245 	.inst	0x525f5245 ; undefined
    3bc0:	30204247 	adr	x7, 44409 <__bss_size+0x441e7>
    3bc4:	46003178 	.inst	0x46003178 ; undefined
    3bc8:	464f5f42 	.inst	0x464f5f42 ; undefined
    3bcc:	54455346 	b.vs	8e634 <_end+0x5524>
    3bd0:	3020585f 	adr	xzr, 446d9 <__bss_size+0x444b7>
    3bd4:	4e454c00 	.inst	0x4e454c00 ; undefined
    3bd8:	5551535f 	.inst	0x5551535f ; undefined
    3bdc:	5f455241 	.inst	0x5f455241 ; undefined
    3be0:	30322058 	adr	x24, 67fe9 <__bss_size+0x67dc7>
    3be4:	5f626600 	.inst	0x5f626600 ; undefined
    3be8:	657a6973 	fnmls	z19.h, p2/m, z11.h, z26.h
    3bec:	4e454c00 	.inst	0x4e454c00 ; undefined
    3bf0:	5551535f 	.inst	0x5551535f ; undefined
    3bf4:	5f455241 	.inst	0x5f455241 ; undefined
    3bf8:	30322059 	adr	x25, 68001 <__bss_size+0x67ddf>
    3bfc:	58495000 	ldr	x0, 965fc <_end+0xd4ec>
    3c00:	4f5f4c45 	.inst	0x4f5f4c45 ; undefined
    3c04:	52454452 	.inst	0x52454452 ; undefined
    3c08:	5247425f 	.inst	0x5247425f ; undefined
    3c0c:	30783020 	adr	x0, f4211 <_end+0x6b101>
    3c10:	5f626600 	.inst	0x5f626600 ; undefined
    3c14:	63746970 	.inst	0x63746970 ; undefined
    3c18:	42460068 	.inst	0x42460068 ; undefined
    3c1c:	5849505f 	ldr	xzr, 96624 <_end+0xd514>
    3c20:	4f5f4c45 	.inst	0x4f5f4c45 ; undefined
    3c24:	52454452 	.inst	0x52454452 ; undefined
    3c28:	49502820 	.inst	0x49502820 ; undefined
    3c2c:	5f4c4558 	.inst	0x5f4c4558 ; undefined
    3c30:	4544524f 	ssubwb	z15.h, z18.h, z4.b
    3c34:	47525f52 	.inst	0x47525f52 ; undefined
    3c38:	66002942 	.inst	0x66002942 ; undefined
    3c3c:	6e695f62 	uqrshl	v2.8h, v27.8h, v9.8h
    3c40:	63007469 	.inst	0x63007469 ; undefined
    3c44:	726f6c6f 	.inst	0x726f6c6f ; undefined
    3c48:	4600625f 	.inst	0x4600625f ; undefined
    3c4c:	45445f42 	usubwt	z2.h, z26.h, z4.b
    3c50:	20485450 	.inst	0x20485450 ; undefined
    3c54:	46003233 	.inst	0x46003233 ; undefined
    3c58:	464f5f42 	.inst	0x464f5f42 ; undefined
    3c5c:	54455346 	b.vs	8e6c4 <_end+0x55b4>
    3c60:	3020595f 	adr	xzr, 44789 <__bss_size+0x44567>
    3c64:	6c6f6300 	ldnp	d0, d24, [x24, #-272]
    3c68:	775f726f 	.inst	0x775f726f ; undefined
    3c6c:	5f626600 	.inst	0x5f626600 ; undefined
    3c70:	64616f6c 	.inst	0x64616f6c ; undefined
    3c74:	616c7053 	.inst	0x616c7053 ; undefined
    3c78:	6d496873 	ldp	d19, d26, [x3, #144]
    3c7c:	00656761 	.inst	0x00656761 ; undefined
    3c80:	505f4246 	adr	x6, c24ca <_end+0x393ba>
    3c84:	575f5948 	.inst	0x575f5948 ; undefined
    3c88:	48544449 	ldxrh	w9, [x2]
    3c8c:	32393120 	orr	w0, w9, #0xfff80
    3c90:	65720030 	fmla	z16.h, p0/m, z1.h, z18.h
    3c94:	64616f6c 	.inst	0x64616f6c ; undefined
    3c98:	50584500 	adr	x0, b453a <_end+0x2b42a>
    3c9c:	5f455249 	.inst	0x5f455249 ; undefined
    3ca0:	49524550 	.inst	0x49524550 ; undefined
    3ca4:	3020444f 	adr	x15, 4452d <__bss_size+0x4430b>
    3ca8:	66666678 	.inst	0x66666678 ; undefined
    3cac:	66666666 	.inst	0x66666666 ; undefined
    3cb0:	524f4300 	.inst	0x524f4300 ; undefined
    3cb4:	545f3045 	b.pl	c22bc <_end+0x391ac>  // b.nfrst
    3cb8:	52454d49 	.inst	0x52454d49 ; undefined
    3cbc:	5152495f 	sub	wsp, w10, #0x492, lsl #12
    3cc0:	5254435f 	.inst	0x5254435f ; undefined
    3cc4:	7830204c 	ldeorh	w16, w12, [x2]
    3cc8:	30303034 	adr	x20, 642cd <__bss_size+0x640ab>
    3ccc:	30343030 	adr	x16, 6c2d1 <__bss_size+0x6c0af>
    3cd0:	434f4c00 	.inst	0x434f4c00 ; undefined
    3cd4:	545f4c41 	b.ne	c265c <_end+0x3954c>  // b.any
    3cd8:	52454d49 	.inst	0x52454d49 ; undefined
    3cdc:	5152495f 	sub	wsp, w10, #0x492, lsl #12
    3ce0:	524c435f 	.inst	0x524c435f ; undefined
    3ce4:	76282820 	.inst	0x76282820 ; undefined
    3ce8:	74616c6f 	.inst	0x74616c6f ; undefined
    3cec:	20656c69 	.inst	0x20656c69 ; undefined
    3cf0:	69736e75 	ldpsw	x21, x27, [x19, #-104]
    3cf4:	64656e67 	.inst	0x64656e67 ; undefined
    3cf8:	746e6920 	.inst	0x746e6920 ; undefined
    3cfc:	7830292a 	.inst	0x7830292a ; undefined
    3d00:	30303034 	adr	x20, 64305 <__bss_size+0x640e3>
    3d04:	38333030 	ldsetb	w19, w16, [x1]
    3d08:	4f4c0029 	.inst	0x4f4c0029 ; undefined
    3d0c:	5f4c4143 	.inst	0x5f4c4143 ; undefined
    3d10:	454d4954 	uaddwb	z20.h, z10.h, z13.b
    3d14:	4f435f52 	.inst	0x4f435f52 ; undefined
    3d18:	4f52544e 	shl	v14.2d, v2.2d, #18
    3d1c:	2828204c 	stnp	w12, w8, [x2, #-192]
    3d20:	616c6f76 	.inst	0x616c6f76 ; undefined
    3d24:	656c6974 	fnmls	z20.h, p2/m, z11.h, z12.h
    3d28:	736e7520 	.inst	0x736e7520 ; undefined
    3d2c:	656e6769 	fnmls	z9.h, p1/m, z27.h, z14.h
    3d30:	6e692064 	usubl2	v4.4s, v3.8h, v9.8h
    3d34:	30292a74 	adr	x20, 56281 <__bss_size+0x5605f>
    3d38:	30303478 	adr	x24, 643c5 <__bss_size+0x641a3>
    3d3c:	33303030 	.inst	0x33303030 ; undefined
    3d40:	66002934 	.inst	0x66002934 ; undefined
    3d44:	0067616c 	.inst	0x0067616c ; undefined
    3d48:	525f4d50 	.inst	0x525f4d50 ; undefined
    3d4c:	20435453 	.inst	0x20435453 ; undefined
    3d50:	6f762828 	umlal2	v8.4s, v1.8h, v6.h[7]
    3d54:	6974616c 	ldpsw	x12, x24, [x11, #-96]
    3d58:	7520656c 	.inst	0x7520656c ; undefined
    3d5c:	6769736e 	.inst	0x6769736e ; undefined
    3d60:	2064656e 	.inst	0x2064656e ; undefined
    3d64:	2a746e69 	orn	w9, w19, w20, lsr #27
    3d68:	33783029 	.inst	0x33783029 ; undefined
    3d6c:	30303146 	adr	x6, 64395 <__bss_size+0x64173>
    3d70:	29633130 	ldp	w16, w12, [x9, #-232]
    3d74:	5f4d5000 	.inst	0x5f4d5000 ; undefined
    3d78:	53534150 	.inst	0x53534150 ; undefined
    3d7c:	44524f57 	umlalt	z23.h, z26.b, z18.b
    3d80:	35783020 	cbnz	w0, f4384 <_end+0x6b274>
    3d84:	30303061 	adr	x1, 64391 <__bss_size+0x6416f>
    3d88:	00303030 	.inst	0x00303030 ; NYI
    3d8c:	6b636974 	.inst	0x6b636974 ; undefined
    3d90:	5f4d5000 	.inst	0x5f4d5000 ; undefined
    3d94:	474f4457 	.inst	0x474f4457 ; undefined
    3d98:	76282820 	.inst	0x76282820 ; undefined
    3d9c:	74616c6f 	.inst	0x74616c6f ; undefined
    3da0:	20656c69 	.inst	0x20656c69 ; undefined
    3da4:	69736e75 	ldpsw	x21, x27, [x19, #-104]
    3da8:	64656e67 	.inst	0x64656e67 ; undefined
    3dac:	746e6920 	.inst	0x746e6920 ; undefined
    3db0:	7830292a 	.inst	0x7830292a ; undefined
    3db4:	30314633 	adr	x19, 66679 <__bss_size+0x66457>
    3db8:	34323030 	cbz	w16, 683bc <__bss_size+0x6819a>
    3dbc:	61630029 	.inst	0x61630029 ; undefined
    3dc0:	6c65636e 	ldnp	d14, d24, [x27, #-432]
    3dc4:	7365725f 	.inst	0x7365725f ; undefined
    3dc8:	73007465 	.inst	0x73007465 ; undefined
    3dcc:	6c6c6568 	ldnp	d8, d25, [x11, #-320]
    3dd0:	544e4900 	b.eq	a06f0 <_end+0x175e0>  // b.none
    3dd4:	41454c5f 	.inst	0x41454c5f ; undefined
    3dd8:	36315453 	tbz	w19, #6, 6860 <__bss_size+0x663e>
    3ddc:	4e494d5f 	.inst	0x4e494d5f ; undefined
    3de0:	48435700 	ldxrh	w0, [x24]
    3de4:	4d5f5241 	.inst	0x4d5f5241 ; undefined
    3de8:	5f205841 	fmls	h1, h2, v0.h[6]
    3dec:	4843575f 	ldxrh	wzr, [x26]
    3df0:	4d5f5241 	.inst	0x4d5f5241 ; undefined
    3df4:	5f5f5841 	.inst	0x5f5f5841 ; undefined
    3df8:	544e4900 	b.eq	a0718 <_end+0x17608>  // b.none
    3dfc:	41454c5f 	.inst	0x41454c5f ; undefined
    3e00:	36315453 	tbz	w19, #6, 6888 <__bss_size+0x6666>
    3e04:	58414d5f 	ldr	xzr, 867ac <__bss_end+0x169c>
    3e08:	495f5f20 	.inst	0x495f5f20 ; undefined
    3e0c:	4c5f544e 	.inst	0x4c5f544e ; undefined
    3e10:	54534145 	b.pl	aa638 <_end+0x21528>  // b.nfrst
    3e14:	4d5f3631 	.inst	0x4d5f3631 ; undefined
    3e18:	5f5f5841 	.inst	0x5f5f5841 ; undefined
    3e1c:	544e4900 	b.eq	a073c <_end+0x1762c>  // b.none
    3e20:	435f3631 	.inst	0x435f3631 ; undefined
    3e24:	20296328 	.inst	0x20296328 ; undefined
    3e28:	4e495f5f 	.inst	0x4e495f5f ; undefined
    3e2c:	5f363154 	.inst	0x5f363154 ; undefined
    3e30:	29632843 	ldp	w3, w10, [x2, #-232]
    3e34:	4e495500 	.inst	0x4e495500 ; undefined
    3e38:	5f363154 	.inst	0x5f363154 ; undefined
    3e3c:	29632843 	ldp	w3, w10, [x2, #-232]
    3e40:	555f5f20 	.inst	0x555f5f20 ; undefined
    3e44:	31544e49 	adds	w9, w18, #0x513, lsl #12
    3e48:	28435f36 	ldnp	w22, w23, [x25, #24]
    3e4c:	49002963 	.inst	0x49002963 ; undefined
    3e50:	465f544e 	.inst	0x465f544e ; undefined
    3e54:	31545341 	adds	w1, w26, #0x514, lsl #12
    3e58:	414d5f36 	.inst	0x414d5f36 ; undefined
    3e5c:	5f5f2058 	.inst	0x5f5f2058 ; undefined
    3e60:	5f544e49 	.inst	0x5f544e49 ; undefined
    3e64:	54534146 	b.vs	aa68c <_end+0x2157c>
    3e68:	4d5f3631 	.inst	0x4d5f3631 ; undefined
    3e6c:	5f5f5841 	.inst	0x5f5f5841 ; undefined
    3e70:	4e495500 	.inst	0x4e495500 ; undefined
    3e74:	5f363154 	.inst	0x5f363154 ; undefined
    3e78:	0058414d 	.inst	0x0058414d ; undefined
    3e7c:	544e4955 	bc.pl	a07a4 <_end+0x17694>  // bc.nfrst
    3e80:	41454c5f 	.inst	0x41454c5f ; undefined
    3e84:	32335453 	orr	w19, w2, #0xffffe007
    3e88:	58414d5f 	ldr	xzr, 86830 <__bss_end+0x1720>
    3e8c:	555f5f20 	.inst	0x555f5f20 ; undefined
    3e90:	5f544e49 	.inst	0x5f544e49 ; undefined
    3e94:	5341454c 	.inst	0x5341454c ; undefined
    3e98:	5f323354 	.inst	0x5f323354 ; undefined
    3e9c:	5f58414d 	.inst	0x5f58414d ; undefined
    3ea0:	4955005f 	.inst	0x4955005f ; undefined
    3ea4:	5f38544e 	.inst	0x5f38544e ; undefined
    3ea8:	29632843 	ldp	w3, w10, [x2, #-232]
    3eac:	555f5f20 	.inst	0x555f5f20 ; undefined
    3eb0:	38544e49 	ldrb	w9, [x18, #-188]!
    3eb4:	6328435f 	.inst	0x6328435f ; undefined
    3eb8:	49550029 	.inst	0x49550029 ; undefined
    3ebc:	5f38544e 	.inst	0x5f38544e ; undefined
    3ec0:	2058414d 	.inst	0x2058414d ; undefined
    3ec4:	49555f5f 	.inst	0x49555f5f ; undefined
    3ec8:	5f38544e 	.inst	0x5f38544e ; undefined
    3ecc:	5f58414d 	.inst	0x5f58414d ; undefined
    3ed0:	4e49005f 	.inst	0x4e49005f ; undefined
    3ed4:	58414d54 	ldr	x20, 8687c <__bss_end+0x176c>
    3ed8:	58414d5f 	ldr	xzr, 86880 <__bss_end+0x1770>
    3edc:	495f5f20 	.inst	0x495f5f20 ; undefined
    3ee0:	414d544e 	.inst	0x414d544e ; undefined
    3ee4:	414d5f58 	.inst	0x414d5f58 ; undefined
    3ee8:	005f5f58 	.inst	0x005f5f58 ; undefined
    3eec:	544e4955 	bc.pl	a0814 <_end+0x17704>  // bc.nfrst
    3ef0:	4d5f3436 	.inst	0x4d5f3436 ; undefined
    3ef4:	5f205841 	fmls	h1, h2, v0.h[6]
    3ef8:	4e49555f 	.inst	0x4e49555f ; undefined
    3efc:	5f343654 	.inst	0x5f343654 ; undefined
    3f00:	5f58414d 	.inst	0x5f58414d ; undefined
    3f04:	4e49005f 	.inst	0x4e49005f ; undefined
    3f08:	58414d54 	ldr	x20, 868b0 <__bss_end+0x17a0>
    3f0c:	4e494d5f 	.inst	0x4e494d5f ; undefined
    3f10:	492d2820 	.inst	0x492d2820 ; undefined
    3f14:	414d544e 	.inst	0x414d544e ; undefined
    3f18:	414d5f58 	.inst	0x414d5f58 ; undefined
    3f1c:	202d2058 	.inst	0x202d2058 ; undefined
    3f20:	49002931 	.inst	0x49002931 ; undefined
    3f24:	5450544e 	b.al	a49ac <_end+0x1b89c>
    3f28:	414d5f52 	.inst	0x414d5f52 ; undefined
    3f2c:	5f5f2058 	.inst	0x5f5f2058 ; undefined
    3f30:	50544e49 	adr	x9, ac8fa <_end+0x237ea>
    3f34:	4d5f5254 	.inst	0x4d5f5254 ; undefined
    3f38:	5f5f5841 	.inst	0x5f5f5841 ; undefined
    3f3c:	5a495300 	.inst	0x5a495300 ; undefined
    3f40:	414d5f45 	.inst	0x414d5f45 ; undefined
    3f44:	6d740058 	ldp	d24, d0, [x2, #-192]
    3f48:	746e635f 	.inst	0x746e635f ; undefined
    3f4c:	544e4900 	b.eq	a086c <_end+0x1775c>  // b.none
    3f50:	494d5f38 	.inst	0x494d5f38 ; undefined
    3f54:	475f004e 	.inst	0x475f004e ; undefined
    3f58:	575f4343 	.inst	0x575f4343 ; undefined
    3f5c:	5f504152 	.inst	0x5f504152 ; undefined
    3f60:	49445453 	.inst	0x49445453 ; undefined
    3f64:	485f544e 	ldxrh	w14, [x2]
    3f68:	49550020 	.inst	0x49550020 ; undefined
    3f6c:	414d544e 	.inst	0x414d544e ; undefined
    3f70:	00435f58 	.inst	0x00435f58 ; undefined
    3f74:	544e4955 	bc.pl	a089c <_end+0x1778c>  // bc.nfrst
    3f78:	41454c5f 	.inst	0x41454c5f ; undefined
    3f7c:	34365453 	cbz	w19, 70a04 <__bss_size+0x707e2>
    3f80:	58414d5f 	ldr	xzr, 86928 <__bss_end+0x1818>
    3f84:	47495300 	.inst	0x47495300 ; undefined
    3f88:	4f54415f 	.inst	0x4f54415f ; undefined
    3f8c:	5f43494d 	.inst	0x5f43494d ; undefined
    3f90:	0058414d 	.inst	0x0058414d ; undefined
    3f94:	5f544e49 	.inst	0x5f544e49 ; undefined
    3f98:	54534146 	b.vs	aa7c0 <_end+0x216b0>
    3f9c:	414d5f38 	.inst	0x414d5f38 ; undefined
    3fa0:	5f5f2058 	.inst	0x5f5f2058 ; undefined
    3fa4:	5f544e49 	.inst	0x5f544e49 ; undefined
    3fa8:	54534146 	b.vs	aa7d0 <_end+0x216c0>
    3fac:	414d5f38 	.inst	0x414d5f38 ; undefined
    3fb0:	005f5f58 	.inst	0x005f5f58 ; undefined
    3fb4:	5f474953 	.inst	0x5f474953 ; undefined
    3fb8:	4d4f5441 	.inst	0x4d4f5441 ; undefined
    3fbc:	4d5f4349 	.inst	0x4d5f4349 ; undefined
    3fc0:	55004e49 	.inst	0x55004e49 ; undefined
    3fc4:	5f544e49 	.inst	0x5f544e49 ; undefined
    3fc8:	5341454c 	.inst	0x5341454c ; undefined
    3fcc:	5f363154 	.inst	0x5f363154 ; undefined
    3fd0:	2058414d 	.inst	0x2058414d ; undefined
    3fd4:	49555f5f 	.inst	0x49555f5f ; undefined
    3fd8:	4c5f544e 	.inst	0x4c5f544e ; undefined
    3fdc:	54534145 	b.pl	aa804 <_end+0x216f4>  // b.nfrst
    3fe0:	4d5f3631 	.inst	0x4d5f3631 ; undefined
    3fe4:	5f5f5841 	.inst	0x5f5f5841 ; undefined
    3fe8:	544e4900 	b.eq	a0908 <_end+0x177f8>  // b.none
    3fec:	5341465f 	.inst	0x5341465f ; undefined
    3ff0:	5f343654 	.inst	0x5f343654 ; undefined
    3ff4:	2058414d 	.inst	0x2058414d ; undefined
    3ff8:	4e495f5f 	.inst	0x4e495f5f ; undefined
    3ffc:	41465f54 	.inst	0x41465f54 ; undefined
    4000:	34365453 	cbz	w19, 70a88 <__bss_size+0x70866>
    4004:	58414d5f 	ldr	xzr, 869ac <__bss_end+0x189c>
    4008:	49005f5f 	.inst	0x49005f5f ; undefined
    400c:	3233544e 	orr	w14, w2, #0xffffe007
    4010:	58414d5f 	ldr	xzr, 869b8 <__bss_end+0x18a8>
    4014:	495f5f20 	.inst	0x495f5f20 ; undefined
    4018:	3233544e 	orr	w14, w2, #0xffffe007
    401c:	58414d5f 	ldr	xzr, 869c4 <__bss_end+0x18b4>
    4020:	49005f5f 	.inst	0x49005f5f ; undefined
    4024:	3233544e 	orr	w14, w2, #0xffffe007
    4028:	6328435f 	.inst	0x6328435f ; undefined
    402c:	5f5f2029 	.inst	0x5f5f2029 ; undefined
    4030:	33544e49 	.inst	0x33544e49 ; undefined
    4034:	28435f32 	ldnp	w18, w23, [x25, #24]
    4038:	49002963 	.inst	0x49002963 ; undefined
    403c:	465f544e 	.inst	0x465f544e ; undefined
    4040:	33545341 	.inst	0x33545341 ; undefined
    4044:	494d5f32 	.inst	0x494d5f32 ; undefined
    4048:	2d28204e 	stp	s14, s8, [x2, #-192]
    404c:	5f544e49 	.inst	0x5f544e49 ; undefined
    4050:	54534146 	b.vs	aa878 <_end+0x21768>
    4054:	4d5f3233 	.inst	0x4d5f3233 ; undefined
    4058:	2d205841 	stp	s1, s22, [x2, #-256]
    405c:	00293120 	.inst	0x00293120 ; NYI
    4060:	544e4955 	bc.pl	a0988 <_end+0x17878>  // bc.nfrst
    4064:	41454c5f 	.inst	0x41454c5f ; undefined
    4068:	32335453 	orr	w19, w2, #0xffffe007
    406c:	58414d5f 	ldr	xzr, 86a14 <__bss_end+0x1904>
    4070:	544e4900 	b.eq	a0990 <_end+0x17880>  // b.none
    4074:	5341465f 	.inst	0x5341465f ; undefined
    4078:	5f343654 	.inst	0x5f343654 ; undefined
    407c:	004e494d 	.inst	0x004e494d ; undefined
    4080:	44525450 	smlslt	z16.h, z2.b, z18.b
    4084:	5f464649 	.inst	0x5f464649 ; undefined
    4088:	204e494d 	.inst	0x204e494d ; undefined
    408c:	54502d28 	b.hi	a4630 <_end+0x1b520>  // b.pmore
    4090:	46494452 	.inst	0x46494452 ; undefined
    4094:	414d5f46 	.inst	0x414d5f46 ; undefined
    4098:	202d2058 	.inst	0x202d2058 ; undefined
    409c:	55002931 	.inst	0x55002931 ; undefined
    40a0:	5f544e49 	.inst	0x5f544e49 ; undefined
    40a4:	54534146 	b.vs	aa8cc <_end+0x217bc>
    40a8:	4d5f3436 	.inst	0x4d5f3436 ; undefined
    40ac:	5f205841 	fmls	h1, h2, v0.h[6]
    40b0:	4e49555f 	.inst	0x4e49555f ; undefined
    40b4:	41465f54 	.inst	0x41465f54 ; undefined
    40b8:	34365453 	cbz	w19, 70b40 <__bss_size+0x7091e>
    40bc:	58414d5f 	ldr	xzr, 86a64 <__bss_end+0x1954>
    40c0:	49005f5f 	.inst	0x49005f5f ; undefined
    40c4:	414d544e 	.inst	0x414d544e ; undefined
    40c8:	494d5f58 	.inst	0x494d5f58 ; undefined
    40cc:	475f004e 	.inst	0x475f004e ; undefined
    40d0:	535f4343 	.inst	0x535f4343 ; undefined
    40d4:	4e494454 	.inst	0x4e494454 ; undefined
    40d8:	20485f54 	.inst	0x20485f54 ; undefined
    40dc:	61657200 	.inst	0x61657200 ; undefined
    40e0:	6d635f64 	ldp	d4, d23, [x27, #-464]
    40e4:	6f6e0064 	mla	v4.8h, v3.8h, v14.h[2]
    40e8:	75635f77 	.inst	0x75635f77 ; undefined
    40ec:	4e490072 	.inst	0x4e490072 ; undefined
    40f0:	41465f54 	.inst	0x41465f54 ; undefined
    40f4:	36315453 	tbz	w19, #6, 6b7c <__bss_size+0x695a>
    40f8:	4e494d5f 	.inst	0x4e494d5f ; undefined
    40fc:	4e495700 	.inst	0x4e495700 ; undefined
    4100:	414d5f54 	.inst	0x414d5f54 ; undefined
    4104:	4e490058 	.inst	0x4e490058 ; undefined
    4108:	41465f54 	.inst	0x41465f54 ; undefined
    410c:	32335453 	orr	w19, w2, #0xffffe007
    4110:	58414d5f 	ldr	xzr, 86ab8 <__bss_end+0x19a8>
    4114:	495f5f20 	.inst	0x495f5f20 ; undefined
    4118:	465f544e 	.inst	0x465f544e ; undefined
    411c:	33545341 	.inst	0x33545341 ; undefined
    4120:	414d5f32 	.inst	0x414d5f32 ; undefined
    4124:	005f5f58 	.inst	0x005f5f58 ; undefined
    4128:	5f544e49 	.inst	0x5f544e49 ; undefined
    412c:	5341454c 	.inst	0x5341454c ; undefined
    4130:	4d5f3854 	.inst	0x4d5f3854 ; undefined
    4134:	5f205841 	fmls	h1, h2, v0.h[6]
    4138:	544e495f 	bc.nv	a0a60 <_end+0x17950>
    413c:	41454c5f 	.inst	0x41454c5f ; undefined
    4140:	5f385453 	.inst	0x5f385453 ; undefined
    4144:	5f58414d 	.inst	0x5f58414d ; undefined
    4148:	4e49005f 	.inst	0x4e49005f ; undefined
    414c:	41465f54 	.inst	0x41465f54 ; undefined
    4150:	5f385453 	.inst	0x5f385453 ; undefined
    4154:	204e494d 	.inst	0x204e494d ; undefined
    4158:	4e492d28 	.inst	0x4e492d28 ; undefined
    415c:	41465f54 	.inst	0x41465f54 ; undefined
    4160:	5f385453 	.inst	0x5f385453 ; undefined
    4164:	2058414d 	.inst	0x2058414d ; undefined
    4168:	2931202d 	stp	w13, w8, [x1, #-120]
    416c:	52545000 	.inst	0x52545000 ; undefined
    4170:	46464944 	.inst	0x46464944 ; undefined
    4174:	58414d5f 	ldr	xzr, 86b1c <__bss_end+0x1a0c>
    4178:	4e495500 	.inst	0x4e495500 ; undefined
    417c:	41465f54 	.inst	0x41465f54 ; undefined
    4180:	32335453 	orr	w19, w2, #0xffffe007
    4184:	58414d5f 	ldr	xzr, 86b2c <__bss_end+0x1a1c>
    4188:	555f5f20 	.inst	0x555f5f20 ; undefined
    418c:	5f544e49 	.inst	0x5f544e49 ; undefined
    4190:	54534146 	b.vs	aa9b8 <_end+0x218a8>
    4194:	4d5f3233 	.inst	0x4d5f3233 ; undefined
    4198:	5f5f5841 	.inst	0x5f5f5841 ; undefined
    419c:	544e4900 	b.eq	a0abc <_end+0x179ac>  // b.none
    41a0:	4d5f3631 	.inst	0x4d5f3631 ; undefined
    41a4:	28204e49 	stnp	w9, w19, [x18, #-256]
    41a8:	544e492d 	b.le	a0acc <_end+0x179bc>
    41ac:	4d5f3631 	.inst	0x4d5f3631 ; undefined
    41b0:	2d205841 	stp	s1, s22, [x2, #-256]
    41b4:	00293120 	.inst	0x00293120 ; NYI
    41b8:	41484357 	.inst	0x41484357 ; undefined
    41bc:	494d5f52 	.inst	0x494d5f52 ; undefined
    41c0:	4e49004e 	.inst	0x4e49004e ; undefined
    41c4:	5f343654 	.inst	0x5f343654 ; undefined
    41c8:	2058414d 	.inst	0x2058414d ; undefined
    41cc:	4e495f5f 	.inst	0x4e495f5f ; undefined
    41d0:	5f343654 	.inst	0x5f343654 ; undefined
    41d4:	5f58414d 	.inst	0x5f58414d ; undefined
    41d8:	4e49005f 	.inst	0x4e49005f ; undefined
    41dc:	41465f54 	.inst	0x41465f54 ; undefined
    41e0:	36315453 	tbz	w19, #6, 6c68 <__bss_size+0x6a46>
    41e4:	4e494d5f 	.inst	0x4e494d5f ; undefined
    41e8:	492d2820 	.inst	0x492d2820 ; undefined
    41ec:	465f544e 	.inst	0x465f544e ; undefined
    41f0:	31545341 	adds	w1, w26, #0x514, lsl #12
    41f4:	414d5f36 	.inst	0x414d5f36 ; undefined
    41f8:	202d2058 	.inst	0x202d2058 ; undefined
    41fc:	49002931 	.inst	0x49002931 ; undefined
    4200:	5450544e 	b.al	a4c88 <_end+0x1bb78>
    4204:	494d5f52 	.inst	0x494d5f52 ; undefined
    4208:	2d28204e 	stp	s14, s8, [x2, #-192]
    420c:	50544e49 	adr	x9, acbd6 <_end+0x23ac6>
    4210:	4d5f5254 	.inst	0x4d5f5254 ; undefined
    4214:	2d205841 	stp	s1, s22, [x2, #-256]
    4218:	00293120 	.inst	0x00293120 ; NYI
    421c:	5f544e49 	.inst	0x5f544e49 ; undefined
    4220:	5341454c 	.inst	0x5341454c ; undefined
    4224:	5f363154 	.inst	0x5f363154 ; undefined
    4228:	204e494d 	.inst	0x204e494d ; undefined
    422c:	4e492d28 	.inst	0x4e492d28 ; undefined
    4230:	454c5f54 	usubwt	z20.h, z26.h, z12.b
    4234:	31545341 	adds	w1, w26, #0x514, lsl #12
    4238:	414d5f36 	.inst	0x414d5f36 ; undefined
    423c:	202d2058 	.inst	0x202d2058 ; undefined
    4240:	49002931 	.inst	0x49002931 ; undefined
    4244:	465f544e 	.inst	0x465f544e ; undefined
    4248:	38545341 	ldurb	w1, [x26, #-187]
    424c:	4e494d5f 	.inst	0x4e494d5f ; undefined
    4250:	544e4900 	b.eq	a0b70 <_end+0x17a60>  // b.none
    4254:	494d5f38 	.inst	0x494d5f38 ; undefined
    4258:	2d28204e 	stp	s14, s8, [x2, #-192]
    425c:	38544e49 	ldrb	w9, [x18, #-188]!
    4260:	58414d5f 	ldr	xzr, 86c08 <__bss_end+0x1af8>
    4264:	31202d20 	adds	w0, w9, #0x80b
    4268:	49550029 	.inst	0x49550029 ; undefined
    426c:	5f38544e 	.inst	0x5f38544e ; undefined
    4270:	0058414d 	.inst	0x0058414d ; undefined
    4274:	544e4955 	bc.pl	a0b9c <_end+0x17a8c>  // bc.nfrst
    4278:	5f525450 	shl	d16, d2, #18
    427c:	2058414d 	.inst	0x2058414d ; undefined
    4280:	49555f5f 	.inst	0x49555f5f ; undefined
    4284:	5450544e 	b.al	a4d0c <_end+0x1bbfc>
    4288:	414d5f52 	.inst	0x414d5f52 ; undefined
    428c:	005f5f58 	.inst	0x005f5f58 ; undefined
    4290:	544e4955 	bc.pl	a0bb8 <_end+0x17aa8>  // bc.nfrst
    4294:	41454c5f 	.inst	0x41454c5f ; undefined
    4298:	34365453 	cbz	w19, 70d20 <__bss_size+0x70afe>
    429c:	58414d5f 	ldr	xzr, 86c44 <__bss_end+0x1b34>
    42a0:	555f5f20 	.inst	0x555f5f20 ; undefined
    42a4:	5f544e49 	.inst	0x5f544e49 ; undefined
    42a8:	5341454c 	.inst	0x5341454c ; undefined
    42ac:	5f343654 	.inst	0x5f343654 ; undefined
    42b0:	5f58414d 	.inst	0x5f58414d ; undefined
    42b4:	4955005f 	.inst	0x4955005f ; undefined
    42b8:	4c5f544e 	.inst	0x4c5f544e ; undefined
    42bc:	54534145 	b.pl	aaae4 <_end+0x219d4>  // b.nfrst
    42c0:	4d5f3631 	.inst	0x4d5f3631 ; undefined
    42c4:	49005841 	.inst	0x49005841 ; undefined
    42c8:	465f544e 	.inst	0x465f544e ; undefined
    42cc:	33545341 	.inst	0x33545341 ; undefined
    42d0:	494d5f32 	.inst	0x494d5f32 ; undefined
    42d4:	4955004e 	.inst	0x4955004e ; undefined
    42d8:	465f544e 	.inst	0x465f544e ; undefined
    42dc:	33545341 	.inst	0x33545341 ; undefined
    42e0:	414d5f32 	.inst	0x414d5f32 ; undefined
    42e4:	6d740058 	ldp	d24, d0, [x2, #-192]
    42e8:	006f635f 	.inst	0x006f635f ; undefined
    42ec:	544e4955 	bc.pl	a0c14 <_end+0x17b04>  // bc.nfrst
    42f0:	435f3233 	.inst	0x435f3233 ; undefined
    42f4:	20296328 	.inst	0x20296328 ; undefined
    42f8:	49555f5f 	.inst	0x49555f5f ; undefined
    42fc:	3233544e 	orr	w14, w2, #0xffffe007
    4300:	6328435f 	.inst	0x6328435f ; undefined
    4304:	4e490029 	.inst	0x4e490029 ; undefined
    4308:	454c5f54 	usubwt	z20.h, z26.h, z12.b
    430c:	33545341 	.inst	0x33545341 ; undefined
    4310:	494d5f32 	.inst	0x494d5f32 ; undefined
    4314:	4e49004e 	.inst	0x4e49004e ; undefined
    4318:	58414d54 	ldr	x20, 86cc0 <__bss_end+0x1bb0>
    431c:	6328435f 	.inst	0x6328435f ; undefined
    4320:	5f5f2029 	.inst	0x5f5f2029 ; undefined
    4324:	4d544e49 	.inst	0x4d544e49 ; undefined
    4328:	435f5841 	.inst	0x435f5841 ; undefined
    432c:	00296328 	.inst	0x00296328 ; NYI
    4330:	36544e49 	tbz	w9, #10, ffffffffffffccf8 <_end+0xfffffffffff73be8>
    4334:	494d5f34 	.inst	0x494d5f34 ; undefined
    4338:	2d28204e 	stp	s14, s8, [x2, #-192]
    433c:	36544e49 	tbz	w9, #10, ffffffffffffcd04 <_end+0xfffffffffff73bf4>
    4340:	414d5f34 	.inst	0x414d5f34 ; undefined
    4344:	202d2058 	.inst	0x202d2058 ; undefined
    4348:	49002931 	.inst	0x49002931 ; undefined
    434c:	5450544e 	b.al	a4dd4 <_end+0x1bcc4>
    4350:	494d5f52 	.inst	0x494d5f52 ; undefined
    4354:	4955004e 	.inst	0x4955004e ; undefined
    4358:	3233544e 	orr	w14, w2, #0xffffe007
    435c:	5300435f 	ubfx	wzr, w26, #0, #17
    4360:	5f455a49 	.inst	0x5f455a49 ; undefined
    4364:	2058414d 	.inst	0x2058414d ; undefined
    4368:	49535f5f 	.inst	0x49535f5f ; undefined
    436c:	4d5f455a 	.inst	0x4d5f455a ; undefined
    4370:	5f5f5841 	.inst	0x5f5f5841 ; undefined
    4374:	5f6d7400 	sqshl	d0, d0, #45
    4378:	00717266 	.inst	0x00717266 ; undefined
    437c:	544e4955 	bc.pl	a0ca4 <_end+0x17b94>  // bc.nfrst
    4380:	41454c5f 	.inst	0x41454c5f ; undefined
    4384:	5f385453 	.inst	0x5f385453 ; undefined
    4388:	2058414d 	.inst	0x2058414d ; undefined
    438c:	49555f5f 	.inst	0x49555f5f ; undefined
    4390:	4c5f544e 	.inst	0x4c5f544e ; undefined
    4394:	54534145 	b.pl	aabbc <_end+0x21aac>  // b.nfrst
    4398:	414d5f38 	.inst	0x414d5f38 ; undefined
    439c:	005f5f58 	.inst	0x005f5f58 ; undefined
    43a0:	544e4955 	bc.pl	a0cc8 <_end+0x17bb8>  // bc.nfrst
    43a4:	435f3436 	.inst	0x435f3436 ; undefined
    43a8:	20296328 	.inst	0x20296328 ; undefined
    43ac:	49555f5f 	.inst	0x49555f5f ; undefined
    43b0:	3436544e 	cbz	w14, 70e38 <__bss_size+0x70c16>
    43b4:	6328435f 	.inst	0x6328435f ; undefined
    43b8:	49530029 	.inst	0x49530029 ; undefined
    43bc:	54415f47 	b.vc	86fa4 <__bss_end+0x1e94>
    43c0:	43494d4f 	.inst	0x43494d4f ; undefined
    43c4:	4e494d5f 	.inst	0x4e494d5f ; undefined
    43c8:	535f5f20 	.inst	0x535f5f20 ; undefined
    43cc:	415f4749 	.inst	0x415f4749 ; undefined
    43d0:	494d4f54 	.inst	0x494d4f54 ; undefined
    43d4:	494d5f43 	.inst	0x494d5f43 ; undefined
    43d8:	005f5f4e 	.inst	0x005f5f4e ; undefined
    43dc:	5f544e49 	.inst	0x5f544e49 ; undefined
    43e0:	5341454c 	.inst	0x5341454c ; undefined
    43e4:	4d5f3854 	.inst	0x4d5f3854 ; undefined
    43e8:	49004e49 	.inst	0x49004e49 ; undefined
    43ec:	4c5f544e 	.inst	0x4c5f544e ; undefined
    43f0:	54534145 	b.pl	aac18 <_end+0x21b08>  // b.nfrst
    43f4:	4d5f3233 	.inst	0x4d5f3233 ; undefined
    43f8:	5f205841 	fmls	h1, h2, v0.h[6]
    43fc:	544e495f 	bc.nv	a0d24 <_end+0x17c14>
    4400:	41454c5f 	.inst	0x41454c5f ; undefined
    4404:	32335453 	orr	w19, w2, #0xffffe007
    4408:	58414d5f 	ldr	xzr, 86db0 <__bss_end+0x1ca0>
    440c:	49005f5f 	.inst	0x49005f5f ; undefined
    4410:	4c5f544e 	.inst	0x4c5f544e ; undefined
    4414:	54534145 	b.pl	aac3c <_end+0x21b2c>  // b.nfrst
    4418:	4d5f3436 	.inst	0x4d5f3436 ; undefined
    441c:	28204e49 	stnp	w9, w19, [x18, #-256]
    4420:	544e492d 	b.le	a0d44 <_end+0x17c34>
    4424:	41454c5f 	.inst	0x41454c5f ; undefined
    4428:	34365453 	cbz	w19, 70eb0 <__bss_size+0x70c8e>
    442c:	58414d5f 	ldr	xzr, 86dd4 <__bss_end+0x1cc4>
    4430:	31202d20 	adds	w0, w9, #0x80b
    4434:	4e490029 	.inst	0x4e490029 ; undefined
    4438:	5f363154 	.inst	0x5f363154 ; undefined
    443c:	004e494d 	.inst	0x004e494d ; undefined
    4440:	5f544e49 	.inst	0x5f544e49 ; undefined
    4444:	54534146 	b.vs	aac6c <_end+0x21b5c>
    4448:	4d5f3436 	.inst	0x4d5f3436 ; undefined
    444c:	28204e49 	stnp	w9, w19, [x18, #-256]
    4450:	544e492d 	b.le	a0d74 <_end+0x17c64>
    4454:	5341465f 	.inst	0x5341465f ; undefined
    4458:	5f343654 	.inst	0x5f343654 ; undefined
    445c:	2058414d 	.inst	0x2058414d ; undefined
    4460:	2931202d 	stp	w13, w8, [x1, #-120]
    4464:	4e495500 	.inst	0x4e495500 ; undefined
    4468:	5f363154 	.inst	0x5f363154 ; undefined
    446c:	2058414d 	.inst	0x2058414d ; undefined
    4470:	49555f5f 	.inst	0x49555f5f ; undefined
    4474:	3631544e 	tbz	w14, #6, 6efc <__bss_size+0x6cda>
    4478:	58414d5f 	ldr	xzr, 86e20 <__bss_end+0x1d10>
    447c:	49005f5f 	.inst	0x49005f5f ; undefined
    4480:	5f38544e 	.inst	0x5f38544e ; undefined
    4484:	29632843 	ldp	w3, w10, [x2, #-232]
    4488:	495f5f20 	.inst	0x495f5f20 ; undefined
    448c:	5f38544e 	.inst	0x5f38544e ; undefined
    4490:	29632843 	ldp	w3, w10, [x2, #-232]
    4494:	544e4900 	b.eq	a0db4 <_end+0x17ca4>  // b.none
    4498:	435f3436 	.inst	0x435f3436 ; undefined
    449c:	20296328 	.inst	0x20296328 ; undefined
    44a0:	4e495f5f 	.inst	0x4e495f5f ; undefined
    44a4:	5f343654 	.inst	0x5f343654 ; undefined
    44a8:	29632843 	ldp	w3, w10, [x2, #-232]
    44ac:	4e495500 	.inst	0x4e495500 ; undefined
    44b0:	5f343654 	.inst	0x5f343654 ; undefined
    44b4:	49550043 	.inst	0x49550043 ; undefined
    44b8:	465f544e 	.inst	0x465f544e ; undefined
    44bc:	36545341 	tbz	w1, #10, ffffffffffffcf24 <_end+0xfffffffffff73e14>
    44c0:	414d5f34 	.inst	0x414d5f34 ; undefined
    44c4:	4e490058 	.inst	0x4e490058 ; undefined
    44c8:	454c5f54 	usubwt	z20.h, z26.h, z12.b
    44cc:	36545341 	tbz	w1, #10, ffffffffffffcf34 <_end+0xfffffffffff73e24>
    44d0:	494d5f34 	.inst	0x494d5f34 ; undefined
    44d4:	5450004e 	b.al	a44dc <_end+0x1b3cc>
    44d8:	46494452 	.inst	0x46494452 ; undefined
    44dc:	414d5f46 	.inst	0x414d5f46 ; undefined
    44e0:	5f5f2058 	.inst	0x5f5f2058 ; undefined
    44e4:	44525450 	smlslt	z16.h, z2.b, z18.b
    44e8:	5f464649 	.inst	0x5f464649 ; undefined
    44ec:	5f58414d 	.inst	0x5f58414d ; undefined
    44f0:	4955005f 	.inst	0x4955005f ; undefined
    44f4:	414d544e 	.inst	0x414d544e ; undefined
    44f8:	414d5f58 	.inst	0x414d5f58 ; undefined
    44fc:	54500058 	bc.hi	a4504 <_end+0x1b3f4>  // bc.pmore
    4500:	46494452 	.inst	0x46494452 ; undefined
    4504:	494d5f46 	.inst	0x494d5f46 ; undefined
    4508:	6975004e 	ldpsw	x14, x0, [x2, #-88]
    450c:	3436746e 	cbz	w14, 71398 <__bss_size+0x71176>
    4510:	5500745f 	.inst	0x5500745f ; undefined
    4514:	33544e49 	.inst	0x33544e49 ; undefined
    4518:	414d5f32 	.inst	0x414d5f32 ; undefined
    451c:	4e490058 	.inst	0x4e490058 ; undefined
    4520:	454c5f54 	usubwt	z20.h, z26.h, z12.b
    4524:	33545341 	.inst	0x33545341 ; undefined
    4528:	494d5f32 	.inst	0x494d5f32 ; undefined
    452c:	2d28204e 	stp	s14, s8, [x2, #-192]
    4530:	5f544e49 	.inst	0x5f544e49 ; undefined
    4534:	5341454c 	.inst	0x5341454c ; undefined
    4538:	5f323354 	.inst	0x5f323354 ; undefined
    453c:	2058414d 	.inst	0x2058414d ; undefined
    4540:	2931202d 	stp	w13, w8, [x1, #-120]
    4544:	544e4900 	b.eq	a0e64 <_end+0x17d54>  // b.none
    4548:	4d5f3436 	.inst	0x4d5f3436 ; undefined
    454c:	49004e49 	.inst	0x49004e49 ; undefined
    4550:	5f38544e 	.inst	0x5f38544e ; undefined
    4554:	2058414d 	.inst	0x2058414d ; undefined
    4558:	4e495f5f 	.inst	0x4e495f5f ; undefined
    455c:	4d5f3854 	.inst	0x4d5f3854 ; undefined
    4560:	5f5f5841 	.inst	0x5f5f5841 ; undefined
    4564:	4e495500 	.inst	0x4e495500 ; undefined
    4568:	58414d54 	ldr	x20, 86f10 <__bss_end+0x1e00>
    456c:	6328435f 	.inst	0x6328435f ; undefined
    4570:	5f5f2029 	.inst	0x5f5f2029 ; undefined
    4574:	544e4955 	bc.pl	a0e9c <_end+0x17d8c>  // bc.nfrst
    4578:	5f58414d 	.inst	0x5f58414d ; undefined
    457c:	29632843 	ldp	w3, w10, [x2, #-232]
    4580:	4e495500 	.inst	0x4e495500 ; undefined
    4584:	454c5f54 	usubwt	z20.h, z26.h, z12.b
    4588:	38545341 	ldurb	w1, [x26, #-187]
    458c:	58414d5f 	ldr	xzr, 86f34 <__bss_end+0x1e24>
    4590:	544e4900 	b.eq	a0eb0 <_end+0x17da0>  // b.none
    4594:	41454c5f 	.inst	0x41454c5f ; undefined
    4598:	5f385453 	.inst	0x5f385453 ; undefined
    459c:	204e494d 	.inst	0x204e494d ; undefined
    45a0:	4e492d28 	.inst	0x4e492d28 ; undefined
    45a4:	454c5f54 	usubwt	z20.h, z26.h, z12.b
    45a8:	38545341 	ldurb	w1, [x26, #-187]
    45ac:	58414d5f 	ldr	xzr, 86f54 <__bss_end+0x1e44>
    45b0:	31202d20 	adds	w0, w9, #0x80b
    45b4:	4e490029 	.inst	0x4e490029 ; undefined
    45b8:	5f323354 	.inst	0x5f323354 ; undefined
    45bc:	004e494d 	.inst	0x004e494d ; undefined
    45c0:	544e4955 	bc.pl	a0ee8 <_end+0x17dd8>  // bc.nfrst
    45c4:	5341465f 	.inst	0x5341465f ; undefined
    45c8:	4d5f3854 	.inst	0x4d5f3854 ; undefined
    45cc:	5f205841 	fmls	h1, h2, v0.h[6]
    45d0:	4e49555f 	.inst	0x4e49555f ; undefined
    45d4:	41465f54 	.inst	0x41465f54 ; undefined
    45d8:	5f385453 	.inst	0x5f385453 ; undefined
    45dc:	5f58414d 	.inst	0x5f58414d ; undefined
    45e0:	4957005f 	.inst	0x4957005f ; undefined
    45e4:	4d5f544e 	.inst	0x4d5f544e ; undefined
    45e8:	5f205841 	fmls	h1, h2, v0.h[6]
    45ec:	4e49575f 	.inst	0x4e49575f ; undefined
    45f0:	414d5f54 	.inst	0x414d5f54 ; undefined
    45f4:	005f5f58 	.inst	0x005f5f58 ; undefined
    45f8:	544e4955 	bc.pl	a0f20 <_end+0x17e10>  // bc.nfrst
    45fc:	5f58414d 	.inst	0x5f58414d ; undefined
    4600:	2058414d 	.inst	0x2058414d ; undefined
    4604:	49555f5f 	.inst	0x49555f5f ; undefined
    4608:	414d544e 	.inst	0x414d544e ; undefined
    460c:	414d5f58 	.inst	0x414d5f58 ; undefined
    4610:	005f5f58 	.inst	0x005f5f58 ; undefined
    4614:	544e4955 	bc.pl	a0f3c <_end+0x17e2c>  // bc.nfrst
    4618:	4d5f3436 	.inst	0x4d5f3436 ; undefined
    461c:	57005841 	.inst	0x57005841 ; undefined
    4620:	52414843 	.inst	0x52414843 ; undefined
    4624:	4e494d5f 	.inst	0x4e494d5f ; undefined
    4628:	575f5f20 	.inst	0x575f5f20 ; undefined
    462c:	52414843 	.inst	0x52414843 ; undefined
    4630:	4e494d5f 	.inst	0x4e494d5f ; undefined
    4634:	49005f5f 	.inst	0x49005f5f ; undefined
    4638:	4c5f544e 	.inst	0x4c5f544e ; undefined
    463c:	54534145 	b.pl	aae64 <_end+0x21d54>  // b.nfrst
    4640:	4d5f3436 	.inst	0x4d5f3436 ; undefined
    4644:	5f205841 	fmls	h1, h2, v0.h[6]
    4648:	544e495f 	bc.nv	a0f70 <_end+0x17e60>
    464c:	41454c5f 	.inst	0x41454c5f ; undefined
    4650:	34365453 	cbz	w19, 710d8 <__bss_size+0x70eb6>
    4654:	58414d5f 	ldr	xzr, 86ffc <__bss_end+0x1eec>
    4658:	55005f5f 	.inst	0x55005f5f ; undefined
    465c:	38544e49 	ldrb	w9, [x18, #-188]!
    4660:	5300435f 	ubfx	wzr, w26, #0, #17
    4664:	415f4749 	.inst	0x415f4749 ; undefined
    4668:	494d4f54 	.inst	0x494d4f54 ; undefined
    466c:	414d5f43 	.inst	0x414d5f43 ; undefined
    4670:	5f5f2058 	.inst	0x5f5f2058 ; undefined
    4674:	5f474953 	.inst	0x5f474953 ; undefined
    4678:	4d4f5441 	.inst	0x4d4f5441 ; undefined
    467c:	4d5f4349 	.inst	0x4d5f4349 ; undefined
    4680:	5f5f5841 	.inst	0x5f5f5841 ; undefined
    4684:	4e495500 	.inst	0x4e495500 ; undefined
    4688:	41465f54 	.inst	0x41465f54 ; undefined
    468c:	36315453 	tbz	w19, #6, 7114 <__bss_size+0x6ef2>
    4690:	58414d5f 	ldr	xzr, 87038 <__bss_end+0x1f28>
    4694:	4e495700 	.inst	0x4e495700 ; undefined
    4698:	494d5f54 	.inst	0x494d5f54 ; undefined
    469c:	4955004e 	.inst	0x4955004e ; undefined
    46a0:	465f544e 	.inst	0x465f544e ; undefined
    46a4:	31545341 	adds	w1, w26, #0x514, lsl #12
    46a8:	414d5f36 	.inst	0x414d5f36 ; undefined
    46ac:	5f5f2058 	.inst	0x5f5f2058 ; undefined
    46b0:	544e4955 	bc.pl	a0fd8 <_end+0x17ec8>  // bc.nfrst
    46b4:	5341465f 	.inst	0x5341465f ; undefined
    46b8:	5f363154 	.inst	0x5f363154 ; undefined
    46bc:	5f58414d 	.inst	0x5f58414d ; undefined
    46c0:	4955005f 	.inst	0x4955005f ; undefined
    46c4:	3233544e 	orr	w14, w2, #0xffffe007
    46c8:	58414d5f 	ldr	xzr, 87070 <__bss_end+0x1f60>
    46cc:	555f5f20 	.inst	0x555f5f20 ; undefined
    46d0:	33544e49 	.inst	0x33544e49 ; undefined
    46d4:	414d5f32 	.inst	0x414d5f32 ; undefined
    46d8:	005f5f58 	.inst	0x005f5f58 ; undefined
    46dc:	735f6d74 	.inst	0x735f6d74 ; undefined
    46e0:	57006365 	.inst	0x57006365 ; undefined
    46e4:	52414843 	.inst	0x52414843 ; undefined
    46e8:	58414d5f 	ldr	xzr, 87090 <__bss_end+0x1f80>
    46ec:	4e495700 	.inst	0x4e495700 ; undefined
    46f0:	494d5f54 	.inst	0x494d5f54 ; undefined
    46f4:	5f5f204e 	.inst	0x5f5f204e ; undefined
    46f8:	544e4957 	bc.vc	a1020 <_end+0x17f10>
    46fc:	4e494d5f 	.inst	0x4e494d5f ; undefined
    4700:	49005f5f 	.inst	0x49005f5f ; undefined
    4704:	3631544e 	tbz	w14, #6, 718c <__bss_size+0x6f6a>
    4708:	58414d5f 	ldr	xzr, 870b0 <__bss_end+0x1fa0>
    470c:	495f5f20 	.inst	0x495f5f20 ; undefined
    4710:	3631544e 	tbz	w14, #6, 7198 <__bss_size+0x6f76>
    4714:	58414d5f 	ldr	xzr, 870bc <__bss_end+0x1fac>
    4718:	55005f5f 	.inst	0x55005f5f ; undefined
    471c:	31544e49 	adds	w9, w18, #0x513, lsl #12
    4720:	00435f36 	.inst	0x00435f36 ; undefined
    4724:	544e4955 	bc.pl	a104c <_end+0x17f3c>  // bc.nfrst
    4728:	5f525450 	shl	d16, d2, #18
    472c:	0058414d 	.inst	0x0058414d ; undefined
    4730:	33544e49 	.inst	0x33544e49 ; undefined
    4734:	494d5f32 	.inst	0x494d5f32 ; undefined
    4738:	2d28204e 	stp	s14, s8, [x2, #-192]
    473c:	33544e49 	.inst	0x33544e49 ; undefined
    4740:	414d5f32 	.inst	0x414d5f32 ; undefined
    4744:	202d2058 	.inst	0x202d2058 ; undefined
    4748:	55002931 	.inst	0x55002931 ; undefined
    474c:	5f544e49 	.inst	0x5f544e49 ; undefined
    4750:	54534146 	b.vs	aaf78 <_end+0x21e68>
    4754:	414d5f38 	.inst	0x414d5f38 ; undefined
    4758:	565f0058 	.inst	0x565f0058 ; undefined
    475c:	494c5f41 	.inst	0x494c5f41 ; undefined
    4760:	445f5453 	smlslt	z19.h, z2.b, z31.b
    4764:	4e494645 	.inst	0x4e494645 ; undefined
    4768:	00204445 	.inst	0x00204445 ; NYI
    476c:	655f6176 	fcmne	p6.h, p0/z, z11.h, z31.h
    4770:	7628646e 	.inst	0x7628646e ; undefined
    4774:	5f5f2029 	.inst	0x5f5f2029 ; undefined
    4778:	6c697562 	ldnp	d2, d29, [x11, #-368]
    477c:	5f6e6974 	.inst	0x5f6e6974 ; undefined
    4780:	655f6176 	fcmne	p6.h, p0/z, z11.h, z31.h
    4784:	7628646e 	.inst	0x7628646e ; undefined
    4788:	535f0029 	.inst	0x535f0029 ; undefined
    478c:	52414454 	.inst	0x52414454 ; undefined
    4790:	20485f47 	.inst	0x20485f47 ; undefined
    4794:	5f617600 	sqshl	d0, d16, #33
    4798:	72617473 	.inst	0x72617473 ; undefined
    479c:	2c762874 	ldnp	s20, s10, [x3, #-80]
    47a0:	5f20296c 	.inst	0x5f20296c ; undefined
    47a4:	6975625f 	ldpsw	xzr, x24, [x18, #-88]
    47a8:	6e69746c 	uabd	v12.8h, v3.8h, v9.8h
    47ac:	5f61765f 	sqshl	d31, d18, #33
    47b0:	72617473 	.inst	0x72617473 ; undefined
    47b4:	2c762874 	ldnp	s20, s10, [x3, #-80]
    47b8:	5f00296c 	.inst	0x5f00296c ; undefined
    47bc:	5f61765f 	sqshl	d31, d18, #33
    47c0:	7473696c 	.inst	0x7473696c ; undefined
    47c4:	00205f5f 	.inst	0x00205f5f ; NYI
    47c8:	5f41565f 	shl	d31, d18, #1
    47cc:	5453494c 	b.gt	ab0f4 <_end+0x21fe4>
    47d0:	485f545f 	ldxrh	wzr, [x2]
    47d4:	565f0020 	.inst	0x565f0020 ; undefined
    47d8:	494c5f41 	.inst	0x494c5f41 ; undefined
    47dc:	205f5453 	.inst	0x205f5453 ; undefined
    47e0:	6e5f5f00 	.inst	0x6e5f5f00 ; undefined
    47e4:	5f646565 	.inst	0x5f646565 ; undefined
    47e8:	61765f5f 	.inst	0x61765f5f ; undefined
    47ec:	73696c5f 	.inst	0x73696c5f ; undefined
    47f0:	5f5f0074 	.inst	0x5f5f0074 ; undefined
    47f4:	635f6176 	.inst	0x635f6176 ; undefined
    47f8:	2879706f 	ldnp	w15, w28, [x3, #-56]
    47fc:	29732c64 	ldp	w4, w11, [x3, #-104]
    4800:	625f5f20 	.inst	0x625f5f20 ; undefined
    4804:	746c6975 	.inst	0x746c6975 ; undefined
    4808:	765f6e69 	.inst	0x765f6e69 ; undefined
    480c:	6f635f61 	.inst	0x6f635f61 ; undefined
    4810:	64287970 	.inst	0x64287970 ; undefined
    4814:	0029732c 	.inst	0x0029732c ; NYI
    4818:	615f6176 	.inst	0x615f6176 ; undefined
    481c:	76286772 	.inst	0x76286772 ; undefined
    4820:	20296c2c 	.inst	0x20296c2c ; undefined
    4824:	75625f5f 	.inst	0x75625f5f ; undefined
    4828:	69746c69 	ldpsw	x9, x27, [x3, #-96]
    482c:	61765f6e 	.inst	0x61765f6e ; undefined
    4830:	6772615f 	.inst	0x6772615f ; undefined
    4834:	6c2c7628 	stnp	d8, d29, [x17, #-320]
    4838:	415f0029 	.inst	0x415f0029 ; undefined
    483c:	5f49534e 	.inst	0x5f49534e ; undefined
    4840:	41445453 	.inst	0x41445453 ; undefined
    4844:	485f4752 	ldxrh	w18, [x26]
    4848:	5f00205f 	.inst	0x5f00205f ; undefined
    484c:	554e475f 	.inst	0x554e475f ; undefined
    4850:	41565f43 	.inst	0x41565f43 ; undefined
    4854:	53494c5f 	.inst	0x53494c5f ; undefined
    4858:	6d002054 	stp	d20, d8, [x2]
    485c:	006e6961 	.inst	0x006e6961 ; undefined

Disassembly of section .debug_line_str:

0000000000000000 <.debug_line_str>:
   0:	65637865 	fnmls	z5.h, p6/m, z3.h, z3.h
   4:	6f697470 	uqshl	v16.2d, v3.2d, #41
   8:	632e736e 	.inst	0x632e736e ; undefined
   c:	6f682f00 	.inst	0x6f682f00 ; undefined
  10:	612f656d 	.inst	0x612f656d ; undefined
  14:	672f7664 	.inst	0x672f7664 ; undefined
  18:	772f7469 	.inst	0x772f7469 ; undefined
  1c:	2f687366 	fcmla	v6.4h, v27.4h, v8.h[1], #270
  20:	4944534f 	.inst	0x4944534f ; undefined
  24:	54434e5f 	bc.nv	869ec <__bss_end+0x18dc>
  28:	616c2f55 	.inst	0x616c2f55 ; undefined
  2c:	302f7362 	adr	x2, 5ee99 <__bss_size+0x5ec77>
  30:	69740033 	ldpsw	x19, x0, [x1, #-96]
  34:	2e72656d 	umax	v13.4h, v11.4h, v18.4h
  38:	61750068 	.inst	0x61750068 ; undefined
  3c:	682e7472 	.inst	0x682e7472 ; undefined
  40:	67657200 	.inst	0x67657200 ; undefined
  44:	7600682e 	.inst	0x7600682e ; undefined
  48:	6f746365 	umlsl2	v5.4s, v27.8h, v4.h[3]
  4c:	00532e72 	.inst	0x00532e72 ; undefined
  50:	72617473 	.inst	0x72617473 ; undefined
  54:	00532e74 	.inst	0x00532e74 ; undefined
  58:	6c697475 	ldnp	d21, d29, [x3, #-368]
  5c:	7500632e 	.inst	0x7500632e ; undefined
  60:	2e747261 	uabdl	v1.4s, v19.4h, v20.4h
  64:	616d0063 	.inst	0x616d0063 ; undefined
  68:	6f626c69 	.inst	0x6f626c69 ; undefined
  6c:	00682e78 	.inst	0x00682e78 ; undefined
  70:	6975623c 	ldpsw	x28, x24, [x17, #-88]
  74:	692d746c 	stgp	x12, x29, [x3, #-608]
  78:	6d003e6e 	stp	d14, d15, [x19]
  7c:	626c6961 	.inst	0x626c6961 ; undefined
  80:	632e786f 	.inst	0x632e786f ; undefined
  84:	69747500 	ldpsw	x0, x29, [x8, #-96]
  88:	00682e6c 	.inst	0x00682e6c ; undefined
  8c:	632e6266 	.inst	0x632e6266 ; undefined
  90:	2e626600 	umax	v0.4h, v16.4h, v2.4h
  94:	69740068 	ldpsw	x8, x0, [x3, #-96]
  98:	2e72656d 	umax	v13.4h, v11.4h, v18.4h
  9c:	65720063 	fmla	z3.h, p0/m, z3.h, z18.h
  a0:	2e746573 	umax	v19.4h, v11.4h, v20.4h
  a4:	68730063 	.inst	0x68730063 ; undefined
  a8:	2e6c6c65 	umin	v5.4h, v3.4h, v12.4h
  ac:	752f0063 	.inst	0x752f0063 ; undefined
  b0:	6c2f7273 	stnp	d19, d28, [x19, #-272]
  b4:	672f6269 	.inst	0x672f6269 ; undefined
  b8:	632d6363 	.inst	0x632d6363 ; undefined
  bc:	73736f72 	.inst	0x73736f72 ; undefined
  c0:	7261612f 	.inst	0x7261612f ; undefined
  c4:	34366863 	cbz	w3, 6cdd0 <__bss_size+0x6cbae>
  c8:	6e696c2d 	umin	v13.8h, v1.8h, v9.8h
  cc:	672d7875 	.inst	0x672d7875 ; undefined
  d0:	312f756e 	adds	w14, w11, #0xbdd
  d4:	6e692f31 	uqsub	v17.8h, v25.8h, v9.8h
  d8:	64756c63 	.inst	0x64756c63 ; undefined
  dc:	65720065 	fmla	z5.h, p0/m, z3.h, z18.h
  e0:	2e746573 	umax	v19.4h, v11.4h, v20.4h
  e4:	74730068 	.inst	0x74730068 ; undefined
  e8:	746e6964 	.inst	0x746e6964 ; undefined
  ec:	6363672d 	.inst	0x6363672d ; undefined
  f0:	7300682e 	.inst	0x7300682e ; undefined
  f4:	6e696474 	umax	v20.8h, v3.8h, v9.8h
  f8:	00682e74 	.inst	0x00682e74 ; undefined
  fc:	6e69616d 	rsubhn2	v13.8h, v11.4s, v9.4s
 100:	7300632e 	.inst	0x7300632e ; undefined
 104:	6c6c6568 	ldnp	d8, d25, [x11, #-320]
 108:	7300682e 	.inst	0x7300682e ; undefined
 10c:	72616474 	.inst	0x72616474 ; undefined
 110:	00682e67 	.inst	0x00682e67 ; undefined
